	.file	"test_math.cpp"
 # GNU C++20 (Rev8, Built by MSYS2 project) version 15.2.0 (x86_64-w64-mingw32)
 #	compiled by GNU C version 15.2.0, GMP version 6.3.0, MPFR version 4.2.2, MPC version 1.3.1, isl version isl-0.27-GMP

 # GGC heuristics: --param ggc-min-expand=100 --param ggc-min-heapsize=131072
 # options passed: -mtune=generic -march=nocona -g -std=c++20
	.text
.Ltext0:
	.cfi_sections	.debug_frame
	.file 0 "E://Projects//Simulation_Projects//cva_cpp//build//tests" "E:/Projects/Simulation_Projects/cva_cpp/tests/test_math.cpp"
	.section	.text$_ZSt21is_constant_evaluatedv,"x"
	.linkonce discard
	.globl	_ZSt21is_constant_evaluatedv
	.def	_ZSt21is_constant_evaluatedv;	.scl	2;	.type	32;	.endef
	.seh_proc	_ZSt21is_constant_evaluatedv
_ZSt21is_constant_evaluatedv:
.LFB15:
	.file 1 "D:/msys64/ucrt64/include/c++/15.2.0/type_traits"
	.loc 1 4007 3
	.cfi_startproc
	pushq	%rbp	 #
	.seh_pushreg	%rbp
	.cfi_def_cfa_offset 16
	.cfi_offset 6, -16
	movq	%rsp, %rbp	 #,
	.seh_setframe	%rbp, 0
	.cfi_def_cfa_register 6
	.seh_endprologue
 # D:/msys64/ucrt64/include/c++/15.2.0/type_traits:4011:     return __builtin_is_constant_evaluated();
	.loc 1 4011 44
	movl	$0, %eax	 #, _1
 # D:/msys64/ucrt64/include/c++/15.2.0/type_traits:4013:   }
	.loc 1 4013 3
	popq	%rbp	 #
	.cfi_restore 6
	.cfi_def_cfa 7, 8
	ret	
	.cfi_endproc
.LFE15:
	.seh_endproc
	.section	.text$_ZnwyPv,"x"
	.linkonce discard
	.globl	_ZnwyPv
	.def	_ZnwyPv;	.scl	2;	.type	32;	.endef
	.seh_proc	_ZnwyPv
_ZnwyPv:
.LFB203:
	.file 2 "D:/msys64/ucrt64/include/c++/15.2.0/new"
	.loc 2 208 1
	.cfi_startproc
	pushq	%rbp	 #
	.seh_pushreg	%rbp
	.cfi_def_cfa_offset 16
	.cfi_offset 6, -16
	movq	%rsp, %rbp	 #,
	.seh_setframe	%rbp, 0
	.cfi_def_cfa_register 6
	.seh_endprologue
	movq	%rcx, 16(%rbp)	 # D.12411, D.12411
	movq	%rdx, 24(%rbp)	 # __p, __p
 # D:/msys64/ucrt64/include/c++/15.2.0/new:208: { return __p; }
	.loc 2 208 10
	movq	24(%rbp), %rax	 # __p, _2
 # D:/msys64/ucrt64/include/c++/15.2.0/new:208: { return __p; }
	.loc 2 208 15
	popq	%rbp	 #
	.cfi_restore 6
	.cfi_def_cfa 7, 8
	ret	
	.cfi_endproc
.LFE203:
	.seh_endproc
	.section	.text$_ZdlPvS_,"x"
	.linkonce discard
	.globl	_ZdlPvS_
	.def	_ZdlPvS_;	.scl	2;	.type	32;	.endef
	.seh_proc	_ZdlPvS_
_ZdlPvS_:
.LFB205:
	.loc 2 219 1
	.cfi_startproc
	pushq	%rbp	 #
	.seh_pushreg	%rbp
	.cfi_def_cfa_offset 16
	.cfi_offset 6, -16
	movq	%rsp, %rbp	 #,
	.seh_setframe	%rbp, 0
	.cfi_def_cfa_register 6
	.seh_endprologue
	movq	%rcx, 16(%rbp)	 # D.12419, D.12419
	movq	%rdx, 24(%rbp)	 # D.12420, D.12420
 # D:/msys64/ucrt64/include/c++/15.2.0/new:219: { }
	.loc 2 219 3
	nop	
	popq	%rbp	 #
	.cfi_restore 6
	.cfi_def_cfa 7, 8
	ret	
	.cfi_endproc
.LFE205:
	.seh_endproc
	.section	.text$_ZSt3absd,"x"
	.linkonce discard
	.globl	_ZSt3absd
	.def	_ZSt3absd;	.scl	2;	.type	32;	.endef
	.seh_proc	_ZSt3absd
_ZSt3absd:
.LFB2207:
	.file 3 "D:/msys64/ucrt64/include/c++/15.2.0/bits/std_abs.h"
	.loc 3 78 3
	.cfi_startproc
	pushq	%rbp	 #
	.seh_pushreg	%rbp
	.cfi_def_cfa_offset 16
	.cfi_offset 6, -16
	movq	%rsp, %rbp	 #,
	.seh_setframe	%rbp, 0
	.cfi_def_cfa_register 6
	.seh_endprologue
	movsd	%xmm0, 16(%rbp)	 # __x, __x
 # D:/msys64/ucrt64/include/c++/15.2.0/bits/std_abs.h:78:   { return __builtin_fabs(__x); }
	.loc 3 78 30
	movsd	16(%rbp), %xmm0	 # __x, tmp100
	movq	.LC0(%rip), %xmm1	 #, tmp101
	andpd	%xmm1, %xmm0	 # tmp101, _2
 # D:/msys64/ucrt64/include/c++/15.2.0/bits/std_abs.h:78:   { return __builtin_fabs(__x); }
	.loc 3 78 33
	popq	%rbp	 #
	.cfi_restore 6
	.cfi_def_cfa 7, 8
	ret	
	.cfi_endproc
.LFE2207:
	.seh_endproc
	.section	.text$_ZN3cva4math6MatrixC1Eyyd,"x"
	.linkonce discard
	.align 2
	.globl	_ZN3cva4math6MatrixC1Eyyd
	.def	_ZN3cva4math6MatrixC1Eyyd;	.scl	2;	.type	32;	.endef
	.seh_proc	_ZN3cva4math6MatrixC1Eyyd
_ZN3cva4math6MatrixC1Eyyd:
.LFB2950:
	.file 4 "E:/Projects/Simulation_Projects/cva_cpp/includes_hpp/math/matrix.hpp"
	.loc 4 15 9
	.cfi_startproc
	pushq	%rbp	 #
	.seh_pushreg	%rbp
	.cfi_def_cfa_offset 16
	.cfi_offset 6, -16
	movq	%rsp, %rbp	 #,
	.seh_setframe	%rbp, 0
	.cfi_def_cfa_register 6
	subq	$48, %rsp	 #,
	.seh_stackalloc	48
	.seh_endprologue
	movq	%rcx, 16(%rbp)	 # this, this
	movq	%rdx, 24(%rbp)	 # rows, rows
	movq	%r8, 32(%rbp)	 # cols, cols
	movsd	%xmm3, 40(%rbp)	 # initial_value, initial_value
.LBB92:
 # E:/Projects/Simulation_Projects/cva_cpp/includes_hpp/math/matrix.hpp:16:             : rows_(rows), cols_(cols), data_(rows * cols, initial_value) {}
	.loc 4 16 15
	movq	16(%rbp), %rax	 # this, tmp101
	movq	24(%rbp), %rdx	 # rows, tmp102
	movq	%rdx, (%rax)	 # tmp102, this_5(D)->rows_
 # E:/Projects/Simulation_Projects/cva_cpp/includes_hpp/math/matrix.hpp:16:             : rows_(rows), cols_(cols), data_(rows * cols, initial_value) {}
	.loc 4 16 28
	movq	16(%rbp), %rax	 # this, tmp103
	movq	32(%rbp), %rdx	 # cols, tmp104
	movq	%rdx, 8(%rax)	 # tmp104, this_5(D)->cols_
 # E:/Projects/Simulation_Projects/cva_cpp/includes_hpp/math/matrix.hpp:16:             : rows_(rows), cols_(cols), data_(rows * cols, initial_value) {}
	.loc 4 16 41
	movq	16(%rbp), %rax	 # this, tmp105
	leaq	16(%rax), %rcx	 #, _1
	leaq	-9(%rbp), %rax	 #, tmp106
	movq	%rax, -8(%rbp)	 # tmp106, this
.LBB93:
.LBB94:
.LBB95:
.LBB96:
.LBB97:
 # D:/msys64/ucrt64/include/c++/15.2.0/bits/new_allocator.h:88:       __new_allocator() _GLIBCXX_USE_NOEXCEPT { }
	.file 5 "D:/msys64/ucrt64/include/c++/15.2.0/bits/new_allocator.h"
	.loc 5 88 36
	nop	
.LBE97:
.LBE96:
.LBE95:
 # D:/msys64/ucrt64/include/c++/15.2.0/bits/allocator.h:168:       allocator() _GLIBCXX_NOTHROW { }
	.file 6 "D:/msys64/ucrt64/include/c++/15.2.0/bits/allocator.h"
	.loc 6 168 30
	nop	
.LBE94:
.LBE93:
 # E:/Projects/Simulation_Projects/cva_cpp/includes_hpp/math/matrix.hpp:16:             : rows_(rows), cols_(cols), data_(rows * cols, initial_value) {}
	.loc 4 16 41 discriminator 1
	movq	24(%rbp), %rax	 # rows, tmp107
	imulq	32(%rbp), %rax	 # cols, _2
	leaq	-9(%rbp), %r8	 #, tmp108
	leaq	40(%rbp), %rdx	 #, tmp109
	movq	%r8, %r9	 # tmp108,
	movq	%rdx, %r8	 # tmp109,
	movq	%rax, %rdx	 # _2,
	call	_ZNSt6vectorIdSaIdEEC1EyRKdRKS0_	 #
.LBB98:
.LBB99:
 # D:/msys64/ucrt64/include/c++/15.2.0/bits/allocator.h:189:       ~allocator() _GLIBCXX_NOTHROW { }
	.loc 6 189 31
	nop	
.LBE99:
.LBE98:
.LBE92:
 # E:/Projects/Simulation_Projects/cva_cpp/includes_hpp/math/matrix.hpp:16:             : rows_(rows), cols_(cols), data_(rows * cols, initial_value) {}
	.loc 4 16 76
	nop	
	addq	$48, %rsp	 #,
	popq	%rbp	 #
	.cfi_restore 6
	.cfi_def_cfa 7, 8
	ret	
	.cfi_endproc
.LFE2950:
	.seh_endproc
	.section	.text$_ZN3cva4math6MatrixclEyy,"x"
	.linkonce discard
	.align 2
	.globl	_ZN3cva4math6MatrixclEyy
	.def	_ZN3cva4math6MatrixclEyy;	.scl	2;	.type	32;	.endef
	.seh_proc	_ZN3cva4math6MatrixclEyy
_ZN3cva4math6MatrixclEyy:
.LFB2953:
	.loc 4 22 17
	.cfi_startproc
	pushq	%rbp	 #
	.seh_pushreg	%rbp
	.cfi_def_cfa_offset 16
	.cfi_offset 6, -16
	movq	%rsp, %rbp	 #,
	.seh_setframe	%rbp, 0
	.cfi_def_cfa_register 6
	subq	$32, %rsp	 #,
	.seh_stackalloc	32
	.seh_endprologue
	movq	%rcx, 16(%rbp)	 # this, this
	movq	%rdx, 24(%rbp)	 # i, i
	movq	%r8, 32(%rbp)	 # j, j
 # E:/Projects/Simulation_Projects/cva_cpp/includes_hpp/math/matrix.hpp:23:             return data_[i * cols_ + j];
	.loc 4 23 39
	movq	16(%rbp), %rax	 # this, tmp104
	addq	$16, %rax	 #, _1
 # E:/Projects/Simulation_Projects/cva_cpp/includes_hpp/math/matrix.hpp:23:             return data_[i * cols_ + j];
	.loc 4 23 30
	movq	16(%rbp), %rdx	 # this, tmp105
	movq	8(%rdx), %rdx	 # this_5(D)->cols_, _2
 # E:/Projects/Simulation_Projects/cva_cpp/includes_hpp/math/matrix.hpp:23:             return data_[i * cols_ + j];
	.loc 4 23 28
	movq	%rdx, %rcx	 # _2, _2
	imulq	24(%rbp), %rcx	 # i, _2
 # E:/Projects/Simulation_Projects/cva_cpp/includes_hpp/math/matrix.hpp:23:             return data_[i * cols_ + j];
	.loc 4 23 39
	movq	32(%rbp), %rdx	 # j, tmp106
	addq	%rcx, %rdx	 # _3, _4
	movq	%rax, %rcx	 # _1,
	call	_ZNSt6vectorIdSaIdEEixEy	 #
 # E:/Projects/Simulation_Projects/cva_cpp/includes_hpp/math/matrix.hpp:24:         }
	.loc 4 24 9
	addq	$32, %rsp	 #,
	popq	%rbp	 #
	.cfi_restore 6
	.cfi_def_cfa 7, 8
	ret	
	.cfi_endproc
.LFE2953:
	.seh_endproc
	.section .rdata,"dr"
.LC1:
	.ascii "Matrix dimension mismatch\0"
	.section	.text$_ZN3cva4math6MatrixpLERKS1_,"x"
	.linkonce discard
	.align 2
	.globl	_ZN3cva4math6MatrixpLERKS1_
	.def	_ZN3cva4math6MatrixpLERKS1_;	.scl	2;	.type	32;	.endef
	.seh_proc	_ZN3cva4math6MatrixpLERKS1_
_ZN3cva4math6MatrixpLERKS1_:
.LFB2957:
	.loc 4 35 17
	.cfi_startproc
	pushq	%rbp	 #
	.seh_pushreg	%rbp
	.cfi_def_cfa_offset 16
	.cfi_offset 6, -16
	pushq	%rsi	 #
	.seh_pushreg	%rsi
	.cfi_def_cfa_offset 24
	.cfi_offset 4, -24
	pushq	%rbx	 #
	.seh_pushreg	%rbx
	.cfi_def_cfa_offset 32
	.cfi_offset 3, -32
	subq	$64, %rsp	 #,
	.seh_stackalloc	64
	.cfi_def_cfa_offset 96
	leaq	48(%rsp), %rbp	 #,
	.seh_setframe	%rbp, 48
	.cfi_def_cfa 6, 48
	movups	%xmm6, 0(%rbp)	 #,
	.seh_savexmm	%xmm6, 48
	.cfi_offset 23, -48
	.seh_endprologue
	movq	%rcx, 48(%rbp)	 # this, this
	movq	%rdx, 56(%rbp)	 # other, other
 # E:/Projects/Simulation_Projects/cva_cpp/includes_hpp/math/matrix.hpp:36:             if (rows_ != other.rows_ || cols_ != other.cols_) {
	.loc 4 36 17
	movq	48(%rbp), %rax	 # this, tmp116
	movq	(%rax), %rdx	 # this_15(D)->rows_, _1
 # E:/Projects/Simulation_Projects/cva_cpp/includes_hpp/math/matrix.hpp:36:             if (rows_ != other.rows_ || cols_ != other.cols_) {
	.loc 4 36 32
	movq	56(%rbp), %rax	 # other, tmp117
	movq	(%rax), %rax	 # other_16(D)->rows_, _2
 # E:/Projects/Simulation_Projects/cva_cpp/includes_hpp/math/matrix.hpp:36:             if (rows_ != other.rows_ || cols_ != other.cols_) {
	.loc 4 36 13
	cmpq	%rax, %rdx	 # _2, _1
	jne	.L12	 #,
 # E:/Projects/Simulation_Projects/cva_cpp/includes_hpp/math/matrix.hpp:36:             if (rows_ != other.rows_ || cols_ != other.cols_) {
	.loc 4 36 41 discriminator 1
	movq	48(%rbp), %rax	 # this, tmp118
	movq	8(%rax), %rdx	 # this_15(D)->cols_, _3
 # E:/Projects/Simulation_Projects/cva_cpp/includes_hpp/math/matrix.hpp:36:             if (rows_ != other.rows_ || cols_ != other.cols_) {
	.loc 4 36 56 discriminator 1
	movq	56(%rbp), %rax	 # other, tmp119
	movq	8(%rax), %rax	 # other_16(D)->cols_, _4
 # E:/Projects/Simulation_Projects/cva_cpp/includes_hpp/math/matrix.hpp:36:             if (rows_ != other.rows_ || cols_ != other.cols_) {
	.loc 4 36 38 discriminator 1
	cmpq	%rax, %rdx	 # _4, _3
	je	.L13	 #,
.L12:
 # E:/Projects/Simulation_Projects/cva_cpp/includes_hpp/math/matrix.hpp:37:                 throw std::invalid_argument("Matrix dimension mismatch");
	.loc 4 37 72
	movl	$16, %ecx	 #,
	call	__cxa_allocate_exception	 #
	movq	%rax, %rbx	 # tmp120, _28
 # E:/Projects/Simulation_Projects/cva_cpp/includes_hpp/math/matrix.hpp:37:                 throw std::invalid_argument("Matrix dimension mismatch");
	.loc 4 37 72 is_stmt 0 discriminator 1
	leaq	.LC1(%rip), %rax	 #, tmp121
	movq	%rax, %rdx	 # tmp121,
	movq	%rbx, %rcx	 # _28,
.LEHB0:
	call	_ZNSt16invalid_argumentC1EPKc	 #
.LEHE0:
 # E:/Projects/Simulation_Projects/cva_cpp/includes_hpp/math/matrix.hpp:37:                 throw std::invalid_argument("Matrix dimension mismatch");
	.loc 4 37 72 discriminator 4
	movq	.refptr._ZNSt16invalid_argumentD1Ev(%rip), %rdx	 #, tmp122
	leaq	_ZTISt16invalid_argument(%rip), %rax	 #, tmp123
	movq	%rdx, %r8	 # tmp122,
	movq	%rax, %rdx	 # tmp123,
	movq	%rbx, %rcx	 # _28,
.LEHB1:
	call	__cxa_throw	 #
.L13:
.LBB100:
 # E:/Projects/Simulation_Projects/cva_cpp/includes_hpp/math/matrix.hpp:39:             for (size_t i = 0; i < data_.size(); ++i) {
	.loc 4 39 25 is_stmt 1
	movq	$0, -8(%rbp)	 #, i
 # E:/Projects/Simulation_Projects/cva_cpp/includes_hpp/math/matrix.hpp:39:             for (size_t i = 0; i < data_.size(); ++i) {
	.loc 4 39 13
	jmp	.L14	 #
.L15:
 # E:/Projects/Simulation_Projects/cva_cpp/includes_hpp/math/matrix.hpp:40:                 data_[i] += other.data_[i];
	.loc 4 40 42
	movq	56(%rbp), %rax	 # other, tmp124
	leaq	16(%rax), %rcx	 #, _5
	movq	-8(%rbp), %rax	 # i, tmp125
	movq	%rax, %rdx	 # tmp125,
	call	_ZNKSt6vectorIdSaIdEEixEy	 #
 # E:/Projects/Simulation_Projects/cva_cpp/includes_hpp/math/matrix.hpp:40:                 data_[i] += other.data_[i];
	.loc 4 40 26 discriminator 1
	movsd	(%rax), %xmm6	 # *_6, _22
 # E:/Projects/Simulation_Projects/cva_cpp/includes_hpp/math/matrix.hpp:40:                 data_[i] += other.data_[i];
	.loc 4 40 24 discriminator 1
	movq	48(%rbp), %rax	 # this, tmp126
	leaq	16(%rax), %rcx	 #, _7
	movq	-8(%rbp), %rax	 # i, tmp127
	movq	%rax, %rdx	 # tmp127,
	call	_ZNSt6vectorIdSaIdEEixEy	 #
 # E:/Projects/Simulation_Projects/cva_cpp/includes_hpp/math/matrix.hpp:40:                 data_[i] += other.data_[i];
	.loc 4 40 26 discriminator 2
	movsd	(%rax), %xmm0	 # *_24, _8
	addsd	%xmm6, %xmm0	 # _22, _9
	movsd	%xmm0, (%rax)	 # _9, *_24
 # E:/Projects/Simulation_Projects/cva_cpp/includes_hpp/math/matrix.hpp:39:             for (size_t i = 0; i < data_.size(); ++i) {
	.loc 4 39 13 discriminator 4
	addq	$1, -8(%rbp)	 #, i
.L14:
 # E:/Projects/Simulation_Projects/cva_cpp/includes_hpp/math/matrix.hpp:39:             for (size_t i = 0; i < data_.size(); ++i) {
	.loc 4 39 46 discriminator 1
	movq	48(%rbp), %rax	 # this, tmp128
	addq	$16, %rax	 #, _10
	movq	%rax, %rcx	 # _10,
	call	_ZNKSt6vectorIdSaIdEE4sizeEv	 #
 # E:/Projects/Simulation_Projects/cva_cpp/includes_hpp/math/matrix.hpp:39:             for (size_t i = 0; i < data_.size(); ++i) {
	.loc 4 39 34 discriminator 3
	cmpq	%rax, -8(%rbp)	 # _11, i
	setb	%al	 #, retval.19_19
	testb	%al, %al	 # retval.19_19
	jne	.L15	 #,
.LBE100:
 # E:/Projects/Simulation_Projects/cva_cpp/includes_hpp/math/matrix.hpp:42:             return *this;
	.loc 4 42 21
	movq	48(%rbp), %rax	 # this, _20
	jmp	.L19	 #
.L18:
 # E:/Projects/Simulation_Projects/cva_cpp/includes_hpp/math/matrix.hpp:37:                 throw std::invalid_argument("Matrix dimension mismatch");
	.loc 4 37 72 discriminator 3
	movq	%rax, %rsi	 #, tmp130
	movq	%rbx, %rcx	 # _28,
	call	__cxa_free_exception	 #
	movq	%rsi, %rax	 # tmp130, D.96243
	movq	%rax, %rcx	 # D.96243,
	call	_Unwind_Resume	 #
.LEHE1:
.L19:
 # E:/Projects/Simulation_Projects/cva_cpp/includes_hpp/math/matrix.hpp:43:         }
	.loc 4 43 9
	movups	0(%rbp), %xmm6	 #,
	addq	$64, %rsp	 #,
	.cfi_restore 23
	popq	%rbx	 #
	.cfi_restore 3
	popq	%rsi	 #
	.cfi_restore 4
	popq	%rbp	 #
	.cfi_restore 6
	.cfi_def_cfa 7, -40
	ret	
	.cfi_endproc
.LFE2957:
	.seh_handler	__gxx_personality_seh0, @unwind, @except
	.seh_handlerdata
.LLSDA2957:
	.byte	0xff
	.byte	0xff
	.byte	0x1
	.uleb128 .LLSDACSE2957-.LLSDACSB2957
.LLSDACSB2957:
	.uleb128 .LEHB0-.LFB2957
	.uleb128 .LEHE0-.LEHB0
	.uleb128 .L18-.LFB2957
	.uleb128 0
	.uleb128 .LEHB1-.LFB2957
	.uleb128 .LEHE1-.LEHB1
	.uleb128 0
	.uleb128 0
.LLSDACSE2957:
	.section	.text$_ZN3cva4math6MatrixpLERKS1_,"x"
	.linkonce discard
	.seh_endproc
	.section	.text$_ZN3cva4math6MatrixD1Ev,"x"
	.linkonce discard
	.align 2
	.globl	_ZN3cva4math6MatrixD1Ev
	.def	_ZN3cva4math6MatrixD1Ev;	.scl	2;	.type	32;	.endef
	.seh_proc	_ZN3cva4math6MatrixD1Ev
_ZN3cva4math6MatrixD1Ev:
.LFB4840:
	.loc 4 13 11
	.cfi_startproc
	pushq	%rbp	 #
	.seh_pushreg	%rbp
	.cfi_def_cfa_offset 16
	.cfi_offset 6, -16
	movq	%rsp, %rbp	 #,
	.seh_setframe	%rbp, 0
	.cfi_def_cfa_register 6
	subq	$32, %rsp	 #,
	.seh_stackalloc	32
	.seh_endprologue
	movq	%rcx, 16(%rbp)	 # this, this
.LBB101:
 # E:/Projects/Simulation_Projects/cva_cpp/includes_hpp/math/matrix.hpp:13:     class Matrix {
	.loc 4 13 11
	movq	16(%rbp), %rax	 # this, tmp99
	addq	$16, %rax	 #, _1
	movq	%rax, %rcx	 # _1,
	call	_ZNSt6vectorIdSaIdEED1Ev	 #
.LBE101:
	nop	
	addq	$32, %rsp	 #,
	popq	%rbp	 #
	.cfi_restore 6
	.cfi_def_cfa 7, 8
	ret	
	.cfi_endproc
.LFE4840:
	.seh_endproc
	.section .rdata,"dr"
.LC2:
	.ascii "Testing Matrix...\0"
	.align 8
.LC8:
	.ascii "E:\\Projects\\Simulation_Projects\\cva_cpp\\tests\\test_math.cpp\0"
.LC9:
	.ascii "m(0, 0) == 1.0\0"
.LC10:
	.ascii "m(1, 1) == 4.0\0"
.LC11:
	.ascii "m(0, 0) == 2.0\0"
.LC12:
	.ascii "m(0, 1) == 3.0\0"
.LC13:
	.ascii "Matrix tests passed.\0"
	.text
	.globl	_Z11test_matrixv
	.def	_Z11test_matrixv;	.scl	2;	.type	32;	.endef
	.seh_proc	_Z11test_matrixv
_Z11test_matrixv:
.LFB4837:
	.file 7 "E:/Projects/Simulation_Projects/cva_cpp/tests/test_math.cpp"
	.loc 7 20 20
	.cfi_startproc
	pushq	%rbp	 #
	.seh_pushreg	%rbp
	.cfi_def_cfa_offset 16
	.cfi_offset 6, -16
	pushq	%rbx	 #
	.seh_pushreg	%rbx
	.cfi_def_cfa_offset 24
	.cfi_offset 3, -24
	subq	$136, %rsp	 #,
	.seh_stackalloc	136
	.cfi_def_cfa_offset 160
	leaq	128(%rsp), %rbp	 #,
	.seh_setframe	%rbp, 128
	.cfi_def_cfa 6, 32
	.seh_endprologue
 # E:\Projects\Simulation_Projects\cva_cpp\tests\test_math.cpp:21:     std::cout << "Testing Matrix..." << std::endl;
	.loc 7 21 18
	leaq	.LC2(%rip), %rdx	 #, tmp117
	movq	.refptr._ZSt4cout(%rip), %rax	 #, tmp118
	movq	%rax, %rcx	 # tmp118,
.LEHB2:
	call	_ZStlsISt11char_traitsIcEERSt13basic_ostreamIcT_ES5_PKc	 #
	movq	%rax, %rcx	 #, _1
 # E:\Projects\Simulation_Projects\cva_cpp\tests\test_math.cpp:21:     std::cout << "Testing Matrix..." << std::endl;
	.loc 7 21 46 discriminator 2
	movq	.refptr._ZSt4endlIcSt11char_traitsIcEERSt13basic_ostreamIT_T0_ES6_(%rip), %rax	 #, tmp119
	movq	%rax, %rdx	 # tmp119,
	call	_ZNSolsEPFRSoS_E	 #
 # E:\Projects\Simulation_Projects\cva_cpp\tests\test_math.cpp:22:     cva::math::Matrix m(2, 2);
	.loc 7 22 29
	leaq	-48(%rbp), %rax	 #, tmp120
	pxor	%xmm3, %xmm3	 #
	movl	$2, %r8d	 #,
	movl	$2, %edx	 #,
	movq	%rax, %rcx	 # tmp120,
	call	_ZN3cva4math6MatrixC1Eyyd	 #
.LEHE2:
 # E:\Projects\Simulation_Projects\cva_cpp\tests\test_math.cpp:23:     m(0, 0) = 1.0; m(0, 1) = 2.0;
	.loc 7 23 6
	leaq	-48(%rbp), %rax	 #, tmp121
	movl	$0, %r8d	 #,
	movl	$0, %edx	 #,
	movq	%rax, %rcx	 # tmp121,
	call	_ZN3cva4math6MatrixclEyy	 #
 # E:\Projects\Simulation_Projects\cva_cpp\tests\test_math.cpp:23:     m(0, 0) = 1.0; m(0, 1) = 2.0;
	.loc 7 23 13 discriminator 1
	movsd	.LC4(%rip), %xmm0	 #, tmp122
	movsd	%xmm0, (%rax)	 # tmp122, *_2
 # E:\Projects\Simulation_Projects\cva_cpp\tests\test_math.cpp:23:     m(0, 0) = 1.0; m(0, 1) = 2.0;
	.loc 7 23 21 discriminator 1
	leaq	-48(%rbp), %rax	 #, tmp123
	movl	$1, %r8d	 #,
	movl	$0, %edx	 #,
	movq	%rax, %rcx	 # tmp123,
	call	_ZN3cva4math6MatrixclEyy	 #
 # E:\Projects\Simulation_Projects\cva_cpp\tests\test_math.cpp:23:     m(0, 0) = 1.0; m(0, 1) = 2.0;
	.loc 7 23 28 discriminator 2
	movsd	.LC5(%rip), %xmm0	 #, tmp124
	movsd	%xmm0, (%rax)	 # tmp124, *_3
 # E:\Projects\Simulation_Projects\cva_cpp\tests\test_math.cpp:24:     m(1, 0) = 3.0; m(1, 1) = 4.0;
	.loc 7 24 6
	leaq	-48(%rbp), %rax	 #, tmp125
	movl	$0, %r8d	 #,
	movl	$1, %edx	 #,
	movq	%rax, %rcx	 # tmp125,
	call	_ZN3cva4math6MatrixclEyy	 #
 # E:\Projects\Simulation_Projects\cva_cpp\tests\test_math.cpp:24:     m(1, 0) = 3.0; m(1, 1) = 4.0;
	.loc 7 24 13 discriminator 1
	movsd	.LC6(%rip), %xmm0	 #, tmp126
	movsd	%xmm0, (%rax)	 # tmp126, *_4
 # E:\Projects\Simulation_Projects\cva_cpp\tests\test_math.cpp:24:     m(1, 0) = 3.0; m(1, 1) = 4.0;
	.loc 7 24 21 discriminator 1
	leaq	-48(%rbp), %rax	 #, tmp127
	movl	$1, %r8d	 #,
	movl	$1, %edx	 #,
	movq	%rax, %rcx	 # tmp127,
	call	_ZN3cva4math6MatrixclEyy	 #
 # E:\Projects\Simulation_Projects\cva_cpp\tests\test_math.cpp:24:     m(1, 0) = 3.0; m(1, 1) = 4.0;
	.loc 7 24 28 discriminator 2
	movsd	.LC7(%rip), %xmm0	 #, tmp128
	movsd	%xmm0, (%rax)	 # tmp128, *_5
 # E:\Projects\Simulation_Projects\cva_cpp\tests\test_math.cpp:26:     assert(m(0, 0) == 1.0);
	.loc 7 26 5
	leaq	-48(%rbp), %rax	 #, tmp129
	movl	$0, %r8d	 #,
	movl	$0, %edx	 #,
	movq	%rax, %rcx	 # tmp129,
	call	_ZN3cva4math6MatrixclEyy	 #
 # E:\Projects\Simulation_Projects\cva_cpp\tests\test_math.cpp:26:     assert(m(0, 0) == 1.0);
	.loc 7 26 5 is_stmt 0 discriminator 1
	movsd	(%rax), %xmm0	 # *_6, _7
 # E:\Projects\Simulation_Projects\cva_cpp\tests\test_math.cpp:26:     assert(m(0, 0) == 1.0);
	.loc 7 26 4 is_stmt 1 discriminator 1
	movsd	.LC4(%rip), %xmm1	 #, tmp130
	ucomisd	%xmm1, %xmm0	 # tmp130, _7
	jp	.L34	 #,
	movsd	.LC4(%rip), %xmm1	 #, tmp131
	ucomisd	%xmm1, %xmm0	 # tmp131, _7
	je	.L22	 #,
.L34:
 # E:\Projects\Simulation_Projects\cva_cpp\tests\test_math.cpp:26:     assert(m(0, 0) == 1.0);
	.loc 7 26 18 discriminator 3
	leaq	.LC8(%rip), %rdx	 #, tmp132
	leaq	.LC9(%rip), %rax	 #, tmp133
	movl	$26, %r8d	 #,
	movq	%rax, %rcx	 # tmp133,
.LEHB3:
	call	_assert	 #
.L22:
 # E:\Projects\Simulation_Projects\cva_cpp\tests\test_math.cpp:27:     assert(m(1, 1) == 4.0);
	.loc 7 27 5
	leaq	-48(%rbp), %rax	 #, tmp134
	movl	$1, %r8d	 #,
	movl	$1, %edx	 #,
	movq	%rax, %rcx	 # tmp134,
	call	_ZN3cva4math6MatrixclEyy	 #
 # E:\Projects\Simulation_Projects\cva_cpp\tests\test_math.cpp:27:     assert(m(1, 1) == 4.0);
	.loc 7 27 5 is_stmt 0 discriminator 1
	movsd	(%rax), %xmm0	 # *_8, _9
 # E:\Projects\Simulation_Projects\cva_cpp\tests\test_math.cpp:27:     assert(m(1, 1) == 4.0);
	.loc 7 27 4 is_stmt 1 discriminator 1
	ucomisd	.LC7(%rip), %xmm0	 #, _9
	jp	.L35	 #,
	ucomisd	.LC7(%rip), %xmm0	 #, _9
	je	.L24	 #,
.L35:
 # E:\Projects\Simulation_Projects\cva_cpp\tests\test_math.cpp:27:     assert(m(1, 1) == 4.0);
	.loc 7 27 18 discriminator 3
	leaq	.LC8(%rip), %rdx	 #, tmp135
	leaq	.LC10(%rip), %rax	 #, tmp136
	movl	$27, %r8d	 #,
	movq	%rax, %rcx	 # tmp136,
	call	_assert	 #
.L24:
 # E:\Projects\Simulation_Projects\cva_cpp\tests\test_math.cpp:30:     cva::math::Matrix m2(2, 2, 1.0);
	.loc 7 30 35
	movsd	.LC4(%rip), %xmm0	 #, tmp137
	leaq	-96(%rbp), %rax	 #, tmp138
	movapd	%xmm0, %xmm3	 # tmp137,
	movl	$2, %r8d	 #,
	movl	$2, %edx	 #,
	movq	%rax, %rcx	 # tmp138,
	call	_ZN3cva4math6MatrixC1Eyyd	 #
.LEHE3:
 # E:\Projects\Simulation_Projects\cva_cpp\tests\test_math.cpp:31:     m += m2;
	.loc 7 31 10
	leaq	-96(%rbp), %rdx	 #, tmp139
	leaq	-48(%rbp), %rax	 #, tmp140
	movq	%rax, %rcx	 # tmp140,
.LEHB4:
	call	_ZN3cva4math6MatrixpLERKS1_	 #
 # E:\Projects\Simulation_Projects\cva_cpp\tests\test_math.cpp:32:     assert(m(0, 0) == 2.0);
	.loc 7 32 5
	leaq	-48(%rbp), %rax	 #, tmp141
	movl	$0, %r8d	 #,
	movl	$0, %edx	 #,
	movq	%rax, %rcx	 # tmp141,
	call	_ZN3cva4math6MatrixclEyy	 #
 # E:\Projects\Simulation_Projects\cva_cpp\tests\test_math.cpp:32:     assert(m(0, 0) == 2.0);
	.loc 7 32 5 is_stmt 0 discriminator 1
	movsd	(%rax), %xmm0	 # *_10, _11
 # E:\Projects\Simulation_Projects\cva_cpp\tests\test_math.cpp:32:     assert(m(0, 0) == 2.0);
	.loc 7 32 4 is_stmt 1 discriminator 1
	ucomisd	.LC5(%rip), %xmm0	 #, _11
	jp	.L36	 #,
	ucomisd	.LC5(%rip), %xmm0	 #, _11
	je	.L26	 #,
.L36:
 # E:\Projects\Simulation_Projects\cva_cpp\tests\test_math.cpp:32:     assert(m(0, 0) == 2.0);
	.loc 7 32 18 discriminator 3
	leaq	.LC8(%rip), %rdx	 #, tmp142
	leaq	.LC11(%rip), %rax	 #, tmp143
	movl	$32, %r8d	 #,
	movq	%rax, %rcx	 # tmp143,
	call	_assert	 #
.L26:
 # E:\Projects\Simulation_Projects\cva_cpp\tests\test_math.cpp:33:     assert(m(0, 1) == 3.0);
	.loc 7 33 5
	leaq	-48(%rbp), %rax	 #, tmp144
	movl	$1, %r8d	 #,
	movl	$0, %edx	 #,
	movq	%rax, %rcx	 # tmp144,
	call	_ZN3cva4math6MatrixclEyy	 #
 # E:\Projects\Simulation_Projects\cva_cpp\tests\test_math.cpp:33:     assert(m(0, 1) == 3.0);
	.loc 7 33 5 is_stmt 0 discriminator 1
	movsd	(%rax), %xmm0	 # *_12, _13
 # E:\Projects\Simulation_Projects\cva_cpp\tests\test_math.cpp:33:     assert(m(0, 1) == 3.0);
	.loc 7 33 4 is_stmt 1 discriminator 1
	ucomisd	.LC6(%rip), %xmm0	 #, _13
	jp	.L37	 #,
	ucomisd	.LC6(%rip), %xmm0	 #, _13
	je	.L28	 #,
.L37:
 # E:\Projects\Simulation_Projects\cva_cpp\tests\test_math.cpp:33:     assert(m(0, 1) == 3.0);
	.loc 7 33 18 discriminator 3
	leaq	.LC8(%rip), %rdx	 #, tmp145
	leaq	.LC12(%rip), %rax	 #, tmp146
	movl	$33, %r8d	 #,
	movq	%rax, %rcx	 # tmp146,
	call	_assert	 #
.L28:
 # E:\Projects\Simulation_Projects\cva_cpp\tests\test_math.cpp:34:     std::cout << "Matrix tests passed." << std::endl;
	.loc 7 34 18
	leaq	.LC13(%rip), %rdx	 #, tmp147
	movq	.refptr._ZSt4cout(%rip), %rax	 #, tmp148
	movq	%rax, %rcx	 # tmp148,
	call	_ZStlsISt11char_traitsIcEERSt13basic_ostreamIcT_ES5_PKc	 #
	movq	%rax, %rcx	 #, _14
 # E:\Projects\Simulation_Projects\cva_cpp\tests\test_math.cpp:34:     std::cout << "Matrix tests passed." << std::endl;
	.loc 7 34 49 discriminator 2
	movq	.refptr._ZSt4endlIcSt11char_traitsIcEERSt13basic_ostreamIT_T0_ES6_(%rip), %rax	 #, tmp149
	movq	%rax, %rdx	 # tmp149,
	call	_ZNSolsEPFRSoS_E	 #
.LEHE4:
 # E:\Projects\Simulation_Projects\cva_cpp\tests\test_math.cpp:35: }
	.loc 7 35 1
	leaq	-96(%rbp), %rax	 #, tmp150
	movq	%rax, %rcx	 # tmp150,
	call	_ZN3cva4math6MatrixD1Ev	 #
 # E:\Projects\Simulation_Projects\cva_cpp\tests\test_math.cpp:35: }
	.loc 7 35 1 is_stmt 0 discriminator 1
	leaq	-48(%rbp), %rax	 #, tmp151
	movq	%rax, %rcx	 # tmp151,
	call	_ZN3cva4math6MatrixD1Ev	 #
 # E:\Projects\Simulation_Projects\cva_cpp\tests\test_math.cpp:35: }
	.loc 7 35 1
	jmp	.L38	 #
.L33:
	movq	%rax, %rbx	 #, tmp154
	leaq	-96(%rbp), %rax	 #, tmp152
	movq	%rax, %rcx	 # tmp152,
	call	_ZN3cva4math6MatrixD1Ev	 #
	jmp	.L31	 #
.L32:
	movq	%rax, %rbx	 #, tmp153
.L31:
	leaq	-48(%rbp), %rax	 #, tmp157
	movq	%rax, %rcx	 # tmp157,
	call	_ZN3cva4math6MatrixD1Ev	 #
	movq	%rbx, %rax	 # tmp153, D.96246
	movq	%rax, %rcx	 # D.96246,
.LEHB5:
	call	_Unwind_Resume	 #
	nop	
.LEHE5:
.L38:
	addq	$136, %rsp	 #,
	popq	%rbx	 #
	.cfi_restore 3
	popq	%rbp	 #
	.cfi_restore 6
	.cfi_def_cfa 7, -120
	ret	
	.cfi_endproc
.LFE4837:
	.seh_handler	__gxx_personality_seh0, @unwind, @except
	.seh_handlerdata
.LLSDA4837:
	.byte	0xff
	.byte	0xff
	.byte	0x1
	.uleb128 .LLSDACSE4837-.LLSDACSB4837
.LLSDACSB4837:
	.uleb128 .LEHB2-.LFB4837
	.uleb128 .LEHE2-.LEHB2
	.uleb128 0
	.uleb128 0
	.uleb128 .LEHB3-.LFB4837
	.uleb128 .LEHE3-.LEHB3
	.uleb128 .L32-.LFB4837
	.uleb128 0
	.uleb128 .LEHB4-.LFB4837
	.uleb128 .LEHE4-.LEHB4
	.uleb128 .L33-.LFB4837
	.uleb128 0
	.uleb128 .LEHB5-.LFB4837
	.uleb128 .LEHE5-.LEHB5
	.uleb128 0
	.uleb128 0
.LLSDACSE4837:
	.text
	.seh_endproc
	.section .rdata,"dr"
.LC14:
	.ascii "Testing Random...\0"
.LC16:
	.ascii "Mean: \0"
.LC17:
	.ascii ", Var: \0"
.LC19:
	.ascii "std::abs(mean) < 0.5\0"
.LC20:
	.ascii "std::abs(var - 1.0) < 0.5\0"
.LC21:
	.ascii "Random tests passed.\0"
	.text
	.globl	_Z11test_randomv
	.def	_Z11test_randomv;	.scl	2;	.type	32;	.endef
	.seh_proc	_Z11test_randomv
_Z11test_randomv:
.LFB4841:
	.loc 7 42 20 is_stmt 1
	.cfi_startproc
	pushq	%rbp	 #
	.seh_pushreg	%rbp
	.cfi_def_cfa_offset 16
	.cfi_offset 6, -16
	pushq	%rbx	 #
	.seh_pushreg	%rbx
	.cfi_def_cfa_offset 24
	.cfi_offset 3, -24
	subq	$2680, %rsp	 #,
	.seh_stackalloc	2680
	.cfi_def_cfa_offset 2704
	leaq	128(%rsp), %rbp	 #,
	.seh_setframe	%rbp, 128
	.cfi_def_cfa 6, 2576
	.seh_endprologue
 # E:\Projects\Simulation_Projects\cva_cpp\tests\test_math.cpp:43:     std::cout << "Testing Random..." << std::endl;
	.loc 7 43 18
	leaq	.LC14(%rip), %rdx	 #, tmp114
	movq	.refptr._ZSt4cout(%rip), %rax	 #, tmp115
	movq	%rax, %rcx	 # tmp115,
.LEHB6:
	call	_ZStlsISt11char_traitsIcEERSt13basic_ostreamIcT_ES5_PKc	 #
	movq	%rax, %rcx	 #, _1
 # E:\Projects\Simulation_Projects\cva_cpp\tests\test_math.cpp:43:     std::cout << "Testing Random..." << std::endl;
	.loc 7 43 46 discriminator 2
	movq	.refptr._ZSt4endlIcSt11char_traitsIcEERSt13basic_ostreamIT_T0_ES6_(%rip), %rax	 #, tmp116
	movq	%rax, %rdx	 # tmp116,
	call	_ZNSolsEPFRSoS_E	 #
 # E:\Projects\Simulation_Projects\cva_cpp\tests\test_math.cpp:44:     cva::math::RandomGenerator rng(123);
	.loc 7 44 39
	leaq	-48(%rbp), %rax	 #, tmp117
	movl	$123, %edx	 #,
	movq	%rax, %rcx	 # tmp117,
	call	_ZN3cva4math15RandomGeneratorC1Em	 #
 # E:\Projects\Simulation_Projects\cva_cpp\tests\test_math.cpp:45:     cva::math::Matrix m(100, 1);
	.loc 7 45 31
	leaq	-96(%rbp), %rax	 #, tmp118
	pxor	%xmm3, %xmm3	 #
	movl	$1, %r8d	 #,
	movl	$100, %edx	 #,
	movq	%rax, %rcx	 # tmp118,
	call	_ZN3cva4math6MatrixC1Eyyd	 #
.LEHE6:
 # E:\Projects\Simulation_Projects\cva_cpp\tests\test_math.cpp:46:     rng.generate_standard_normal(m);
	.loc 7 46 33
	leaq	-96(%rbp), %rdx	 #, tmp119
	leaq	-48(%rbp), %rax	 #, tmp120
	movq	%rax, %rcx	 # tmp120,
.LEHB7:
	call	_ZN3cva4math15RandomGenerator24generate_standard_normalERNS0_6MatrixE	 #
 # E:\Projects\Simulation_Projects\cva_cpp\tests\test_math.cpp:48:     double sum = 0.0;
	.loc 7 48 12
	pxor	%xmm0, %xmm0	 # tmp121
	movsd	%xmm0, 2536(%rbp)	 # tmp121, sum
 # E:\Projects\Simulation_Projects\cva_cpp\tests\test_math.cpp:49:     double sum_sq = 0.0;
	.loc 7 49 12
	pxor	%xmm0, %xmm0	 # tmp122
	movsd	%xmm0, 2528(%rbp)	 # tmp122, sum_sq
.LBB102:
 # E:\Projects\Simulation_Projects\cva_cpp\tests\test_math.cpp:50:     for (size_t i = 0; i < 100; ++i) {
	.loc 7 50 17
	movq	$0, 2520(%rbp)	 #, i
 # E:\Projects\Simulation_Projects\cva_cpp\tests\test_math.cpp:50:     for (size_t i = 0; i < 100; ++i) {
	.loc 7 50 5
	jmp	.L40	 #
.L41:
.LBB103:
 # E:\Projects\Simulation_Projects\cva_cpp\tests\test_math.cpp:51:         double val = m(i, 0);
	.loc 7 51 23
	movq	2520(%rbp), %rdx	 # i, tmp123
	leaq	-96(%rbp), %rax	 #, tmp124
	movl	$0, %r8d	 #,
	movq	%rax, %rcx	 # tmp124,
	call	_ZN3cva4math6MatrixclEyy	 #
 # E:\Projects\Simulation_Projects\cva_cpp\tests\test_math.cpp:51:         double val = m(i, 0);
	.loc 7 51 28 discriminator 1
	movsd	(%rax), %xmm0	 # *_2, tmp125
	movsd	%xmm0, 2496(%rbp)	 # tmp125, val
 # E:\Projects\Simulation_Projects\cva_cpp\tests\test_math.cpp:52:         sum += val;
	.loc 7 52 13
	movsd	2536(%rbp), %xmm0	 # sum, tmp127
	addsd	2496(%rbp), %xmm0	 # val, sum_55
	movsd	%xmm0, 2536(%rbp)	 # sum_55, sum
 # E:\Projects\Simulation_Projects\cva_cpp\tests\test_math.cpp:53:         sum_sq += val * val;
	.loc 7 53 23
	movsd	2496(%rbp), %xmm0	 # val, tmp128
	mulsd	%xmm0, %xmm0	 # tmp128, _3
 # E:\Projects\Simulation_Projects\cva_cpp\tests\test_math.cpp:53:         sum_sq += val * val;
	.loc 7 53 16
	movsd	2528(%rbp), %xmm1	 # sum_sq, tmp130
	addsd	%xmm1, %xmm0	 # tmp130, sum_sq_56
	movsd	%xmm0, 2528(%rbp)	 # sum_sq_56, sum_sq
.LBE103:
 # E:\Projects\Simulation_Projects\cva_cpp\tests\test_math.cpp:50:     for (size_t i = 0; i < 100; ++i) {
	.loc 7 50 5 discriminator 3
	addq	$1, 2520(%rbp)	 #, i
.L40:
 # E:\Projects\Simulation_Projects\cva_cpp\tests\test_math.cpp:50:     for (size_t i = 0; i < 100; ++i) {
	.loc 7 50 26 discriminator 1
	cmpq	$99, 2520(%rbp)	 #, i
	jbe	.L41	 #,
.LBE102:
 # E:\Projects\Simulation_Projects\cva_cpp\tests\test_math.cpp:55:     double mean = sum / 100.0;
	.loc 7 55 12
	movsd	2536(%rbp), %xmm0	 # sum, tmp132
	movsd	.LC15(%rip), %xmm1	 #, tmp133
	divsd	%xmm1, %xmm0	 # tmp133, mean_30
	movsd	%xmm0, 2512(%rbp)	 # mean_30, mean
 # E:\Projects\Simulation_Projects\cva_cpp\tests\test_math.cpp:56:     double var = (sum_sq / 100.0) - (mean * mean);
	.loc 7 56 26
	movsd	2528(%rbp), %xmm0	 # sum_sq, tmp134
	movsd	.LC15(%rip), %xmm2	 #, tmp135
	movapd	%xmm0, %xmm1	 # tmp134, tmp134
	divsd	%xmm2, %xmm1	 # tmp135, tmp134
 # E:\Projects\Simulation_Projects\cva_cpp\tests\test_math.cpp:56:     double var = (sum_sq / 100.0) - (mean * mean);
	.loc 7 56 43
	movsd	2512(%rbp), %xmm0	 # mean, tmp136
	movapd	%xmm0, %xmm2	 # tmp136, tmp136
	mulsd	%xmm0, %xmm2	 # tmp136, tmp136
 # E:\Projects\Simulation_Projects\cva_cpp\tests\test_math.cpp:56:     double var = (sum_sq / 100.0) - (mean * mean);
	.loc 7 56 12
	subsd	%xmm2, %xmm1	 # _5, _4
	movapd	%xmm1, %xmm0	 # _4, var_31
	movsd	%xmm0, 2504(%rbp)	 # var_31, var
 # E:\Projects\Simulation_Projects\cva_cpp\tests\test_math.cpp:58:     std::cout << "Mean: " << mean << ", Var: " << var << std::endl;
	.loc 7 58 18
	leaq	.LC16(%rip), %rdx	 #, tmp138
	movq	.refptr._ZSt4cout(%rip), %rax	 #, tmp139
	movq	%rax, %rcx	 # tmp139,
	call	_ZStlsISt11char_traitsIcEERSt13basic_ostreamIcT_ES5_PKc	 #
 # E:\Projects\Simulation_Projects\cva_cpp\tests\test_math.cpp:58:     std::cout << "Mean: " << mean << ", Var: " << var << std::endl;
	.loc 7 58 30 discriminator 2
	movsd	2512(%rbp), %xmm0	 # mean, tmp140
	movapd	%xmm0, %xmm1	 # tmp140,
	movq	%rax, %rcx	 # _6,
	call	_ZNSolsEd	 #
	movq	%rax, %rcx	 #, _7
 # E:\Projects\Simulation_Projects\cva_cpp\tests\test_math.cpp:58:     std::cout << "Mean: " << mean << ", Var: " << var << std::endl;
	.loc 7 58 38 discriminator 4
	leaq	.LC17(%rip), %rax	 #, tmp141
	movq	%rax, %rdx	 # tmp141,
	call	_ZStlsISt11char_traitsIcEERSt13basic_ostreamIcT_ES5_PKc	 #
 # E:\Projects\Simulation_Projects\cva_cpp\tests\test_math.cpp:58:     std::cout << "Mean: " << mean << ", Var: " << var << std::endl;
	.loc 7 58 51 discriminator 6
	movsd	2504(%rbp), %xmm0	 # var, tmp142
	movapd	%xmm0, %xmm1	 # tmp142,
	movq	%rax, %rcx	 # _8,
	call	_ZNSolsEd	 #
	movq	%rax, %rcx	 #, _9
 # E:\Projects\Simulation_Projects\cva_cpp\tests\test_math.cpp:58:     std::cout << "Mean: " << mean << ", Var: " << var << std::endl;
	.loc 7 58 63 discriminator 8
	movq	.refptr._ZSt4endlIcSt11char_traitsIcEERSt13basic_ostreamIT_T0_ES6_(%rip), %rax	 #, tmp143
	movq	%rax, %rdx	 # tmp143,
	call	_ZNSolsEPFRSoS_E	 #
 # E:\Projects\Simulation_Projects\cva_cpp\tests\test_math.cpp:60:     assert(std::abs(mean) < 0.5); 
	.loc 7 60 12
	movq	2512(%rbp), %rax	 # mean, tmp144
	movq	%rax, %xmm0	 # tmp144,
	call	_ZSt3absd	 #
 # E:\Projects\Simulation_Projects\cva_cpp\tests\test_math.cpp:60:     assert(std::abs(mean) < 0.5); 
	.loc 7 60 4 discriminator 1
	movsd	.LC18(%rip), %xmm1	 #, tmp145
	comisd	%xmm0, %xmm1	 # _10, tmp145
	ja	.L42	 #,
 # E:\Projects\Simulation_Projects\cva_cpp\tests\test_math.cpp:60:     assert(std::abs(mean) < 0.5); 
	.loc 7 60 18 discriminator 3
	leaq	.LC8(%rip), %rdx	 #, tmp146
	leaq	.LC19(%rip), %rax	 #, tmp147
	movl	$60, %r8d	 #,
	movq	%rax, %rcx	 # tmp147,
	call	_assert	 #
.L42:
 # E:\Projects\Simulation_Projects\cva_cpp\tests\test_math.cpp:61:     assert(std::abs(var - 1.0) < 0.5);
	.loc 7 61 12
	movsd	2504(%rbp), %xmm0	 # var, tmp148
	movsd	.LC4(%rip), %xmm1	 #, tmp149
	subsd	%xmm1, %xmm0	 # tmp149, tmp148
	movq	%xmm0, %rax	 # tmp148, _11
	movq	%rax, %xmm0	 # _11,
	call	_ZSt3absd	 #
 # E:\Projects\Simulation_Projects\cva_cpp\tests\test_math.cpp:61:     assert(std::abs(var - 1.0) < 0.5);
	.loc 7 61 4 discriminator 1
	movsd	.LC18(%rip), %xmm1	 #, tmp150
	comisd	%xmm0, %xmm1	 # _12, tmp150
	ja	.L43	 #,
 # E:\Projects\Simulation_Projects\cva_cpp\tests\test_math.cpp:61:     assert(std::abs(var - 1.0) < 0.5);
	.loc 7 61 18 discriminator 3
	leaq	.LC8(%rip), %rdx	 #, tmp151
	leaq	.LC20(%rip), %rax	 #, tmp152
	movl	$61, %r8d	 #,
	movq	%rax, %rcx	 # tmp152,
	call	_assert	 #
.L43:
 # E:\Projects\Simulation_Projects\cva_cpp\tests\test_math.cpp:62:     std::cout << "Random tests passed." << std::endl;
	.loc 7 62 18
	leaq	.LC21(%rip), %rdx	 #, tmp153
	movq	.refptr._ZSt4cout(%rip), %rax	 #, tmp154
	movq	%rax, %rcx	 # tmp154,
	call	_ZStlsISt11char_traitsIcEERSt13basic_ostreamIcT_ES5_PKc	 #
	movq	%rax, %rcx	 #, _13
 # E:\Projects\Simulation_Projects\cva_cpp\tests\test_math.cpp:62:     std::cout << "Random tests passed." << std::endl;
	.loc 7 62 49 discriminator 2
	movq	.refptr._ZSt4endlIcSt11char_traitsIcEERSt13basic_ostreamIT_T0_ES6_(%rip), %rax	 #, tmp155
	movq	%rax, %rdx	 # tmp155,
	call	_ZNSolsEPFRSoS_E	 #
.LEHE7:
 # E:\Projects\Simulation_Projects\cva_cpp\tests\test_math.cpp:63: }
	.loc 7 63 1
	leaq	-96(%rbp), %rax	 #, tmp156
	movq	%rax, %rcx	 # tmp156,
	call	_ZN3cva4math6MatrixD1Ev	 #
	jmp	.L46	 #
.L45:
	movq	%rax, %rbx	 #, tmp158
	leaq	-96(%rbp), %rax	 #, tmp157
	movq	%rax, %rcx	 # tmp157,
	call	_ZN3cva4math6MatrixD1Ev	 #
	movq	%rbx, %rax	 # tmp158, D.96256
	movq	%rax, %rcx	 # D.96256,
.LEHB8:
	call	_Unwind_Resume	 #
	nop	
.LEHE8:
.L46:
	addq	$2680, %rsp	 #,
	popq	%rbx	 #
	.cfi_restore 3
	popq	%rbp	 #
	.cfi_restore 6
	.cfi_def_cfa 7, -2664
	ret	
	.cfi_endproc
.LFE4841:
	.seh_handler	__gxx_personality_seh0, @unwind, @except
	.seh_handlerdata
.LLSDA4841:
	.byte	0xff
	.byte	0xff
	.byte	0x1
	.uleb128 .LLSDACSE4841-.LLSDACSB4841
.LLSDACSB4841:
	.uleb128 .LEHB6-.LFB4841
	.uleb128 .LEHE6-.LEHB6
	.uleb128 0
	.uleb128 0
	.uleb128 .LEHB7-.LFB4841
	.uleb128 .LEHE7-.LEHB7
	.uleb128 .L45-.LFB4841
	.uleb128 0
	.uleb128 .LEHB8-.LFB4841
	.uleb128 .LEHE8-.LEHB8
	.uleb128 0
	.uleb128 0
.LLSDACSE4841:
	.text
	.seh_endproc
	.globl	main
	.def	main;	.scl	2;	.type	32;	.endef
	.seh_proc	main
main:
.LFB4842:
	.loc 7 65 12
	.cfi_startproc
	pushq	%rbp	 #
	.seh_pushreg	%rbp
	.cfi_def_cfa_offset 16
	.cfi_offset 6, -16
	movq	%rsp, %rbp	 #,
	.seh_setframe	%rbp, 0
	.cfi_def_cfa_register 6
	subq	$32, %rsp	 #,
	.seh_stackalloc	32
	.seh_endprologue
 # E:\Projects\Simulation_Projects\cva_cpp\tests\test_math.cpp:65: int main() {
	.loc 7 65 12
	call	__main	 #
 # E:\Projects\Simulation_Projects\cva_cpp\tests\test_math.cpp:66:     test_matrix();
	.loc 7 66 16
	call	_Z11test_matrixv	 #
 # E:\Projects\Simulation_Projects\cva_cpp\tests\test_math.cpp:67:     test_random();
	.loc 7 67 16
	call	_Z11test_randomv	 #
 # E:\Projects\Simulation_Projects\cva_cpp\tests\test_math.cpp:68:     return 0;
	.loc 7 68 12
	movl	$0, %eax	 #, _4
 # E:\Projects\Simulation_Projects\cva_cpp\tests\test_math.cpp:69: }
	.loc 7 69 1
	addq	$32, %rsp	 #,
	popq	%rbp	 #
	.cfi_restore 6
	.cfi_def_cfa 7, 8
	ret	
	.cfi_endproc
.LFE4842:
	.seh_endproc
	.section	.text$_ZNSt6vectorIdSaIdEEC1EyRKdRKS0_,"x"
	.linkonce discard
	.align 2
	.globl	_ZNSt6vectorIdSaIdEEC1EyRKdRKS0_
	.def	_ZNSt6vectorIdSaIdEEC1EyRKdRKS0_;	.scl	2;	.type	32;	.endef
	.seh_proc	_ZNSt6vectorIdSaIdEEC1EyRKdRKS0_
_ZNSt6vectorIdSaIdEEC1EyRKdRKS0_:
.LFB5152:
	.file 8 "D:/msys64/ucrt64/include/c++/15.2.0/bits/stl_vector.h"
	.loc 8 599 7
	.cfi_startproc
	pushq	%rbp	 #
	.seh_pushreg	%rbp
	.cfi_def_cfa_offset 16
	.cfi_offset 6, -16
	pushq	%rbx	 #
	.seh_pushreg	%rbx
	.cfi_def_cfa_offset 24
	.cfi_offset 3, -24
	subq	$40, %rsp	 #,
	.seh_stackalloc	40
	.cfi_def_cfa_offset 64
	leaq	32(%rsp), %rbp	 #,
	.seh_setframe	%rbp, 32
	.cfi_def_cfa 6, 32
	.seh_endprologue
	movq	%rcx, 32(%rbp)	 # this, this
	movq	%rdx, 40(%rbp)	 # __n, __n
	movq	%r8, 48(%rbp)	 # __value, __value
	movq	%r9, 56(%rbp)	 # __a, __a
.LBB104:
 # D:/msys64/ucrt64/include/c++/15.2.0/bits/stl_vector.h:601:       : _Base(_S_check_init_len(__n, __a), __a)
	.loc 8 601 47
	movq	32(%rbp), %rbx	 # this, _1
	movq	56(%rbp), %rdx	 # __a, tmp102
	movq	40(%rbp), %rax	 # __n, tmp103
	movq	%rax, %rcx	 # tmp103,
.LEHB9:
	call	_ZNSt6vectorIdSaIdEE17_S_check_init_lenEyRKS0_	 #
 # D:/msys64/ucrt64/include/c++/15.2.0/bits/stl_vector.h:601:       : _Base(_S_check_init_len(__n, __a), __a)
	.loc 8 601 47 is_stmt 0 discriminator 1
	movq	56(%rbp), %rdx	 # __a, tmp104
	movq	%rdx, %r8	 # tmp104,
	movq	%rax, %rdx	 # _2,
	movq	%rbx, %rcx	 # _1,
	call	_ZNSt12_Vector_baseIdSaIdEEC2EyRKS0_	 #
.LEHE9:
 # D:/msys64/ucrt64/include/c++/15.2.0/bits/stl_vector.h:602:       { _M_fill_initialize(__n, __value); }
	.loc 8 602 27 is_stmt 1
	movq	48(%rbp), %rcx	 # __value, tmp105
	movq	40(%rbp), %rdx	 # __n, tmp106
	movq	32(%rbp), %rax	 # this, tmp107
	movq	%rcx, %r8	 # tmp105,
	movq	%rax, %rcx	 # tmp107,
.LEHB10:
	call	_ZNSt6vectorIdSaIdEE18_M_fill_initializeEyRKd	 #
.LEHE10:
.LBE104:
 # D:/msys64/ucrt64/include/c++/15.2.0/bits/stl_vector.h:602:       { _M_fill_initialize(__n, __value); }
	.loc 8 602 43
	jmp	.L52	 #
.L51:
.LBB105:
 # D:/msys64/ucrt64/include/c++/15.2.0/bits/stl_vector.h:602:       { _M_fill_initialize(__n, __value); }
	.loc 8 602 43 is_stmt 0 discriminator 2
	movq	%rax, %rbx	 #, tmp108
	movq	32(%rbp), %rax	 # this, _3
	movq	%rax, %rcx	 # _3,
	call	_ZNSt12_Vector_baseIdSaIdEED2Ev	 #
	movq	%rbx, %rax	 # tmp108, D.96264
	movq	%rax, %rcx	 # D.96264,
.LEHB11:
	call	_Unwind_Resume	 #
	nop	
.LEHE11:
.L52:
.LBE105:
 # D:/msys64/ucrt64/include/c++/15.2.0/bits/stl_vector.h:602:       { _M_fill_initialize(__n, __value); }
	.loc 8 602 43
	addq	$40, %rsp	 #,
	popq	%rbx	 #
	.cfi_restore 3
	popq	%rbp	 #
	.cfi_restore 6
	.cfi_def_cfa 7, -24
	ret	
	.cfi_endproc
.LFE5152:
	.seh_handler	__gxx_personality_seh0, @unwind, @except
	.seh_handlerdata
.LLSDA5152:
	.byte	0xff
	.byte	0xff
	.byte	0x1
	.uleb128 .LLSDACSE5152-.LLSDACSB5152
.LLSDACSB5152:
	.uleb128 .LEHB9-.LFB5152
	.uleb128 .LEHE9-.LEHB9
	.uleb128 0
	.uleb128 0
	.uleb128 .LEHB10-.LFB5152
	.uleb128 .LEHE10-.LEHB10
	.uleb128 .L51-.LFB5152
	.uleb128 0
	.uleb128 .LEHB11-.LFB5152
	.uleb128 .LEHE11-.LEHB11
	.uleb128 0
	.uleb128 0
.LLSDACSE5152:
	.section	.text$_ZNSt6vectorIdSaIdEEC1EyRKdRKS0_,"x"
	.linkonce discard
	.seh_endproc
	.section	.text$_ZNSt6vectorIdSaIdEED1Ev,"x"
	.linkonce discard
	.align 2
	.globl	_ZNSt6vectorIdSaIdEED1Ev
	.def	_ZNSt6vectorIdSaIdEED1Ev;	.scl	2;	.type	32;	.endef
	.seh_proc	_ZNSt6vectorIdSaIdEED1Ev
_ZNSt6vectorIdSaIdEED1Ev:
.LFB5155:
	.loc 8 800 7 is_stmt 1
	.cfi_startproc
	pushq	%rbp	 #
	.seh_pushreg	%rbp
	.cfi_def_cfa_offset 16
	.cfi_offset 6, -16
	movq	%rsp, %rbp	 #,
	.seh_setframe	%rbp, 0
	.cfi_def_cfa_register 6
	subq	$64, %rsp	 #,
	.seh_stackalloc	64
	.seh_endprologue
	movq	%rcx, 16(%rbp)	 # this, this
.LBB106:
 # D:/msys64/ucrt64/include/c++/15.2.0/bits/stl_vector.h:803: 		      _M_get_Tp_allocator());
	.loc 8 803 28
	movq	16(%rbp), %rax	 # this, _1
	movq	%rax, %rcx	 # _1,
	call	_ZNSt12_Vector_baseIdSaIdEE19_M_get_Tp_allocatorEv	 #
 # D:/msys64/ucrt64/include/c++/15.2.0/bits/stl_vector.h:802: 	std::_Destroy(this->_M_impl._M_start, this->_M_impl._M_finish,
	.loc 8 802 54
	movq	16(%rbp), %rdx	 # this, tmp103
	movq	8(%rdx), %rdx	 # this_6(D)->D.68084._M_impl.D.67390._M_finish, _3
 # D:/msys64/ucrt64/include/c++/15.2.0/bits/stl_vector.h:802: 	std::_Destroy(this->_M_impl._M_start, this->_M_impl._M_finish,
	.loc 8 802 30
	movq	16(%rbp), %rcx	 # this, tmp104
	movq	(%rcx), %rcx	 # this_6(D)->D.68084._M_impl.D.67390._M_start, _4
	movq	%rcx, -8(%rbp)	 # _4, __first
	movq	%rdx, -16(%rbp)	 # _3, __last
	movq	%rax, -24(%rbp)	 # _2, D.96179
.LBB107:
.LBB108:
 # D:/msys64/ucrt64/include/c++/15.2.0/bits/alloc_traits.h:1045:       std::_Destroy(__first, __last);
	.file 9 "D:/msys64/ucrt64/include/c++/15.2.0/bits/alloc_traits.h"
	.loc 9 1045 20
	movq	-16(%rbp), %rdx	 # __last, tmp105
	movq	-8(%rbp), %rax	 # __first, tmp106
	movq	%rax, %rcx	 # tmp106,
	call	_ZSt8_DestroyIPdEvT_S1_	 #
 # D:/msys64/ucrt64/include/c++/15.2.0/bits/alloc_traits.h:1046:     }
	.loc 9 1046 5
	nop	
.LBE108:
.LBE107:
 # D:/msys64/ucrt64/include/c++/15.2.0/bits/stl_vector.h:805:       }
	.loc 8 805 7
	movq	16(%rbp), %rax	 # this, _5
	movq	%rax, %rcx	 # _5,
	call	_ZNSt12_Vector_baseIdSaIdEED2Ev	 #
.LBE106:
	nop	
	addq	$64, %rsp	 #,
	popq	%rbp	 #
	.cfi_restore 6
	.cfi_def_cfa 7, 8
	ret	
	.cfi_endproc
.LFE5155:
	.seh_handler	__gxx_personality_seh0, @unwind, @except
	.seh_handlerdata
.LLSDA5155:
	.byte	0xff
	.byte	0xff
	.byte	0x1
	.uleb128 .LLSDACSE5155-.LLSDACSB5155
.LLSDACSB5155:
.LLSDACSE5155:
	.section	.text$_ZNSt6vectorIdSaIdEED1Ev,"x"
	.linkonce discard
	.seh_endproc
	.section .rdata,"dr"
.LC22:
	.ascii "__n < this->size()\0"
	.align 8
.LC23:
	.ascii "constexpr std::vector<_Tp, _Alloc>::reference std::vector<_Tp, _Alloc>::operator[](size_type) [with _Tp = double; _Alloc = std::allocator<double>; reference = double&; size_type = long long unsigned int]\0"
	.align 8
.LC24:
	.ascii "D:/msys64/ucrt64/include/c++/15.2.0/bits/stl_vector.h\0"
	.section	.text$_ZNSt6vectorIdSaIdEEixEy,"x"
	.linkonce discard
	.align 2
	.globl	_ZNSt6vectorIdSaIdEEixEy
	.def	_ZNSt6vectorIdSaIdEEixEy;	.scl	2;	.type	32;	.endef
	.seh_proc	_ZNSt6vectorIdSaIdEEixEy
_ZNSt6vectorIdSaIdEEixEy:
.LFB5156:
	.loc 8 1261 7
	.cfi_startproc
	pushq	%rbp	 #
	.seh_pushreg	%rbp
	.cfi_def_cfa_offset 16
	.cfi_offset 6, -16
	movq	%rsp, %rbp	 #,
	.seh_setframe	%rbp, 0
	.cfi_def_cfa_register 6
	subq	$32, %rsp	 #,
	.seh_stackalloc	32
	.seh_endprologue
	movq	%rcx, 16(%rbp)	 # this, this
	movq	%rdx, 24(%rbp)	 # __n, __n
 # D:/msys64/ucrt64/include/c++/15.2.0/bits/stl_vector.h:1263: 	__glibcxx_requires_subscript(__n);
	.loc 8 1263 50
	movq	16(%rbp), %rax	 # this, tmp107
	movq	%rax, %rcx	 # tmp107,
	call	_ZNKSt6vectorIdSaIdEE4sizeEv	 #
 # D:/msys64/ucrt64/include/c++/15.2.0/bits/stl_vector.h:1263: 	__glibcxx_requires_subscript(__n);
	.loc 8 1263 29 discriminator 1
	cmpq	%rax, 24(%rbp)	 # _1, __n
	setnb	%al	 #, _2
 # D:/msys64/ucrt64/include/c++/15.2.0/bits/stl_vector.h:1263: 	__glibcxx_requires_subscript(__n);
	.loc 8 1263 27 discriminator 1
	movzbl	%al, %eax	 # _2, _3
 # D:/msys64/ucrt64/include/c++/15.2.0/bits/stl_vector.h:1263: 	__glibcxx_requires_subscript(__n);
	.loc 8 1263 27 is_stmt 0 discriminator 2
	testl	%eax, %eax	 # _4
	setne	%al	 #, retval.21_11
 # D:/msys64/ucrt64/include/c++/15.2.0/bits/stl_vector.h:1263: 	__glibcxx_requires_subscript(__n);
	.loc 8 1263 7 is_stmt 1 discriminator 2
	testb	%al, %al	 # retval.21_11
	je	.L55	 #,
 # D:/msys64/ucrt64/include/c++/15.2.0/bits/stl_vector.h:1263: 	__glibcxx_requires_subscript(__n);
	.loc 8 1263 89 discriminator 3
	leaq	.LC22(%rip), %rcx	 #, tmp108
	leaq	.LC23(%rip), %rdx	 #, tmp109
	leaq	.LC24(%rip), %rax	 #, tmp110
	movq	%rcx, %r9	 # tmp108,
	movq	%rdx, %r8	 # tmp109,
	movl	$1263, %edx	 #,
	movq	%rax, %rcx	 # tmp110,
	call	_ZSt21__glibcxx_assert_failPKciS0_S0_	 #
.L55:
 # D:/msys64/ucrt64/include/c++/15.2.0/bits/stl_vector.h:1264: 	return *(this->_M_impl._M_start + __n);
	.loc 8 1264 25
	movq	16(%rbp), %rax	 # this, tmp111
	movq	(%rax), %rax	 # this_8(D)->D.68084._M_impl.D.67390._M_start, _5
 # D:/msys64/ucrt64/include/c++/15.2.0/bits/stl_vector.h:1264: 	return *(this->_M_impl._M_start + __n);
	.loc 8 1264 34
	movq	24(%rbp), %rdx	 # __n, tmp112
	salq	$3, %rdx	 #, _6
 # D:/msys64/ucrt64/include/c++/15.2.0/bits/stl_vector.h:1264: 	return *(this->_M_impl._M_start + __n);
	.loc 8 1264 39
	addq	%rdx, %rax	 # _6, _12
 # D:/msys64/ucrt64/include/c++/15.2.0/bits/stl_vector.h:1265:       }
	.loc 8 1265 7
	addq	$32, %rsp	 #,
	popq	%rbp	 #
	.cfi_restore 6
	.cfi_def_cfa 7, 8
	ret	
	.cfi_endproc
.LFE5156:
	.seh_endproc
	.section .rdata,"dr"
	.align 8
.LC25:
	.ascii "constexpr std::vector<_Tp, _Alloc>::const_reference std::vector<_Tp, _Alloc>::operator[](size_type) const [with _Tp = double; _Alloc = std::allocator<double>; const_reference = const double&; size_type = long long unsigned int]\0"
	.section	.text$_ZNKSt6vectorIdSaIdEEixEy,"x"
	.linkonce discard
	.align 2
	.globl	_ZNKSt6vectorIdSaIdEEixEy
	.def	_ZNKSt6vectorIdSaIdEEixEy;	.scl	2;	.type	32;	.endef
	.seh_proc	_ZNKSt6vectorIdSaIdEEixEy
_ZNKSt6vectorIdSaIdEEixEy:
.LFB5157:
	.loc 8 1280 7
	.cfi_startproc
	pushq	%rbp	 #
	.seh_pushreg	%rbp
	.cfi_def_cfa_offset 16
	.cfi_offset 6, -16
	movq	%rsp, %rbp	 #,
	.seh_setframe	%rbp, 0
	.cfi_def_cfa_register 6
	subq	$32, %rsp	 #,
	.seh_stackalloc	32
	.seh_endprologue
	movq	%rcx, 16(%rbp)	 # this, this
	movq	%rdx, 24(%rbp)	 # __n, __n
 # D:/msys64/ucrt64/include/c++/15.2.0/bits/stl_vector.h:1282: 	__glibcxx_requires_subscript(__n);
	.loc 8 1282 50
	movq	16(%rbp), %rax	 # this, tmp107
	movq	%rax, %rcx	 # tmp107,
	call	_ZNKSt6vectorIdSaIdEE4sizeEv	 #
 # D:/msys64/ucrt64/include/c++/15.2.0/bits/stl_vector.h:1282: 	__glibcxx_requires_subscript(__n);
	.loc 8 1282 29 discriminator 1
	cmpq	%rax, 24(%rbp)	 # _1, __n
	setnb	%al	 #, _2
 # D:/msys64/ucrt64/include/c++/15.2.0/bits/stl_vector.h:1282: 	__glibcxx_requires_subscript(__n);
	.loc 8 1282 27 discriminator 1
	movzbl	%al, %eax	 # _2, _3
 # D:/msys64/ucrt64/include/c++/15.2.0/bits/stl_vector.h:1282: 	__glibcxx_requires_subscript(__n);
	.loc 8 1282 27 is_stmt 0 discriminator 2
	testl	%eax, %eax	 # _4
	setne	%al	 #, retval.20_11
 # D:/msys64/ucrt64/include/c++/15.2.0/bits/stl_vector.h:1282: 	__glibcxx_requires_subscript(__n);
	.loc 8 1282 7 is_stmt 1 discriminator 2
	testb	%al, %al	 # retval.20_11
	je	.L58	 #,
 # D:/msys64/ucrt64/include/c++/15.2.0/bits/stl_vector.h:1282: 	__glibcxx_requires_subscript(__n);
	.loc 8 1282 89 discriminator 3
	leaq	.LC22(%rip), %rcx	 #, tmp108
	leaq	.LC25(%rip), %rdx	 #, tmp109
	leaq	.LC24(%rip), %rax	 #, tmp110
	movq	%rcx, %r9	 # tmp108,
	movq	%rdx, %r8	 # tmp109,
	movl	$1282, %edx	 #,
	movq	%rax, %rcx	 # tmp110,
	call	_ZSt21__glibcxx_assert_failPKciS0_S0_	 #
.L58:
 # D:/msys64/ucrt64/include/c++/15.2.0/bits/stl_vector.h:1283: 	return *(this->_M_impl._M_start + __n);
	.loc 8 1283 25
	movq	16(%rbp), %rax	 # this, tmp111
	movq	(%rax), %rax	 # this_8(D)->D.68084._M_impl.D.67390._M_start, _5
 # D:/msys64/ucrt64/include/c++/15.2.0/bits/stl_vector.h:1283: 	return *(this->_M_impl._M_start + __n);
	.loc 8 1283 34
	movq	24(%rbp), %rdx	 # __n, tmp112
	salq	$3, %rdx	 #, _6
 # D:/msys64/ucrt64/include/c++/15.2.0/bits/stl_vector.h:1283: 	return *(this->_M_impl._M_start + __n);
	.loc 8 1283 39
	addq	%rdx, %rax	 # _6, _12
 # D:/msys64/ucrt64/include/c++/15.2.0/bits/stl_vector.h:1284:       }
	.loc 8 1284 7
	addq	$32, %rsp	 #,
	popq	%rbp	 #
	.cfi_restore 6
	.cfi_def_cfa 7, 8
	ret	
	.cfi_endproc
.LFE5157:
	.seh_endproc
	.section	.text$_ZNKSt6vectorIdSaIdEE4sizeEv,"x"
	.linkonce discard
	.align 2
	.globl	_ZNKSt6vectorIdSaIdEE4sizeEv
	.def	_ZNKSt6vectorIdSaIdEE4sizeEv;	.scl	2;	.type	32;	.endef
	.seh_proc	_ZNKSt6vectorIdSaIdEE4sizeEv
_ZNKSt6vectorIdSaIdEE4sizeEv:
.LFB5160:
	.loc 8 1117 7
	.cfi_startproc
	pushq	%rbp	 #
	.seh_pushreg	%rbp
	.cfi_def_cfa_offset 16
	.cfi_offset 6, -16
	movq	%rsp, %rbp	 #,
	.seh_setframe	%rbp, 0
	.cfi_def_cfa_register 6
	subq	$16, %rsp	 #,
	.seh_stackalloc	16
	.seh_endprologue
	movq	%rcx, 16(%rbp)	 # this, this
 # D:/msys64/ucrt64/include/c++/15.2.0/bits/stl_vector.h:1119: 	ptrdiff_t __dif = this->_M_impl._M_finish - this->_M_impl._M_start;
	.loc 8 1119 34
	movq	16(%rbp), %rax	 # this, tmp103
	movq	8(%rax), %rdx	 # this_5(D)->D.68084._M_impl.D.67390._M_finish, _1
 # D:/msys64/ucrt64/include/c++/15.2.0/bits/stl_vector.h:1119: 	ptrdiff_t __dif = this->_M_impl._M_finish - this->_M_impl._M_start;
	.loc 8 1119 60
	movq	16(%rbp), %rax	 # this, tmp104
	movq	(%rax), %rax	 # this_5(D)->D.68084._M_impl.D.67390._M_start, _2
 # D:/msys64/ucrt64/include/c++/15.2.0/bits/stl_vector.h:1119: 	ptrdiff_t __dif = this->_M_impl._M_finish - this->_M_impl._M_start;
	.loc 8 1119 44
	subq	%rax, %rdx	 # _2, _3
 # D:/msys64/ucrt64/include/c++/15.2.0/bits/stl_vector.h:1119: 	ptrdiff_t __dif = this->_M_impl._M_finish - this->_M_impl._M_start;
	.loc 8 1119 12
	movq	%rdx, %rax	 # _3, _3
	sarq	$3, %rax	 #, _3
	movq	%rax, -8(%rbp)	 # __dif_6, __dif
 # D:/msys64/ucrt64/include/c++/15.2.0/bits/stl_vector.h:1120: 	if (__dif < 0)
	.loc 8 1120 2
	cmpq	$0, -8(%rbp)	 #, __dif
 # D:/msys64/ucrt64/include/c++/15.2.0/bits/stl_vector.h:1122: 	return size_type(__dif);
	.loc 8 1122 24
	movq	-8(%rbp), %rax	 # __dif, _7
 # D:/msys64/ucrt64/include/c++/15.2.0/bits/stl_vector.h:1123:       }
	.loc 8 1123 7
	addq	$16, %rsp	 #,
	popq	%rbp	 #
	.cfi_restore 6
	.cfi_def_cfa 7, 8
	ret	
	.cfi_endproc
.LFE5160:
	.seh_endproc
	.section .rdata,"dr"
	.align 8
.LC26:
	.ascii "cannot create std::vector larger than max_size()\0"
	.section	.text$_ZNSt6vectorIdSaIdEE17_S_check_init_lenEyRKS0_,"x"
	.linkonce discard
	.globl	_ZNSt6vectorIdSaIdEE17_S_check_init_lenEyRKS0_
	.def	_ZNSt6vectorIdSaIdEE17_S_check_init_lenEyRKS0_;	.scl	2;	.type	32;	.endef
	.seh_proc	_ZNSt6vectorIdSaIdEE17_S_check_init_lenEyRKS0_
_ZNSt6vectorIdSaIdEE17_S_check_init_lenEyRKS0_:
.LFB5351:
	.loc 8 2208 7
	.cfi_startproc
	pushq	%rbp	 #
	.seh_pushreg	%rbp
	.cfi_def_cfa_offset 16
	.cfi_offset 6, -16
	movq	%rsp, %rbp	 #,
	.seh_setframe	%rbp, 0
	.cfi_def_cfa_register 6
	subq	$64, %rsp	 #,
	.seh_stackalloc	64
	.seh_endprologue
	movq	%rcx, 16(%rbp)	 # __n, __n
	movq	%rdx, 24(%rbp)	 # __a, __a
	movq	24(%rbp), %rax	 # __a, tmp102
	movq	%rax, -8(%rbp)	 # tmp102, __a
	leaq	-25(%rbp), %rax	 #, tmp103
	movq	%rax, -16(%rbp)	 # tmp103, this
	movq	-8(%rbp), %rax	 # __a, tmp104
	movq	%rax, -24(%rbp)	 # tmp104, D.96141
.LBB109:
.LBB110:
.LBB111:
.LBB112:
.LBB113:
 # D:/msys64/ucrt64/include/c++/15.2.0/bits/new_allocator.h:92:       __new_allocator(const __new_allocator&) _GLIBCXX_USE_NOEXCEPT { }
	.loc 5 92 58
	nop	
.LBE113:
.LBE112:
.LBE111:
 # D:/msys64/ucrt64/include/c++/15.2.0/bits/allocator.h:173:       : __allocator_base<_Tp>(__a) { }
	.loc 6 173 38
	nop	
.LBE110:
.LBE109:
 # D:/msys64/ucrt64/include/c++/15.2.0/bits/stl_vector.h:2210: 	if (__n > _S_max_size(_Tp_alloc_type(__a)))
	.loc 8 2210 23 discriminator 1
	leaq	-25(%rbp), %rax	 #, tmp105
	movq	%rax, %rcx	 # tmp105,
	call	_ZNSt6vectorIdSaIdEE11_S_max_sizeERKS0_	 #
 # D:/msys64/ucrt64/include/c++/15.2.0/bits/stl_vector.h:2210: 	if (__n > _S_max_size(_Tp_alloc_type(__a)))
	.loc 8 2210 10 discriminator 2
	cmpq	16(%rbp), %rax	 # __n, _1
	setb	%al	 #, retval.4_6
.LBB114:
.LBB115:
 # D:/msys64/ucrt64/include/c++/15.2.0/bits/allocator.h:189:       ~allocator() _GLIBCXX_NOTHROW { }
	.loc 6 189 31
	nop	
.LBE115:
.LBE114:
 # D:/msys64/ucrt64/include/c++/15.2.0/bits/stl_vector.h:2210: 	if (__n > _S_max_size(_Tp_alloc_type(__a)))
	.loc 8 2210 2 discriminator 3
	testb	%al, %al	 # retval.4_6
	je	.L64	 #,
 # D:/msys64/ucrt64/include/c++/15.2.0/bits/stl_vector.h:2211: 	  __throw_length_error(
	.loc 8 2211 24
	leaq	.LC26(%rip), %rax	 #, tmp106
	movq	%rax, %rcx	 # tmp106,
	call	_ZSt20__throw_length_errorPKc	 #
.L64:
 # D:/msys64/ucrt64/include/c++/15.2.0/bits/stl_vector.h:2213: 	return __n;
	.loc 8 2213 9
	movq	16(%rbp), %rax	 # __n, _8
 # D:/msys64/ucrt64/include/c++/15.2.0/bits/stl_vector.h:2214:       }
	.loc 8 2214 7
	addq	$64, %rsp	 #,
	popq	%rbp	 #
	.cfi_restore 6
	.cfi_def_cfa 7, 8
	ret	
	.cfi_endproc
.LFE5351:
	.seh_endproc
	.section	.text$_ZNSt12_Vector_baseIdSaIdEE12_Vector_implD1Ev,"x"
	.linkonce discard
	.align 2
	.globl	_ZNSt12_Vector_baseIdSaIdEE12_Vector_implD1Ev
	.def	_ZNSt12_Vector_baseIdSaIdEE12_Vector_implD1Ev;	.scl	2;	.type	32;	.endef
	.seh_proc	_ZNSt12_Vector_baseIdSaIdEE12_Vector_implD1Ev
_ZNSt12_Vector_baseIdSaIdEE12_Vector_implD1Ev:
.LFB5355:
	.loc 8 139 14
	.cfi_startproc
	pushq	%rbp	 #
	.seh_pushreg	%rbp
	.cfi_def_cfa_offset 16
	.cfi_offset 6, -16
	movq	%rsp, %rbp	 #,
	.seh_setframe	%rbp, 0
	.cfi_def_cfa_register 6
	subq	$16, %rsp	 #,
	.seh_stackalloc	16
	.seh_endprologue
	movq	%rcx, 16(%rbp)	 # this, this
	movq	16(%rbp), %rax	 # this, tmp98
	movq	%rax, -8(%rbp)	 # tmp98, this
.LBB116:
.LBB117:
.LBB118:
 # D:/msys64/ucrt64/include/c++/15.2.0/bits/allocator.h:189:       ~allocator() _GLIBCXX_NOTHROW { }
	.loc 6 189 31
	nop	
.LBE118:
.LBE117:
.LBE116:
 # D:/msys64/ucrt64/include/c++/15.2.0/bits/stl_vector.h:139:       struct _Vector_impl
	.loc 8 139 14
	nop	
	addq	$16, %rsp	 #,
	popq	%rbp	 #
	.cfi_restore 6
	.cfi_def_cfa 7, 8
	ret	
	.cfi_endproc
.LFE5355:
	.seh_endproc
	.section	.text$_ZNSt12_Vector_baseIdSaIdEEC2EyRKS0_,"x"
	.linkonce discard
	.align 2
	.globl	_ZNSt12_Vector_baseIdSaIdEEC2EyRKS0_
	.def	_ZNSt12_Vector_baseIdSaIdEEC2EyRKS0_;	.scl	2;	.type	32;	.endef
	.seh_proc	_ZNSt12_Vector_baseIdSaIdEEC2EyRKS0_
_ZNSt12_Vector_baseIdSaIdEEC2EyRKS0_:
.LFB5356:
	.loc 8 339 7
	.cfi_startproc
	pushq	%rbp	 #
	.seh_pushreg	%rbp
	.cfi_def_cfa_offset 16
	.cfi_offset 6, -16
	pushq	%rbx	 #
	.seh_pushreg	%rbx
	.cfi_def_cfa_offset 24
	.cfi_offset 3, -24
	subq	$40, %rsp	 #,
	.seh_stackalloc	40
	.cfi_def_cfa_offset 64
	leaq	32(%rsp), %rbp	 #,
	.seh_setframe	%rbp, 32
	.cfi_def_cfa 6, 32
	.seh_endprologue
	movq	%rcx, 32(%rbp)	 # this, this
	movq	%rdx, 40(%rbp)	 # __n, __n
	movq	%r8, 48(%rbp)	 # __a, __a
.LBB119:
 # D:/msys64/ucrt64/include/c++/15.2.0/bits/stl_vector.h:340:       : _M_impl(__a)
	.loc 8 340 9
	movq	32(%rbp), %rax	 # this, _1
	movq	48(%rbp), %rdx	 # __a, tmp101
	movq	%rax, %rcx	 # _1,
	call	_ZNSt12_Vector_baseIdSaIdEE12_Vector_implC1ERKS0_	 #
 # D:/msys64/ucrt64/include/c++/15.2.0/bits/stl_vector.h:341:       { _M_create_storage(__n); }
	.loc 8 341 26
	movq	40(%rbp), %rdx	 # __n, tmp102
	movq	32(%rbp), %rax	 # this, tmp103
	movq	%rax, %rcx	 # tmp103,
.LEHB12:
	call	_ZNSt12_Vector_baseIdSaIdEE17_M_create_storageEy	 #
.LEHE12:
.LBE119:
 # D:/msys64/ucrt64/include/c++/15.2.0/bits/stl_vector.h:341:       { _M_create_storage(__n); }
	.loc 8 341 33
	jmp	.L70	 #
.L69:
.LBB120:
 # D:/msys64/ucrt64/include/c++/15.2.0/bits/stl_vector.h:341:       { _M_create_storage(__n); }
	.loc 8 341 33 is_stmt 0 discriminator 2
	movq	%rax, %rbx	 #, tmp104
	movq	32(%rbp), %rax	 # this, _2
	movq	%rax, %rcx	 # _2,
	call	_ZNSt12_Vector_baseIdSaIdEE12_Vector_implD1Ev	 #
	movq	%rbx, %rax	 # tmp104, D.96270
	movq	%rax, %rcx	 # D.96270,
.LEHB13:
	call	_Unwind_Resume	 #
	nop	
.LEHE13:
.L70:
.LBE120:
 # D:/msys64/ucrt64/include/c++/15.2.0/bits/stl_vector.h:341:       { _M_create_storage(__n); }
	.loc 8 341 33
	addq	$40, %rsp	 #,
	popq	%rbx	 #
	.cfi_restore 3
	popq	%rbp	 #
	.cfi_restore 6
	.cfi_def_cfa 7, -24
	ret	
	.cfi_endproc
.LFE5356:
	.seh_handler	__gxx_personality_seh0, @unwind, @except
	.seh_handlerdata
.LLSDA5356:
	.byte	0xff
	.byte	0xff
	.byte	0x1
	.uleb128 .LLSDACSE5356-.LLSDACSB5356
.LLSDACSB5356:
	.uleb128 .LEHB12-.LFB5356
	.uleb128 .LEHE12-.LEHB12
	.uleb128 .L69-.LFB5356
	.uleb128 0
	.uleb128 .LEHB13-.LFB5356
	.uleb128 .LEHE13-.LEHB13
	.uleb128 0
	.uleb128 0
.LLSDACSE5356:
	.section	.text$_ZNSt12_Vector_baseIdSaIdEEC2EyRKS0_,"x"
	.linkonce discard
	.seh_endproc
	.section	.text$_ZNSt12_Vector_baseIdSaIdEED2Ev,"x"
	.linkonce discard
	.align 2
	.globl	_ZNSt12_Vector_baseIdSaIdEED2Ev
	.def	_ZNSt12_Vector_baseIdSaIdEED2Ev;	.scl	2;	.type	32;	.endef
	.seh_proc	_ZNSt12_Vector_baseIdSaIdEED2Ev
_ZNSt12_Vector_baseIdSaIdEED2Ev:
.LFB5359:
	.loc 8 373 7 is_stmt 1
	.cfi_startproc
	pushq	%rbp	 #
	.seh_pushreg	%rbp
	.cfi_def_cfa_offset 16
	.cfi_offset 6, -16
	movq	%rsp, %rbp	 #,
	.seh_setframe	%rbp, 0
	.cfi_def_cfa_register 6
	subq	$32, %rsp	 #,
	.seh_stackalloc	32
	.seh_endprologue
	movq	%rcx, 16(%rbp)	 # this, this
.LBB121:
 # D:/msys64/ucrt64/include/c++/15.2.0/bits/stl_vector.h:376: 		      _M_impl._M_end_of_storage - _M_impl._M_start);
	.loc 8 376 17
	movq	16(%rbp), %rax	 # this, tmp105
	movq	16(%rax), %rdx	 # this_9(D)->_M_impl.D.67390._M_end_of_storage, _1
 # D:/msys64/ucrt64/include/c++/15.2.0/bits/stl_vector.h:376: 		      _M_impl._M_end_of_storage - _M_impl._M_start);
	.loc 8 376 45
	movq	16(%rbp), %rax	 # this, tmp106
	movq	(%rax), %rax	 # this_9(D)->_M_impl.D.67390._M_start, _2
 # D:/msys64/ucrt64/include/c++/15.2.0/bits/stl_vector.h:376: 		      _M_impl._M_end_of_storage - _M_impl._M_start);
	.loc 8 376 35
	subq	%rax, %rdx	 # _2, _3
	movq	%rdx, %rax	 # _3, _3
	sarq	$3, %rax	 #, _3
 # D:/msys64/ucrt64/include/c++/15.2.0/bits/stl_vector.h:375: 	_M_deallocate(_M_impl._M_start,
	.loc 8 375 15
	movq	%rax, %rcx	 # _4, _5
	movq	16(%rbp), %rax	 # this, tmp108
	movq	(%rax), %rdx	 # this_9(D)->_M_impl.D.67390._M_start, _6
	movq	16(%rbp), %rax	 # this, tmp109
	movq	%rcx, %r8	 # _5,
	movq	%rax, %rcx	 # tmp109,
	call	_ZNSt12_Vector_baseIdSaIdEE13_M_deallocateEPdy	 #
 # D:/msys64/ucrt64/include/c++/15.2.0/bits/stl_vector.h:377:       }
	.loc 8 377 7
	movq	16(%rbp), %rax	 # this, _7
	movq	%rax, %rcx	 # _7,
	call	_ZNSt12_Vector_baseIdSaIdEE12_Vector_implD1Ev	 #
.LBE121:
	nop	
	addq	$32, %rsp	 #,
	popq	%rbp	 #
	.cfi_restore 6
	.cfi_def_cfa 7, 8
	ret	
	.cfi_endproc
.LFE5359:
	.seh_handler	__gxx_personality_seh0, @unwind, @except
	.seh_handlerdata
.LLSDA5359:
	.byte	0xff
	.byte	0xff
	.byte	0x1
	.uleb128 .LLSDACSE5359-.LLSDACSB5359
.LLSDACSB5359:
.LLSDACSE5359:
	.section	.text$_ZNSt12_Vector_baseIdSaIdEED2Ev,"x"
	.linkonce discard
	.seh_endproc
	.section	.text$_ZNSt6vectorIdSaIdEE18_M_fill_initializeEyRKd,"x"
	.linkonce discard
	.align 2
	.globl	_ZNSt6vectorIdSaIdEE18_M_fill_initializeEyRKd
	.def	_ZNSt6vectorIdSaIdEE18_M_fill_initializeEyRKd;	.scl	2;	.type	32;	.endef
	.seh_proc	_ZNSt6vectorIdSaIdEE18_M_fill_initializeEyRKd
_ZNSt6vectorIdSaIdEE18_M_fill_initializeEyRKd:
.LFB5361:
	.loc 8 1997 7
	.cfi_startproc
	pushq	%rbp	 #
	.seh_pushreg	%rbp
	.cfi_def_cfa_offset 16
	.cfi_offset 6, -16
	movq	%rsp, %rbp	 #,
	.seh_setframe	%rbp, 0
	.cfi_def_cfa_register 6
	subq	$32, %rsp	 #,
	.seh_stackalloc	32
	.seh_endprologue
	movq	%rcx, 16(%rbp)	 # this, this
	movq	%rdx, 24(%rbp)	 # __n, __n
	movq	%r8, 32(%rbp)	 # __value, __value
 # D:/msys64/ucrt64/include/c++/15.2.0/bits/stl_vector.h:2001: 					_M_get_Tp_allocator());
	.loc 8 2001 25
	movq	16(%rbp), %rax	 # this, _1
	movq	%rax, %rcx	 # _1,
	call	_ZNSt12_Vector_baseIdSaIdEE19_M_get_Tp_allocatorEv	 #
	movq	%rax, %rcx	 #, _2
 # D:/msys64/ucrt64/include/c++/15.2.0/bits/stl_vector.h:2000: 	  std::__uninitialized_fill_n_a(this->_M_impl._M_start, __n, __value,
	.loc 8 2000 48
	movq	16(%rbp), %rax	 # this, tmp102
	movq	(%rax), %rax	 # this_5(D)->D.68084._M_impl.D.67390._M_start, _3
 # D:/msys64/ucrt64/include/c++/15.2.0/bits/stl_vector.h:2000: 	  std::__uninitialized_fill_n_a(this->_M_impl._M_start, __n, __value,
	.loc 8 2000 33
	movq	32(%rbp), %r8	 # __value, tmp103
	movq	24(%rbp), %rdx	 # __n, tmp104
	movq	%rcx, %r9	 # _2,
	movq	%rax, %rcx	 # _3,
	call	_ZSt24__uninitialized_fill_n_aIPdyddET_S1_T0_RKT1_RSaIT2_E	 #
 # D:/msys64/ucrt64/include/c++/15.2.0/bits/stl_vector.h:1999: 	this->_M_impl._M_finish =
	.loc 8 1999 26
	movq	16(%rbp), %rdx	 # this, tmp105
	movq	%rax, 8(%rdx)	 # _4, this_5(D)->D.68084._M_impl.D.67390._M_finish
 # D:/msys64/ucrt64/include/c++/15.2.0/bits/stl_vector.h:2002:       }
	.loc 8 2002 7
	nop	
	addq	$32, %rsp	 #,
	popq	%rbp	 #
	.cfi_restore 6
	.cfi_def_cfa 7, 8
	ret	
	.cfi_endproc
.LFE5361:
	.seh_endproc
	.section	.text$_ZNSt12_Vector_baseIdSaIdEE19_M_get_Tp_allocatorEv,"x"
	.linkonce discard
	.align 2
	.globl	_ZNSt12_Vector_baseIdSaIdEE19_M_get_Tp_allocatorEv
	.def	_ZNSt12_Vector_baseIdSaIdEE19_M_get_Tp_allocatorEv;	.scl	2;	.type	32;	.endef
	.seh_proc	_ZNSt12_Vector_baseIdSaIdEE19_M_get_Tp_allocatorEv
_ZNSt12_Vector_baseIdSaIdEE19_M_get_Tp_allocatorEv:
.LFB5362:
	.loc 8 307 7
	.cfi_startproc
	pushq	%rbp	 #
	.seh_pushreg	%rbp
	.cfi_def_cfa_offset 16
	.cfi_offset 6, -16
	movq	%rsp, %rbp	 #,
	.seh_setframe	%rbp, 0
	.cfi_def_cfa_register 6
	.seh_endprologue
	movq	%rcx, 16(%rbp)	 # this, this
 # D:/msys64/ucrt64/include/c++/15.2.0/bits/stl_vector.h:308:       { return this->_M_impl; }
	.loc 8 308 22
	movq	16(%rbp), %rax	 # this, _2
 # D:/msys64/ucrt64/include/c++/15.2.0/bits/stl_vector.h:308:       { return this->_M_impl; }
	.loc 8 308 31
	popq	%rbp	 #
	.cfi_restore 6
	.cfi_def_cfa 7, 8
	ret	
	.cfi_endproc
.LFE5362:
	.seh_endproc
	.section	.text$_ZSt3minIyERKT_S2_S2_,"x"
	.linkonce discard
	.globl	_ZSt3minIyERKT_S2_S2_
	.def	_ZSt3minIyERKT_S2_S2_;	.scl	2;	.type	32;	.endef
	.seh_proc	_ZSt3minIyERKT_S2_S2_
_ZSt3minIyERKT_S2_S2_:
.LFB5422:
	.file 10 "D:/msys64/ucrt64/include/c++/15.2.0/bits/stl_algobase.h"
	.loc 10 234 5
	.cfi_startproc
	pushq	%rbp	 #
	.seh_pushreg	%rbp
	.cfi_def_cfa_offset 16
	.cfi_offset 6, -16
	movq	%rsp, %rbp	 #,
	.seh_setframe	%rbp, 0
	.cfi_def_cfa_register 6
	.seh_endprologue
	movq	%rcx, 16(%rbp)	 # __a, __a
	movq	%rdx, 24(%rbp)	 # __b, __b
 # D:/msys64/ucrt64/include/c++/15.2.0/bits/stl_algobase.h:239:       if (__b < __a)
	.loc 10 239 15
	movq	24(%rbp), %rax	 # __b, tmp102
	movq	(%rax), %rdx	 # *__b_5(D), _1
	movq	16(%rbp), %rax	 # __a, tmp103
	movq	(%rax), %rax	 # *__a_6(D), _2
 # D:/msys64/ucrt64/include/c++/15.2.0/bits/stl_algobase.h:239:       if (__b < __a)
	.loc 10 239 7
	cmpq	%rax, %rdx	 # _2, _1
	jnb	.L76	 #,
 # D:/msys64/ucrt64/include/c++/15.2.0/bits/stl_algobase.h:240: 	return __b;
	.loc 10 240 9
	movq	24(%rbp), %rax	 # __b, _3
	jmp	.L77	 #
.L76:
 # D:/msys64/ucrt64/include/c++/15.2.0/bits/stl_algobase.h:241:       return __a;
	.loc 10 241 14
	movq	16(%rbp), %rax	 # __a, _3
.L77:
 # D:/msys64/ucrt64/include/c++/15.2.0/bits/stl_algobase.h:242:     }
	.loc 10 242 5
	popq	%rbp	 #
	.cfi_restore 6
	.cfi_def_cfa 7, 8
	ret	
	.cfi_endproc
.LFE5422:
	.seh_endproc
	.section	.text$_ZNSt6vectorIdSaIdEE11_S_max_sizeERKS0_,"x"
	.linkonce discard
	.globl	_ZNSt6vectorIdSaIdEE11_S_max_sizeERKS0_
	.def	_ZNSt6vectorIdSaIdEE11_S_max_sizeERKS0_;	.scl	2;	.type	32;	.endef
	.seh_proc	_ZNSt6vectorIdSaIdEE11_S_max_sizeERKS0_
_ZNSt6vectorIdSaIdEE11_S_max_sizeERKS0_:
.LFB5493:
	.loc 8 2217 7
	.cfi_startproc
	pushq	%rbp	 #
	.seh_pushreg	%rbp
	.cfi_def_cfa_offset 16
	.cfi_offset 6, -16
	movq	%rsp, %rbp	 #,
	.seh_setframe	%rbp, 0
	.cfi_def_cfa_register 6
	subq	$48, %rsp	 #,
	.seh_stackalloc	48
	.seh_endprologue
	movq	%rcx, 16(%rbp)	 # __a, __a
 # D:/msys64/ucrt64/include/c++/15.2.0/bits/stl_vector.h:2222: 	const size_t __diffmax
	.loc 8 2222 15
	movabsq	$1152921504606846975, %rax	 #, tmp105
	movq	%rax, -8(%rbp)	 # tmp105, __diffmax
 # D:/msys64/ucrt64/include/c++/15.2.0/bits/stl_vector.h:2224: 	const size_t __allocmax = _Alloc_traits::max_size(__a);
	.loc 8 2224 15
	movabsq	$2305843009213693951, %rax	 #, tmp106
	movq	%rax, -16(%rbp)	 # tmp106, __allocmax
 # D:/msys64/ucrt64/include/c++/15.2.0/bits/stl_vector.h:2225: 	return (std::min)(__diffmax, __allocmax);
	.loc 8 2225 19
	leaq	-16(%rbp), %rdx	 #, tmp101
	leaq	-8(%rbp), %rax	 #, tmp102
	movq	%rax, %rcx	 # tmp102,
	call	_ZSt3minIyERKT_S2_S2_	 #
 # D:/msys64/ucrt64/include/c++/15.2.0/bits/stl_vector.h:2225: 	return (std::min)(__diffmax, __allocmax);
	.loc 8 2225 41 discriminator 1
	movq	(%rax), %rax	 # *_1, _6
 # D:/msys64/ucrt64/include/c++/15.2.0/bits/stl_vector.h:2226:       }
	.loc 8 2226 7
	addq	$48, %rsp	 #,
	popq	%rbp	 #
	.cfi_restore 6
	.cfi_def_cfa 7, 8
	ret	
	.cfi_endproc
.LFE5493:
	.seh_endproc
	.section	.text$_ZNSt12_Vector_baseIdSaIdEE12_Vector_implC1ERKS0_,"x"
	.linkonce discard
	.align 2
	.globl	_ZNSt12_Vector_baseIdSaIdEE12_Vector_implC1ERKS0_
	.def	_ZNSt12_Vector_baseIdSaIdEE12_Vector_implC1ERKS0_;	.scl	2;	.type	32;	.endef
	.seh_proc	_ZNSt12_Vector_baseIdSaIdEE12_Vector_implC1ERKS0_
_ZNSt12_Vector_baseIdSaIdEE12_Vector_implC1ERKS0_:
.LFB5500:
	.loc 8 152 2
	.cfi_startproc
	pushq	%rbp	 #
	.seh_pushreg	%rbp
	.cfi_def_cfa_offset 16
	.cfi_offset 6, -16
	movq	%rsp, %rbp	 #,
	.seh_setframe	%rbp, 0
	.cfi_def_cfa_register 6
	subq	$64, %rsp	 #,
	.seh_stackalloc	64
	.seh_endprologue
	movq	%rcx, 16(%rbp)	 # this, this
	movq	%rdx, 24(%rbp)	 # __a, __a
	movq	16(%rbp), %rax	 # this, tmp99
	movq	%rax, -8(%rbp)	 # tmp99, this
	movq	24(%rbp), %rax	 # __a, tmp100
	movq	%rax, -16(%rbp)	 # tmp100, __a
	movq	-8(%rbp), %rax	 # this, tmp101
	movq	%rax, -24(%rbp)	 # tmp101, this
	movq	-16(%rbp), %rax	 # __a, tmp102
	movq	%rax, -32(%rbp)	 # tmp102, D.96147
.LBB122:
.LBB123:
.LBB124:
.LBB125:
.LBB126:
.LBB127:
 # D:/msys64/ucrt64/include/c++/15.2.0/bits/new_allocator.h:92:       __new_allocator(const __new_allocator&) _GLIBCXX_USE_NOEXCEPT { }
	.loc 5 92 58
	nop	
.LBE127:
.LBE126:
.LBE125:
 # D:/msys64/ucrt64/include/c++/15.2.0/bits/allocator.h:173:       : __allocator_base<_Tp>(__a) { }
	.loc 6 173 38
	nop	
.LBE124:
.LBE123:
 # D:/msys64/ucrt64/include/c++/15.2.0/bits/stl_vector.h:153: 	: _Tp_alloc_type(__a)
	.loc 8 153 22 discriminator 1
	movq	16(%rbp), %rax	 # this, _1
	movq	%rax, %rcx	 # _1,
	call	_ZNSt12_Vector_baseIdSaIdEE17_Vector_impl_dataC2Ev	 #
.LBE122:
 # D:/msys64/ucrt64/include/c++/15.2.0/bits/stl_vector.h:154: 	{ }
	.loc 8 154 4
	nop	
	addq	$64, %rsp	 #,
	popq	%rbp	 #
	.cfi_restore 6
	.cfi_def_cfa 7, 8
	ret	
	.cfi_endproc
.LFE5500:
	.seh_endproc
	.section	.text$_ZNSt12_Vector_baseIdSaIdEE17_M_create_storageEy,"x"
	.linkonce discard
	.align 2
	.globl	_ZNSt12_Vector_baseIdSaIdEE17_M_create_storageEy
	.def	_ZNSt12_Vector_baseIdSaIdEE17_M_create_storageEy;	.scl	2;	.type	32;	.endef
	.seh_proc	_ZNSt12_Vector_baseIdSaIdEE17_M_create_storageEy
_ZNSt12_Vector_baseIdSaIdEE17_M_create_storageEy:
.LFB5501:
	.loc 8 403 7
	.cfi_startproc
	pushq	%rbp	 #
	.seh_pushreg	%rbp
	.cfi_def_cfa_offset 16
	.cfi_offset 6, -16
	movq	%rsp, %rbp	 #,
	.seh_setframe	%rbp, 0
	.cfi_def_cfa_register 6
	subq	$32, %rsp	 #,
	.seh_stackalloc	32
	.seh_endprologue
	movq	%rcx, 16(%rbp)	 # this, this
	movq	%rdx, 24(%rbp)	 # __n, __n
 # D:/msys64/ucrt64/include/c++/15.2.0/bits/stl_vector.h:405: 	this->_M_impl._M_start = this->_M_allocate(__n);
	.loc 8 405 44
	movq	24(%rbp), %rdx	 # __n, tmp103
	movq	16(%rbp), %rax	 # this, tmp104
	movq	%rax, %rcx	 # tmp104,
	call	_ZNSt12_Vector_baseIdSaIdEE11_M_allocateEy	 #
 # D:/msys64/ucrt64/include/c++/15.2.0/bits/stl_vector.h:405: 	this->_M_impl._M_start = this->_M_allocate(__n);
	.loc 8 405 25 discriminator 1
	movq	16(%rbp), %rdx	 # this, tmp105
	movq	%rax, (%rdx)	 # _1, this_7(D)->_M_impl.D.67390._M_start
 # D:/msys64/ucrt64/include/c++/15.2.0/bits/stl_vector.h:406: 	this->_M_impl._M_finish = this->_M_impl._M_start;
	.loc 8 406 42
	movq	16(%rbp), %rax	 # this, tmp106
	movq	(%rax), %rdx	 # this_7(D)->_M_impl.D.67390._M_start, _2
 # D:/msys64/ucrt64/include/c++/15.2.0/bits/stl_vector.h:406: 	this->_M_impl._M_finish = this->_M_impl._M_start;
	.loc 8 406 26
	movq	16(%rbp), %rax	 # this, tmp107
	movq	%rdx, 8(%rax)	 # _2, this_7(D)->_M_impl.D.67390._M_finish
 # D:/msys64/ucrt64/include/c++/15.2.0/bits/stl_vector.h:407: 	this->_M_impl._M_end_of_storage = this->_M_impl._M_start + __n;
	.loc 8 407 50
	movq	16(%rbp), %rax	 # this, tmp108
	movq	(%rax), %rax	 # this_7(D)->_M_impl.D.67390._M_start, _3
 # D:/msys64/ucrt64/include/c++/15.2.0/bits/stl_vector.h:407: 	this->_M_impl._M_end_of_storage = this->_M_impl._M_start + __n;
	.loc 8 407 59
	movq	24(%rbp), %rdx	 # __n, tmp109
	salq	$3, %rdx	 #, _4
	addq	%rax, %rdx	 # _3, _5
 # D:/msys64/ucrt64/include/c++/15.2.0/bits/stl_vector.h:407: 	this->_M_impl._M_end_of_storage = this->_M_impl._M_start + __n;
	.loc 8 407 34
	movq	16(%rbp), %rax	 # this, tmp110
	movq	%rdx, 16(%rax)	 # _5, this_7(D)->_M_impl.D.67390._M_end_of_storage
 # D:/msys64/ucrt64/include/c++/15.2.0/bits/stl_vector.h:408:       }
	.loc 8 408 7
	nop	
	addq	$32, %rsp	 #,
	popq	%rbp	 #
	.cfi_restore 6
	.cfi_def_cfa 7, 8
	ret	
	.cfi_endproc
.LFE5501:
	.seh_endproc
	.section	.text$_ZNSt12_Vector_baseIdSaIdEE13_M_deallocateEPdy,"x"
	.linkonce discard
	.align 2
	.globl	_ZNSt12_Vector_baseIdSaIdEE13_M_deallocateEPdy
	.def	_ZNSt12_Vector_baseIdSaIdEE13_M_deallocateEPdy;	.scl	2;	.type	32;	.endef
	.seh_proc	_ZNSt12_Vector_baseIdSaIdEE13_M_deallocateEPdy
_ZNSt12_Vector_baseIdSaIdEE13_M_deallocateEPdy:
.LFB5502:
	.loc 8 392 7
	.cfi_startproc
	pushq	%rbp	 #
	.seh_pushreg	%rbp
	.cfi_def_cfa_offset 16
	.cfi_offset 6, -16
	movq	%rsp, %rbp	 #,
	.seh_setframe	%rbp, 0
	.cfi_def_cfa_register 6
	subq	$80, %rsp	 #,
	.seh_stackalloc	80
	.seh_endprologue
	movq	%rcx, 16(%rbp)	 # this, this
	movq	%rdx, 24(%rbp)	 # __p, __p
	movq	%r8, 32(%rbp)	 # __n, __n
 # D:/msys64/ucrt64/include/c++/15.2.0/bits/stl_vector.h:395: 	if (__p)
	.loc 8 395 2
	cmpq	$0, 24(%rbp)	 #, __p
	je	.L87	 #,
 # D:/msys64/ucrt64/include/c++/15.2.0/bits/stl_vector.h:396: 	  _Tr::deallocate(_M_impl, __p, __n);
	.loc 8 396 20
	movq	16(%rbp), %rax	 # this, _1
	movq	%rax, -8(%rbp)	 # _1, __a
	movq	24(%rbp), %rax	 # __p, tmp100
	movq	%rax, -16(%rbp)	 # tmp100, __p
	movq	32(%rbp), %rax	 # __n, tmp101
	movq	%rax, -24(%rbp)	 # tmp101, __n
	movq	-8(%rbp), %rax	 # __a, tmp102
	movq	%rax, -32(%rbp)	 # tmp102, this
	movq	-16(%rbp), %rax	 # __p, tmp103
	movq	%rax, -40(%rbp)	 # tmp103, __p
	movq	-24(%rbp), %rax	 # __n, tmp104
	movq	%rax, -48(%rbp)	 # tmp104, __n
.LBB128:
.LBB129:
.LBB130:
.LBB131:
.LBB132:
.LBB133:
 # D:/msys64/ucrt64/include/c++/15.2.0/x86_64-w64-mingw32/bits/c++config.h:589:     return __builtin_is_constant_evaluated();
	.file 11 "D:/msys64/ucrt64/include/c++/15.2.0/x86_64-w64-mingw32/bits/c++config.h"
	.loc 11 589 44
	movl	$0, %eax	 #, _13
.LBE133:
.LBE132:
 # D:/msys64/ucrt64/include/c++/15.2.0/bits/allocator.h:210: 	if (std::__is_constant_evaluated())
	.loc 6 210 2 discriminator 1
	testb	%al, %al	 # _13
	je	.L85	 #,
 # D:/msys64/ucrt64/include/c++/15.2.0/bits/allocator.h:212: 	    ::operator delete(__p);
	.loc 6 212 23
	movq	-40(%rbp), %rax	 # __p, tmp105
	movq	%rax, %rcx	 # tmp105,
	call	_ZdlPv	 #
 # D:/msys64/ucrt64/include/c++/15.2.0/bits/allocator.h:213: 	    return;
	.loc 6 213 6
	jmp	.L86	 #
.L85:
 # D:/msys64/ucrt64/include/c++/15.2.0/bits/allocator.h:215: 	__allocator_base<_Tp>::deallocate(__p, __n);
	.loc 6 215 35
	movq	-48(%rbp), %rcx	 # __n, tmp106
	movq	-40(%rbp), %rdx	 # __p, tmp107
	movq	-32(%rbp), %rax	 # this, tmp108
	movq	%rcx, %r8	 # tmp106,
	movq	%rax, %rcx	 # tmp108,
	call	_ZNSt15__new_allocatorIdE10deallocateEPdy	 #
.L86:
.LBE131:
.LBE130:
 # D:/msys64/ucrt64/include/c++/15.2.0/bits/alloc_traits.h:649:       { __a.deallocate(__p, __n); }
	.loc 9 649 35
	nop	
.L87:
.LBE129:
.LBE128:
 # D:/msys64/ucrt64/include/c++/15.2.0/bits/stl_vector.h:397:       }
	.loc 8 397 7
	nop	
	addq	$80, %rsp	 #,
	popq	%rbp	 #
	.cfi_restore 6
	.cfi_def_cfa 7, 8
	ret	
	.cfi_endproc
.LFE5502:
	.seh_endproc
	.section	.text$_ZSt24__uninitialized_fill_n_aIPdyddET_S1_T0_RKT1_RSaIT2_E,"x"
	.linkonce discard
	.globl	_ZSt24__uninitialized_fill_n_aIPdyddET_S1_T0_RKT1_RSaIT2_E
	.def	_ZSt24__uninitialized_fill_n_aIPdyddET_S1_T0_RKT1_RSaIT2_E;	.scl	2;	.type	32;	.endef
	.seh_proc	_ZSt24__uninitialized_fill_n_aIPdyddET_S1_T0_RKT1_RSaIT2_E
_ZSt24__uninitialized_fill_n_aIPdyddET_S1_T0_RKT1_RSaIT2_E:
.LFB5503:
	.file 12 "D:/msys64/ucrt64/include/c++/15.2.0/bits/stl_uninitialized.h"
	.loc 12 720 5
	.cfi_startproc
	pushq	%rbp	 #
	.seh_pushreg	%rbp
	.cfi_def_cfa_offset 16
	.cfi_offset 6, -16
	movq	%rsp, %rbp	 #,
	.seh_setframe	%rbp, 0
	.cfi_def_cfa_register 6
	subq	$32, %rsp	 #,
	.seh_stackalloc	32
	.seh_endprologue
	movq	%rcx, 16(%rbp)	 # __first, __first
	movq	%rdx, 24(%rbp)	 # __n, __n
	movq	%r8, 32(%rbp)	 # __x, __x
	movq	%r9, 40(%rbp)	 # D.94029, D.94029
 # D:/msys64/ucrt64/include/c++/15.2.0/bits/stl_uninitialized.h:724:       if (std::is_constant_evaluated())
	.loc 12 724 37
	call	_ZSt21is_constant_evaluatedv	 #
 # D:/msys64/ucrt64/include/c++/15.2.0/bits/stl_uninitialized.h:724:       if (std::is_constant_evaluated())
	.loc 12 724 7 discriminator 1
	testb	%al, %al	 # retval.11_5
	je	.L89	 #,
 # D:/msys64/ucrt64/include/c++/15.2.0/bits/stl_uninitialized.h:725: 	return std::__do_uninit_fill_n(__first, __n, __x);
	.loc 12 725 32
	movq	32(%rbp), %rcx	 # __x, tmp101
	movq	24(%rbp), %rdx	 # __n, tmp102
	movq	16(%rbp), %rax	 # __first, tmp103
	movq	%rcx, %r8	 # tmp101,
	movq	%rax, %rcx	 # tmp103,
	call	_ZSt18__do_uninit_fill_nIPdydET_S1_T0_RKT1_	 #
 # D:/msys64/ucrt64/include/c++/15.2.0/bits/stl_uninitialized.h:725: 	return std::__do_uninit_fill_n(__first, __n, __x);
	.loc 12 725 50
	jmp	.L90	 #
.L89:
 # D:/msys64/ucrt64/include/c++/15.2.0/bits/stl_uninitialized.h:727:       return std::uninitialized_fill_n(__first, __n, __x);
	.loc 12 727 39
	movq	32(%rbp), %rcx	 # __x, tmp104
	movq	24(%rbp), %rdx	 # __n, tmp105
	movq	16(%rbp), %rax	 # __first, tmp106
	movq	%rcx, %r8	 # tmp104,
	movq	%rax, %rcx	 # tmp106,
	call	_ZSt20uninitialized_fill_nIPdydET_S1_T0_RKT1_	 #
 # D:/msys64/ucrt64/include/c++/15.2.0/bits/stl_uninitialized.h:727:       return std::uninitialized_fill_n(__first, __n, __x);
	.loc 12 727 57
	nop	
.L90:
 # D:/msys64/ucrt64/include/c++/15.2.0/bits/stl_uninitialized.h:728:     }
	.loc 12 728 5
	addq	$32, %rsp	 #,
	popq	%rbp	 #
	.cfi_restore 6
	.cfi_def_cfa 7, 8
	ret	
	.cfi_endproc
.LFE5503:
	.seh_endproc
	.section	.text$_ZSt8_DestroyIPdEvT_S1_,"x"
	.linkonce discard
	.globl	_ZSt8_DestroyIPdEvT_S1_
	.def	_ZSt8_DestroyIPdEvT_S1_;	.scl	2;	.type	32;	.endef
	.seh_proc	_ZSt8_DestroyIPdEvT_S1_
_ZSt8_DestroyIPdEvT_S1_:
.LFB5504:
	.file 13 "D:/msys64/ucrt64/include/c++/15.2.0/bits/stl_construct.h"
	.loc 13 202 5
	.cfi_startproc
	pushq	%rbp	 #
	.seh_pushreg	%rbp
	.cfi_def_cfa_offset 16
	.cfi_offset 6, -16
	movq	%rsp, %rbp	 #,
	.seh_setframe	%rbp, 0
	.cfi_def_cfa_register 6
	subq	$48, %rsp	 #,
	.seh_stackalloc	48
	.seh_endprologue
	movq	%rcx, 16(%rbp)	 # __first, __first
	movq	%rdx, 24(%rbp)	 # __last, __last
.LBB134:
.LBB135:
 # D:/msys64/ucrt64/include/c++/15.2.0/x86_64-w64-mingw32/bits/c++config.h:589:     return __builtin_is_constant_evaluated();
	.loc 11 589 44
	movl	$0, %eax	 #, D.96148
.LBE135:
.LBE134:
 # D:/msys64/ucrt64/include/c++/15.2.0/bits/stl_construct.h:214:       else if (std::__is_constant_evaluated())
	.loc 13 214 12 discriminator 1
	testb	%al, %al	 # D.96148
	je	.L97	 #,
 # D:/msys64/ucrt64/include/c++/15.2.0/bits/stl_construct.h:215: 	for (; __first != __last; ++__first)
	.loc 13 215 2
	jmp	.L94	 #
.L96:
	movq	16(%rbp), %rax	 # __first, tmp100
	movq	%rax, -8(%rbp)	 # tmp100, __r
.LBB136:
.LBB137:
 # D:/msys64/ucrt64/include/c++/15.2.0/bits/move.h:53:     { return __builtin_addressof(__r); }
	.file 14 "D:/msys64/ucrt64/include/c++/15.2.0/bits/move.h"
	.loc 14 53 37
	movq	-8(%rbp), %rax	 # __r, D.96152
.LBE137:
.LBE136:
 # D:/msys64/ucrt64/include/c++/15.2.0/bits/stl_construct.h:216: 	  std::destroy_at(std::__addressof(*__first));
	.loc 13 216 19 discriminator 1
	movq	%rax, %rcx	 # D.96152,
	call	_ZSt10destroy_atIdEvPT_	 #
 # D:/msys64/ucrt64/include/c++/15.2.0/bits/stl_construct.h:215: 	for (; __first != __last; ++__first)
	.loc 13 215 2 discriminator 2
	addq	$8, 16(%rbp)	 #, __first
.L94:
 # D:/msys64/ucrt64/include/c++/15.2.0/bits/stl_construct.h:215: 	for (; __first != __last; ++__first)
	.loc 13 215 17 discriminator 1
	movq	16(%rbp), %rax	 # __first, tmp101
	cmpq	24(%rbp), %rax	 # __last, tmp101
	jne	.L96	 #,
.L97:
 # D:/msys64/ucrt64/include/c++/15.2.0/bits/stl_construct.h:222:     }
	.loc 13 222 5
	nop	
	addq	$48, %rsp	 #,
	popq	%rbp	 #
	.cfi_restore 6
	.cfi_def_cfa 7, 8
	ret	
	.cfi_endproc
.LFE5504:
	.seh_endproc
	.section	.text$_ZNSt12_Vector_baseIdSaIdEE17_Vector_impl_dataC2Ev,"x"
	.linkonce discard
	.align 2
	.globl	_ZNSt12_Vector_baseIdSaIdEE17_Vector_impl_dataC2Ev
	.def	_ZNSt12_Vector_baseIdSaIdEE17_Vector_impl_dataC2Ev;	.scl	2;	.type	32;	.endef
	.seh_proc	_ZNSt12_Vector_baseIdSaIdEE17_Vector_impl_dataC2Ev
_ZNSt12_Vector_baseIdSaIdEE17_Vector_impl_dataC2Ev:
.LFB5609:
	.loc 8 105 2
	.cfi_startproc
	pushq	%rbp	 #
	.seh_pushreg	%rbp
	.cfi_def_cfa_offset 16
	.cfi_offset 6, -16
	movq	%rsp, %rbp	 #,
	.seh_setframe	%rbp, 0
	.cfi_def_cfa_register 6
	.seh_endprologue
	movq	%rcx, 16(%rbp)	 # this, this
.LBB138:
 # D:/msys64/ucrt64/include/c++/15.2.0/bits/stl_vector.h:106: 	: _M_start(), _M_finish(), _M_end_of_storage()
	.loc 8 106 4
	movq	16(%rbp), %rax	 # this, tmp98
	movq	$0, (%rax)	 #, this_2(D)->_M_start
 # D:/msys64/ucrt64/include/c++/15.2.0/bits/stl_vector.h:106: 	: _M_start(), _M_finish(), _M_end_of_storage()
	.loc 8 106 16
	movq	16(%rbp), %rax	 # this, tmp99
	movq	$0, 8(%rax)	 #, this_2(D)->_M_finish
 # D:/msys64/ucrt64/include/c++/15.2.0/bits/stl_vector.h:106: 	: _M_start(), _M_finish(), _M_end_of_storage()
	.loc 8 106 29
	movq	16(%rbp), %rax	 # this, tmp100
	movq	$0, 16(%rax)	 #, this_2(D)->_M_end_of_storage
.LBE138:
 # D:/msys64/ucrt64/include/c++/15.2.0/bits/stl_vector.h:107: 	{ }
	.loc 8 107 4
	nop	
	popq	%rbp	 #
	.cfi_restore 6
	.cfi_def_cfa 7, 8
	ret	
	.cfi_endproc
.LFE5609:
	.seh_endproc
	.section	.text$_ZNSt12_Vector_baseIdSaIdEE11_M_allocateEy,"x"
	.linkonce discard
	.align 2
	.globl	_ZNSt12_Vector_baseIdSaIdEE11_M_allocateEy
	.def	_ZNSt12_Vector_baseIdSaIdEE11_M_allocateEy;	.scl	2;	.type	32;	.endef
	.seh_proc	_ZNSt12_Vector_baseIdSaIdEE11_M_allocateEy
_ZNSt12_Vector_baseIdSaIdEE11_M_allocateEy:
.LFB5611:
	.loc 8 384 7
	.cfi_startproc
	pushq	%rbp	 #
	.seh_pushreg	%rbp
	.cfi_def_cfa_offset 16
	.cfi_offset 6, -16
	movq	%rsp, %rbp	 #,
	.seh_setframe	%rbp, 0
	.cfi_def_cfa_register 6
	subq	$64, %rsp	 #,
	.seh_stackalloc	64
	.seh_endprologue
	movq	%rcx, 16(%rbp)	 # this, this
	movq	%rdx, 24(%rbp)	 # __n, __n
 # D:/msys64/ucrt64/include/c++/15.2.0/bits/stl_vector.h:387: 	return __n != 0 ? _Tr::allocate(_M_impl, __n) : pointer();
	.loc 8 387 18
	cmpq	$0, 24(%rbp)	 #, __n
	je	.L100	 #,
 # D:/msys64/ucrt64/include/c++/15.2.0/bits/stl_vector.h:387: 	return __n != 0 ? _Tr::allocate(_M_impl, __n) : pointer();
	.loc 8 387 34 discriminator 1
	movq	16(%rbp), %rax	 # this, _1
	movq	%rax, -8(%rbp)	 # _1, __a
	movq	24(%rbp), %rax	 # __n, tmp110
	movq	%rax, -16(%rbp)	 # tmp110, __n
	movq	-8(%rbp), %rax	 # __a, tmp111
	movq	%rax, -24(%rbp)	 # tmp111, this
	movq	-16(%rbp), %rax	 # __n, tmp112
	movq	%rax, -32(%rbp)	 # tmp112, __n
.LBB139:
.LBB140:
.LBB141:
.LBB142:
.LBB143:
.LBB144:
 # D:/msys64/ucrt64/include/c++/15.2.0/x86_64-w64-mingw32/bits/c++config.h:589:     return __builtin_is_constant_evaluated();
	.loc 11 589 44
	movl	$0, %eax	 #, _13
.LBE144:
.LBE143:
 # D:/msys64/ucrt64/include/c++/15.2.0/bits/allocator.h:196: 	if (std::__is_constant_evaluated())
	.loc 6 196 2 discriminator 1
	testb	%al, %al	 # _13
	je	.L102	 #,
 # D:/msys64/ucrt64/include/c++/15.2.0/bits/allocator.h:198: 	    if (__builtin_mul_overflow(__n, sizeof(_Tp), &__n))
	.loc 6 198 32
	movq	-32(%rbp), %rax	 # __n, __n.7_16
	movl	$0, %ecx	 #, _17
	leaq	0(,%rax,8), %rdx	 #, tmp113
	shrq	$61, %rax	 #, tmp114
	testq	%rax, %rax	 # tmp114
	je	.L103	 #,
	movl	$1, %ecx	 #, _17
.L103:
	movq	%rdx, %rax	 # tmp113, _17
 # D:/msys64/ucrt64/include/c++/15.2.0/bits/allocator.h:198: 	    if (__builtin_mul_overflow(__n, sizeof(_Tp), &__n))
	.loc 6 198 32 is_stmt 0 discriminator 1
	movq	%rax, -32(%rbp)	 # _18, __n
	movq	%rcx, %rax	 # _17, _19
	andl	$1, %eax	 #, retval.6_20
 # D:/msys64/ucrt64/include/c++/15.2.0/bits/allocator.h:198: 	    if (__builtin_mul_overflow(__n, sizeof(_Tp), &__n))
	.loc 6 198 6 is_stmt 1 discriminator 1
	testb	%al, %al	 # retval.6_20
	je	.L105	 #,
 # D:/msys64/ucrt64/include/c++/15.2.0/bits/allocator.h:199: 	      std::__throw_bad_array_new_length();
	.loc 6 199 41
	call	_ZSt28__throw_bad_array_new_lengthv	 #
.L105:
 # D:/msys64/ucrt64/include/c++/15.2.0/bits/allocator.h:200: 	    return static_cast<_Tp*>(::operator new(__n));
	.loc 6 200 45
	movq	-32(%rbp), %rax	 # __n, __n.8_21
	movq	%rax, %rcx	 # __n.8_21,
	call	_Znwy	 #
 # D:/msys64/ucrt64/include/c++/15.2.0/bits/allocator.h:200: 	    return static_cast<_Tp*>(::operator new(__n));
	.loc 6 200 50
	jmp	.L106	 #
.L102:
 # D:/msys64/ucrt64/include/c++/15.2.0/bits/allocator.h:203: 	return __allocator_base<_Tp>::allocate(__n, 0);
	.loc 6 203 40
	movq	-32(%rbp), %rdx	 # __n, __n.9_24
	movq	-24(%rbp), %rax	 # this, tmp116
	movl	$0, %r8d	 #,
	movq	%rax, %rcx	 # tmp116,
	call	_ZNSt15__new_allocatorIdE8allocateEyPKv	 #
 # D:/msys64/ucrt64/include/c++/15.2.0/bits/allocator.h:203: 	return __allocator_base<_Tp>::allocate(__n, 0);
	.loc 6 203 47
	nop	
.L106:
.LBE142:
.LBE141:
 # D:/msys64/ucrt64/include/c++/15.2.0/bits/alloc_traits.h:614:       { return __a.allocate(__n); }
	.loc 9 614 32
	nop	
	jmp	.L108	 #
.L100:
.LBE140:
.LBE139:
 # D:/msys64/ucrt64/include/c++/15.2.0/bits/stl_vector.h:387: 	return __n != 0 ? _Tr::allocate(_M_impl, __n) : pointer();
	.loc 8 387 58 discriminator 2
	movl	$0, %eax	 #, D.96225
.L108:
 # D:/msys64/ucrt64/include/c++/15.2.0/bits/stl_vector.h:388:       }
	.loc 8 388 7
	addq	$64, %rsp	 #,
	popq	%rbp	 #
	.cfi_restore 6
	.cfi_def_cfa 7, 8
	ret	
	.cfi_endproc
.LFE5611:
	.seh_endproc
	.section	.text$_ZNSt19_UninitDestroyGuardIPdvEC1ERS0_,"x"
	.linkonce discard
	.align 2
	.globl	_ZNSt19_UninitDestroyGuardIPdvEC1ERS0_
	.def	_ZNSt19_UninitDestroyGuardIPdvEC1ERS0_;	.scl	2;	.type	32;	.endef
	.seh_proc	_ZNSt19_UninitDestroyGuardIPdvEC1ERS0_
_ZNSt19_UninitDestroyGuardIPdvEC1ERS0_:
.LFB5616:
	.loc 12 113 7
	.cfi_startproc
	pushq	%rbp	 #
	.seh_pushreg	%rbp
	.cfi_def_cfa_offset 16
	.cfi_offset 6, -16
	movq	%rsp, %rbp	 #,
	.seh_setframe	%rbp, 0
	.cfi_def_cfa_register 6
	.seh_endprologue
	movq	%rcx, 16(%rbp)	 # this, this
	movq	%rdx, 24(%rbp)	 # __first, __first
.LBB145:
 # D:/msys64/ucrt64/include/c++/15.2.0/bits/stl_uninitialized.h:114:       : _M_first(__first), _M_cur(__builtin_addressof(__first))
	.loc 12 114 9
	movq	24(%rbp), %rax	 # __first, tmp99
	movq	(%rax), %rdx	 # *__first_5(D), _1
	movq	16(%rbp), %rax	 # this, tmp100
	movq	%rdx, (%rax)	 # _1, this_3(D)->_M_first
 # D:/msys64/ucrt64/include/c++/15.2.0/bits/stl_uninitialized.h:114:       : _M_first(__first), _M_cur(__builtin_addressof(__first))
	.loc 12 114 28
	movq	16(%rbp), %rax	 # this, tmp101
	movq	24(%rbp), %rdx	 # __first, tmp102
	movq	%rdx, 8(%rax)	 # tmp102, this_3(D)->_M_cur
.LBE145:
 # D:/msys64/ucrt64/include/c++/15.2.0/bits/stl_uninitialized.h:115:       { }
	.loc 12 115 9
	nop	
	popq	%rbp	 #
	.cfi_restore 6
	.cfi_def_cfa 7, 8
	ret	
	.cfi_endproc
.LFE5616:
	.seh_endproc
	.section	.text$_ZSt18__do_uninit_fill_nIPdydET_S1_T0_RKT1_,"x"
	.linkonce discard
	.globl	_ZSt18__do_uninit_fill_nIPdydET_S1_T0_RKT1_
	.def	_ZSt18__do_uninit_fill_nIPdydET_S1_T0_RKT1_;	.scl	2;	.type	32;	.endef
	.seh_proc	_ZSt18__do_uninit_fill_nIPdydET_S1_T0_RKT1_
_ZSt18__do_uninit_fill_nIPdydET_S1_T0_RKT1_:
.LFB5613:
	.loc 12 455 5
	.cfi_startproc
	pushq	%rbp	 #
	.seh_pushreg	%rbp
	.cfi_def_cfa_offset 16
	.cfi_offset 6, -16
	pushq	%rbx	 #
	.seh_pushreg	%rbx
	.cfi_def_cfa_offset 24
	.cfi_offset 3, -24
	subq	$72, %rsp	 #,
	.seh_stackalloc	72
	.cfi_def_cfa_offset 96
	leaq	64(%rsp), %rbp	 #,
	.seh_setframe	%rbp, 64
	.cfi_def_cfa 6, 32
	.seh_endprologue
	movq	%rcx, 32(%rbp)	 # __first, __first
	movq	%rdx, 40(%rbp)	 # __n, __n
	movq	%r8, 48(%rbp)	 # __x, __x
 # D:/msys64/ucrt64/include/c++/15.2.0/bits/stl_uninitialized.h:457:       _UninitDestroyGuard<_ForwardIterator> __guard(__first);
	.loc 12 457 45
	leaq	-32(%rbp), %rax	 #, tmp106
	leaq	32(%rbp), %rdx	 #,
	movq	%rax, %rcx	 # tmp106,
	call	_ZNSt19_UninitDestroyGuardIPdvEC1ERS0_	 #
 # D:/msys64/ucrt64/include/c++/15.2.0/bits/stl_uninitialized.h:469:       for (; __n--; ++__first)
	.loc 12 469 7
	jmp	.L112	 #
.L114:
 # D:/msys64/ucrt64/include/c++/15.2.0/bits/stl_uninitialized.h:470: 	std::_Construct(std::__addressof(*__first), __x);
	.loc 12 470 17
	movq	32(%rbp), %rax	 # __first, __first.12_1
	movq	%rax, -8(%rbp)	 # __first.12_1, __r
.LBB146:
.LBB147:
 # D:/msys64/ucrt64/include/c++/15.2.0/bits/move.h:53:     { return __builtin_addressof(__r); }
	.loc 14 53 37
	movq	-8(%rbp), %rax	 # __r, D.96196
.LBE147:
.LBE146:
 # D:/msys64/ucrt64/include/c++/15.2.0/bits/stl_uninitialized.h:470: 	std::_Construct(std::__addressof(*__first), __x);
	.loc 12 470 17 discriminator 1
	movq	48(%rbp), %rdx	 # __x, tmp107
	movq	%rax, %rcx	 # D.96196,
	call	_ZSt10_ConstructIdJRKdEEvPT_DpOT0_	 #
 # D:/msys64/ucrt64/include/c++/15.2.0/bits/stl_uninitialized.h:469:       for (; __n--; ++__first)
	.loc 12 469 7 discriminator 2
	movq	32(%rbp), %rax	 # __first, __first.13_3
	addq	$8, %rax	 #, _4
	movq	%rax, 32(%rbp)	 # _4, __first
.L112:
 # D:/msys64/ucrt64/include/c++/15.2.0/bits/stl_uninitialized.h:469:       for (; __n--; ++__first)
	.loc 12 469 7 is_stmt 0 discriminator 1
	movq	40(%rbp), %rax	 # __n, __n.15_5
	leaq	-1(%rax), %rdx	 #, tmp108
	movq	%rdx, 40(%rbp)	 # tmp108, __n
	testq	%rax, %rax	 # __n.15_5
	setne	%al	 #, retval.14_12
	testb	%al, %al	 # retval.14_12
	jne	.L114	 #,
 # D:/msys64/ucrt64/include/c++/15.2.0/bits/stl_uninitialized.h:471:       __guard.release();
	.loc 12 471 22 is_stmt 1
	leaq	-32(%rbp), %rax	 #, tmp109
	movq	%rax, %rcx	 # tmp109,
	call	_ZNSt19_UninitDestroyGuardIPdvE7releaseEv	 #
 # D:/msys64/ucrt64/include/c++/15.2.0/bits/stl_uninitialized.h:472:       return __first;
	.loc 12 472 14
	movq	32(%rbp), %rbx	 # __first, _14
 # D:/msys64/ucrt64/include/c++/15.2.0/bits/stl_uninitialized.h:473:     }
	.loc 12 473 5
	leaq	-32(%rbp), %rax	 #, tmp110
	movq	%rax, %rcx	 # tmp110,
	call	_ZNSt19_UninitDestroyGuardIPdvED1Ev	 #
 # D:/msys64/ucrt64/include/c++/15.2.0/bits/stl_uninitialized.h:472:       return __first;
	.loc 12 472 14
	movq	%rbx, %rax	 # _14, <retval>
 # D:/msys64/ucrt64/include/c++/15.2.0/bits/stl_uninitialized.h:473:     }
	.loc 12 473 5
	addq	$72, %rsp	 #,
	popq	%rbx	 #
	.cfi_restore 3
	popq	%rbp	 #
	.cfi_restore 6
	.cfi_def_cfa 7, -56
	ret	
	.cfi_endproc
.LFE5613:
	.seh_endproc
	.section	.text$_ZSt20uninitialized_fill_nIPdydET_S1_T0_RKT1_,"x"
	.linkonce discard
	.globl	_ZSt20uninitialized_fill_nIPdydET_S1_T0_RKT1_
	.def	_ZSt20uninitialized_fill_nIPdydET_S1_T0_RKT1_;	.scl	2;	.type	32;	.endef
	.seh_proc	_ZSt20uninitialized_fill_nIPdydET_S1_T0_RKT1_
_ZSt20uninitialized_fill_nIPdydET_S1_T0_RKT1_:
.LFB5617:
	.loc 12 526 5
	.cfi_startproc
	pushq	%rbp	 #
	.seh_pushreg	%rbp
	.cfi_def_cfa_offset 16
	.cfi_offset 6, -16
	movq	%rsp, %rbp	 #,
	.seh_setframe	%rbp, 0
	.cfi_def_cfa_register 6
	subq	$32, %rsp	 #,
	.seh_stackalloc	32
	.seh_endprologue
	movq	%rcx, 16(%rbp)	 # __first, __first
	movq	%rdx, 24(%rbp)	 # __n, __n
	movq	%r8, 32(%rbp)	 # __x, __x
 # D:/msys64/ucrt64/include/c++/15.2.0/bits/stl_uninitialized.h:571:       return std::__do_uninit_fill_n(__first, __n, __x);
	.loc 12 571 37
	movq	32(%rbp), %rcx	 # __x, tmp100
	movq	24(%rbp), %rdx	 # __n, tmp101
	movq	16(%rbp), %rax	 # __first, tmp102
	movq	%rcx, %r8	 # tmp100,
	movq	%rax, %rcx	 # tmp102,
	call	_ZSt18__do_uninit_fill_nIPdydET_S1_T0_RKT1_	 #
 # D:/msys64/ucrt64/include/c++/15.2.0/bits/stl_uninitialized.h:580:     }
	.loc 12 580 5
	addq	$32, %rsp	 #,
	popq	%rbp	 #
	.cfi_restore 6
	.cfi_def_cfa 7, 8
	ret	
	.cfi_endproc
.LFE5617:
	.seh_endproc
	.section	.text$_ZSt10destroy_atIdEvPT_,"x"
	.linkonce discard
	.globl	_ZSt10destroy_atIdEvPT_
	.def	_ZSt10destroy_atIdEvPT_;	.scl	2;	.type	32;	.endef
	.seh_proc	_ZSt10destroy_atIdEvPT_
_ZSt10destroy_atIdEvPT_:
.LFB5619:
	.loc 13 80 5
	.cfi_startproc
	pushq	%rbp	 #
	.seh_pushreg	%rbp
	.cfi_def_cfa_offset 16
	.cfi_offset 6, -16
	movq	%rsp, %rbp	 #,
	.seh_setframe	%rbp, 0
	.cfi_def_cfa_register 6
	.seh_endprologue
	movq	%rcx, 16(%rbp)	 # __location, __location
 # D:/msys64/ucrt64/include/c++/15.2.0/bits/stl_construct.h:89:     }
	.loc 13 89 5
	nop	
	popq	%rbp	 #
	.cfi_restore 6
	.cfi_def_cfa 7, 8
	ret	
	.cfi_endproc
.LFE5619:
	.seh_endproc
	.section	.text$_ZNSt19_UninitDestroyGuardIPdvED1Ev,"x"
	.linkonce discard
	.align 2
	.globl	_ZNSt19_UninitDestroyGuardIPdvED1Ev
	.def	_ZNSt19_UninitDestroyGuardIPdvED1Ev;	.scl	2;	.type	32;	.endef
	.seh_proc	_ZNSt19_UninitDestroyGuardIPdvED1Ev
_ZNSt19_UninitDestroyGuardIPdvED1Ev:
.LFB5662:
	.loc 12 118 7
	.cfi_startproc
	pushq	%rbp	 #
	.seh_pushreg	%rbp
	.cfi_def_cfa_offset 16
	.cfi_offset 6, -16
	movq	%rsp, %rbp	 #,
	.seh_setframe	%rbp, 0
	.cfi_def_cfa_register 6
	subq	$32, %rsp	 #,
	.seh_stackalloc	32
	.seh_endprologue
	movq	%rcx, 16(%rbp)	 # this, this
.LBB148:
 # D:/msys64/ucrt64/include/c++/15.2.0/bits/stl_uninitialized.h:120: 	if (__builtin_expect(_M_cur != 0, 0))
	.loc 12 120 23
	movq	16(%rbp), %rax	 # this, tmp105
	movq	8(%rax), %rax	 # this_10(D)->_M_cur, _1
 # D:/msys64/ucrt64/include/c++/15.2.0/bits/stl_uninitialized.h:120: 	if (__builtin_expect(_M_cur != 0, 0))
	.loc 12 120 30
	testq	%rax, %rax	 # _1
	setne	%al	 #, _2
 # D:/msys64/ucrt64/include/c++/15.2.0/bits/stl_uninitialized.h:120: 	if (__builtin_expect(_M_cur != 0, 0))
	.loc 12 120 22
	movzbl	%al, %eax	 # _2, _3
 # D:/msys64/ucrt64/include/c++/15.2.0/bits/stl_uninitialized.h:120: 	if (__builtin_expect(_M_cur != 0, 0))
	.loc 12 120 2 discriminator 1
	testl	%eax, %eax	 # _4
	je	.L121	 #,
 # D:/msys64/ucrt64/include/c++/15.2.0/bits/stl_uninitialized.h:121: 	  std::_Destroy(_M_first, *_M_cur);
	.loc 12 121 29
	movq	16(%rbp), %rax	 # this, tmp106
	movq	8(%rax), %rax	 # this_10(D)->_M_cur, _5
 # D:/msys64/ucrt64/include/c++/15.2.0/bits/stl_uninitialized.h:121: 	  std::_Destroy(_M_first, *_M_cur);
	.loc 12 121 17
	movq	(%rax), %rdx	 # *_5, _6
 # D:/msys64/ucrt64/include/c++/15.2.0/bits/stl_uninitialized.h:121: 	  std::_Destroy(_M_first, *_M_cur);
	.loc 12 121 18
	movq	16(%rbp), %rax	 # this, tmp107
	movq	(%rax), %rax	 # this_10(D)->_M_first, _7
 # D:/msys64/ucrt64/include/c++/15.2.0/bits/stl_uninitialized.h:121: 	  std::_Destroy(_M_first, *_M_cur);
	.loc 12 121 17
	movq	%rax, %rcx	 # _7,
	call	_ZSt8_DestroyIPdEvT_S1_	 #
.L121:
.LBE148:
 # D:/msys64/ucrt64/include/c++/15.2.0/bits/stl_uninitialized.h:122:       }
	.loc 12 122 7
	nop	
	addq	$32, %rsp	 #,
	popq	%rbp	 #
	.cfi_restore 6
	.cfi_def_cfa 7, 8
	ret	
	.cfi_endproc
.LFE5662:
	.seh_endproc
	.section	.text$_ZSt10_ConstructIdJRKdEEvPT_DpOT0_,"x"
	.linkonce discard
	.globl	_ZSt10_ConstructIdJRKdEEvPT_DpOT0_
	.def	_ZSt10_ConstructIdJRKdEEvPT_DpOT0_;	.scl	2;	.type	32;	.endef
	.seh_proc	_ZSt10_ConstructIdJRKdEEvPT_DpOT0_
_ZSt10_ConstructIdJRKdEEvPT_DpOT0_:
.LFB5663:
	.loc 13 123 5
	.cfi_startproc
	pushq	%rbp	 #
	.seh_pushreg	%rbp
	.cfi_def_cfa_offset 16
	.cfi_offset 6, -16
	pushq	%rbx	 #
	.seh_pushreg	%rbx
	.cfi_def_cfa_offset 24
	.cfi_offset 3, -24
	subq	$56, %rsp	 #,
	.seh_stackalloc	56
	.cfi_def_cfa_offset 80
	leaq	48(%rsp), %rbp	 #,
	.seh_setframe	%rbp, 48
	.cfi_def_cfa 6, 32
	.seh_endprologue
	movq	%rcx, 32(%rbp)	 # __p, __p
	movq	%rdx, 40(%rbp)	 # __args#0, __args#0
.LBB149:
.LBB150:
 # D:/msys64/ucrt64/include/c++/15.2.0/x86_64-w64-mingw32/bits/c++config.h:589:     return __builtin_is_constant_evaluated();
	.loc 11 589 44
	movl	$0, %eax	 #, D.96184
.LBE150:
.LBE149:
 # D:/msys64/ucrt64/include/c++/15.2.0/bits/stl_construct.h:126:       if (std::__is_constant_evaluated())
	.loc 13 126 7 discriminator 1
	testb	%al, %al	 # D.96184
	je	.L124	 #,
	movq	40(%rbp), %rax	 # __args#0, tmp106
	movq	%rax, -8(%rbp)	 # tmp106, __t
.LBB151:
.LBB152:
 # D:/msys64/ucrt64/include/c++/15.2.0/bits/move.h:73:     { return static_cast<_Tp&&>(__t); }
	.loc 14 73 36
	movq	-8(%rbp), %rdx	 # __t, D.96188
.LBE152:
.LBE151:
 # D:/msys64/ucrt64/include/c++/15.2.0/bits/stl_construct.h:129: 	  std::construct_at(__p, std::forward<_Args>(__args)...);
	.loc 13 129 21 discriminator 1
	movq	32(%rbp), %rax	 # __p, tmp107
	movq	%rax, %rcx	 # tmp107,
	call	_ZSt12construct_atIdJRKdEQaant20is_unbounded_array_vIT_ErqXgsnwcvPvLi0E_S2_pispcl7declvalIT0_EEEEEPS2_S5_DpOS4_	 #
 # D:/msys64/ucrt64/include/c++/15.2.0/bits/stl_construct.h:130: 	  return;
	.loc 13 130 4
	jmp	.L122	 #
.L124:
 # D:/msys64/ucrt64/include/c++/15.2.0/bits/stl_construct.h:133:       ::new(static_cast<void*>(__p)) _Tp(std::forward<_Args>(__args)...);
	.loc 13 133 13
	movq	32(%rbp), %rbx	 # __p, _8
 # D:/msys64/ucrt64/include/c++/15.2.0/bits/stl_construct.h:133:       ::new(static_cast<void*>(__p)) _Tp(std::forward<_Args>(__args)...);
	.loc 13 133 7
	movq	%rbx, %rdx	 # _8,
	movl	$8, %ecx	 #,
	call	_ZnwyPv	 #
	movq	40(%rbp), %rdx	 # __args#0, tmp108
	movq	%rdx, -16(%rbp)	 # tmp108, __t
.LBB153:
.LBB154:
 # D:/msys64/ucrt64/include/c++/15.2.0/bits/move.h:73:     { return static_cast<_Tp&&>(__t); }
	.loc 14 73 36
	movq	-16(%rbp), %rdx	 # __t, D.96192
.LBE154:
.LBE153:
 # D:/msys64/ucrt64/include/c++/15.2.0/bits/stl_construct.h:133:       ::new(static_cast<void*>(__p)) _Tp(std::forward<_Args>(__args)...);
	.loc 13 133 7 discriminator 2
	movsd	(%rdx), %xmm0	 # *_2, _3
	movsd	%xmm0, (%rax)	 # _3, MEM[(double *)_10]
	movl	$0, %edx	 #, _14
	testb	%dl, %dl	 # _14
	je	.L122	 #,
 # D:/msys64/ucrt64/include/c++/15.2.0/bits/stl_construct.h:133:       ::new(static_cast<void*>(__p)) _Tp(std::forward<_Args>(__args)...);
	.loc 13 133 7 is_stmt 0 discriminator 3
	movq	%rbx, %rdx	 # _8,
	movq	%rax, %rcx	 # _10,
	call	_ZdlPvS_	 #
	nop	
.L122:
 # D:/msys64/ucrt64/include/c++/15.2.0/bits/stl_construct.h:134:     }
	.loc 13 134 5 is_stmt 1
	addq	$56, %rsp	 #,
	popq	%rbx	 #
	.cfi_restore 3
	popq	%rbp	 #
	.cfi_restore 6
	.cfi_def_cfa 7, -40
	ret	
	.cfi_endproc
.LFE5663:
	.seh_endproc
	.section	.text$_ZNSt19_UninitDestroyGuardIPdvE7releaseEv,"x"
	.linkonce discard
	.align 2
	.globl	_ZNSt19_UninitDestroyGuardIPdvE7releaseEv
	.def	_ZNSt19_UninitDestroyGuardIPdvE7releaseEv;	.scl	2;	.type	32;	.endef
	.seh_proc	_ZNSt19_UninitDestroyGuardIPdvE7releaseEv
_ZNSt19_UninitDestroyGuardIPdvE7releaseEv:
.LFB5664:
	.loc 12 125 12
	.cfi_startproc
	pushq	%rbp	 #
	.seh_pushreg	%rbp
	.cfi_def_cfa_offset 16
	.cfi_offset 6, -16
	movq	%rsp, %rbp	 #,
	.seh_setframe	%rbp, 0
	.cfi_def_cfa_register 6
	.seh_endprologue
	movq	%rcx, 16(%rbp)	 # this, this
 # D:/msys64/ucrt64/include/c++/15.2.0/bits/stl_uninitialized.h:125:       void release() { _M_cur = 0; }
	.loc 12 125 31
	movq	16(%rbp), %rax	 # this, tmp98
	movq	$0, 8(%rax)	 #, this_2(D)->_M_cur
 # D:/msys64/ucrt64/include/c++/15.2.0/bits/stl_uninitialized.h:125:       void release() { _M_cur = 0; }
	.loc 12 125 36
	nop	
	popq	%rbp	 #
	.cfi_restore 6
	.cfi_def_cfa 7, 8
	ret	
	.cfi_endproc
.LFE5664:
	.seh_endproc
	.section	.text$_ZNSt15__new_allocatorIdE10deallocateEPdy,"x"
	.linkonce discard
	.align 2
	.globl	_ZNSt15__new_allocatorIdE10deallocateEPdy
	.def	_ZNSt15__new_allocatorIdE10deallocateEPdy;	.scl	2;	.type	32;	.endef
	.seh_proc	_ZNSt15__new_allocatorIdE10deallocateEPdy
_ZNSt15__new_allocatorIdE10deallocateEPdy:
.LFB5683:
	.loc 5 156 7
	.cfi_startproc
	pushq	%rbp	 #
	.seh_pushreg	%rbp
	.cfi_def_cfa_offset 16
	.cfi_offset 6, -16
	movq	%rsp, %rbp	 #,
	.seh_setframe	%rbp, 0
	.cfi_def_cfa_register 6
	subq	$32, %rsp	 #,
	.seh_stackalloc	32
	.seh_endprologue
	movq	%rcx, 16(%rbp)	 # this, this
	movq	%rdx, 24(%rbp)	 # __p, __p
	movq	%r8, 32(%rbp)	 # __n, __n
 # D:/msys64/ucrt64/include/c++/15.2.0/bits/new_allocator.h:172: 	_GLIBCXX_OPERATOR_DELETE(_GLIBCXX_SIZED_DEALLOC(__p, __n));
	.loc 5 172 54
	movq	32(%rbp), %rax	 # __n, tmp99
	leaq	0(,%rax,8), %rdx	 #, _2
	movq	24(%rbp), %rax	 # __p, tmp100
	movq	%rax, %rcx	 # tmp100,
	call	_ZdlPvy	 #
	nop	
 # D:/msys64/ucrt64/include/c++/15.2.0/bits/new_allocator.h:173:       }
	.loc 5 173 7
	addq	$32, %rsp	 #,
	popq	%rbp	 #
	.cfi_restore 6
	.cfi_def_cfa 7, 8
	ret	
	.cfi_endproc
.LFE5683:
	.seh_endproc
	.section	.text$_ZSt12construct_atIdJRKdEQaant20is_unbounded_array_vIT_ErqXgsnwcvPvLi0E_S2_pispcl7declvalIT0_EEEEEPS2_S5_DpOS4_,"x"
	.linkonce discard
	.globl	_ZSt12construct_atIdJRKdEQaant20is_unbounded_array_vIT_ErqXgsnwcvPvLi0E_S2_pispcl7declvalIT0_EEEEEPS2_S5_DpOS4_
	.def	_ZSt12construct_atIdJRKdEQaant20is_unbounded_array_vIT_ErqXgsnwcvPvLi0E_S2_pispcl7declvalIT0_EEEEEPS2_S5_DpOS4_;	.scl	2;	.type	32;	.endef
	.seh_proc	_ZSt12construct_atIdJRKdEQaant20is_unbounded_array_vIT_ErqXgsnwcvPvLi0E_S2_pispcl7declvalIT0_EEEEEPS2_S5_DpOS4_
_ZSt12construct_atIdJRKdEQaant20is_unbounded_array_vIT_ErqXgsnwcvPvLi0E_S2_pispcl7declvalIT0_EEEEEPS2_S5_DpOS4_:
.LFB5685:
	.loc 13 96 5
	.cfi_startproc
	pushq	%rbp	 #
	.seh_pushreg	%rbp
	.cfi_def_cfa_offset 16
	.cfi_offset 6, -16
	pushq	%rsi	 #
	.seh_pushreg	%rsi
	.cfi_def_cfa_offset 24
	.cfi_offset 4, -24
	pushq	%rbx	 #
	.seh_pushreg	%rbx
	.cfi_def_cfa_offset 32
	.cfi_offset 3, -32
	subq	$48, %rsp	 #,
	.seh_stackalloc	48
	.cfi_def_cfa_offset 80
	leaq	48(%rsp), %rbp	 #,
	.seh_setframe	%rbp, 48
	.cfi_def_cfa 6, 32
	.seh_endprologue
	movq	%rcx, 32(%rbp)	 # __location, __location
	movq	%rdx, 40(%rbp)	 # __args#0, __args#0
 # D:/msys64/ucrt64/include/c++/15.2.0/bits/stl_construct.h:99:       void* __loc = __location;
	.loc 13 99 13
	movq	32(%rbp), %rax	 # __location, tmp105
	movq	%rax, -8(%rbp)	 # tmp105, __loc
 # D:/msys64/ucrt64/include/c++/15.2.0/bits/stl_construct.h:110: 	return ::new(__loc) _Tp(std::forward<_Args>(__args)...);
	.loc 13 110 15
	movq	-8(%rbp), %rsi	 # __loc, _6
 # D:/msys64/ucrt64/include/c++/15.2.0/bits/stl_construct.h:110: 	return ::new(__loc) _Tp(std::forward<_Args>(__args)...);
	.loc 13 110 9
	movq	%rsi, %rdx	 # _6,
	movl	$8, %ecx	 #,
	call	_ZnwyPv	 #
	movq	%rax, %rbx	 #, _9
	movq	40(%rbp), %rax	 # __args#0, tmp106
	movq	%rax, -16(%rbp)	 # tmp106, __t
.LBB155:
.LBB156:
 # D:/msys64/ucrt64/include/c++/15.2.0/bits/move.h:73:     { return static_cast<_Tp&&>(__t); }
	.loc 14 73 36
	movq	-16(%rbp), %rax	 # __t, D.96181
.LBE156:
.LBE155:
 # D:/msys64/ucrt64/include/c++/15.2.0/bits/stl_construct.h:110: 	return ::new(__loc) _Tp(std::forward<_Args>(__args)...);
	.loc 13 110 9 discriminator 2
	movsd	(%rax), %xmm0	 # *_1, _2
	movsd	%xmm0, (%rbx)	 # _2, MEM[(double *)_9]
 # D:/msys64/ucrt64/include/c++/15.2.0/bits/stl_construct.h:110: 	return ::new(__loc) _Tp(std::forward<_Args>(__args)...);
	.loc 13 110 56 discriminator 2
	movl	$0, %eax	 #, _13
 # D:/msys64/ucrt64/include/c++/15.2.0/bits/stl_construct.h:110: 	return ::new(__loc) _Tp(std::forward<_Args>(__args)...);
	.loc 13 110 56 is_stmt 0 discriminator 3
	testb	%al, %al	 # _13
	je	.L134	 #,
 # D:/msys64/ucrt64/include/c++/15.2.0/bits/stl_construct.h:110: 	return ::new(__loc) _Tp(std::forward<_Args>(__args)...);
	.loc 13 110 9 is_stmt 1 discriminator 4
	movq	%rsi, %rdx	 # _6,
	movq	%rbx, %rcx	 # _9,
	call	_ZdlPvS_	 #
.L134:
 # D:/msys64/ucrt64/include/c++/15.2.0/bits/stl_construct.h:110: 	return ::new(__loc) _Tp(std::forward<_Args>(__args)...);
	.loc 13 110 56 discriminator 8
	movq	%rbx, %rax	 # _9, <retval>
 # D:/msys64/ucrt64/include/c++/15.2.0/bits/stl_construct.h:111:     }
	.loc 13 111 5
	addq	$48, %rsp	 #,
	popq	%rbx	 #
	.cfi_restore 3
	popq	%rsi	 #
	.cfi_restore 4
	popq	%rbp	 #
	.cfi_restore 6
	.cfi_def_cfa 7, -24
	ret	
	.cfi_endproc
.LFE5685:
	.seh_endproc
	.weak	_ZSt12construct_atIdJRKdEEPT_S3_DpOT0_
	.def	_ZSt12construct_atIdJRKdEEPT_S3_DpOT0_;	.scl	2;	.type	32;	.endef
	.set	_ZSt12construct_atIdJRKdEEPT_S3_DpOT0_,_ZSt12construct_atIdJRKdEQaant20is_unbounded_array_vIT_ErqXgsnwcvPvLi0E_S2_pispcl7declvalIT0_EEEEEPS2_S5_DpOS4_
	.section	.text$_ZNSt15__new_allocatorIdE8allocateEyPKv,"x"
	.linkonce discard
	.align 2
	.globl	_ZNSt15__new_allocatorIdE8allocateEyPKv
	.def	_ZNSt15__new_allocatorIdE8allocateEyPKv;	.scl	2;	.type	32;	.endef
	.seh_proc	_ZNSt15__new_allocatorIdE8allocateEyPKv
_ZNSt15__new_allocatorIdE8allocateEyPKv:
.LFB5695:
	.loc 5 126 7
	.cfi_startproc
	pushq	%rbp	 #
	.seh_pushreg	%rbp
	.cfi_def_cfa_offset 16
	.cfi_offset 6, -16
	movq	%rsp, %rbp	 #,
	.seh_setframe	%rbp, 0
	.cfi_def_cfa_register 6
	subq	$48, %rsp	 #,
	.seh_stackalloc	48
	.seh_endprologue
	movq	%rcx, 16(%rbp)	 # this, this
	movq	%rdx, 24(%rbp)	 # __n, __n
	movq	%r8, 32(%rbp)	 # D.95770, D.95770
	movq	16(%rbp), %rax	 # this, tmp106
	movq	%rax, -8(%rbp)	 # tmp106, this
.LBB157:
.LBB158:
 # D:/msys64/ucrt64/include/c++/15.2.0/bits/new_allocator.h:233: 	return std::size_t(__PTRDIFF_MAX__) / sizeof(_Tp);
	.loc 5 233 55
	movabsq	$1152921504606846975, %rax	 #, D.96200
.LBE158:
.LBE157:
 # D:/msys64/ucrt64/include/c++/15.2.0/bits/new_allocator.h:134: 	if (__builtin_expect(__n > this->_M_max_size(), false))
	.loc 5 134 27 discriminator 1
	cmpq	24(%rbp), %rax	 # __n, D.96200
	setb	%al	 #, _2
 # D:/msys64/ucrt64/include/c++/15.2.0/bits/new_allocator.h:134: 	if (__builtin_expect(__n > this->_M_max_size(), false))
	.loc 5 134 22 discriminator 1
	movzbl	%al, %eax	 # _2, _3
 # D:/msys64/ucrt64/include/c++/15.2.0/bits/new_allocator.h:134: 	if (__builtin_expect(__n > this->_M_max_size(), false))
	.loc 5 134 22 is_stmt 0 discriminator 2
	testl	%eax, %eax	 # _4
	setne	%al	 #, retval.10_9
 # D:/msys64/ucrt64/include/c++/15.2.0/bits/new_allocator.h:134: 	if (__builtin_expect(__n > this->_M_max_size(), false))
	.loc 5 134 2 is_stmt 1 discriminator 2
	testb	%al, %al	 # retval.10_9
	je	.L137	 #,
 # D:/msys64/ucrt64/include/c++/15.2.0/bits/new_allocator.h:138: 	    if (__n > (std::size_t(-1) / sizeof(_Tp)))
	.loc 5 138 6
	movabsq	$2305843009213693951, %rax	 #, tmp107
	cmpq	24(%rbp), %rax	 # __n, tmp107
	jnb	.L138	 #,
 # D:/msys64/ucrt64/include/c++/15.2.0/bits/new_allocator.h:139: 	      std::__throw_bad_array_new_length();
	.loc 5 139 41
	call	_ZSt28__throw_bad_array_new_lengthv	 #
.L138:
 # D:/msys64/ucrt64/include/c++/15.2.0/bits/new_allocator.h:140: 	    std::__throw_bad_alloc();
	.loc 5 140 28
	call	_ZSt17__throw_bad_allocv	 #
.L137:
 # D:/msys64/ucrt64/include/c++/15.2.0/bits/new_allocator.h:151: 	return static_cast<_Tp*>(_GLIBCXX_OPERATOR_NEW(__n * sizeof(_Tp)));
	.loc 5 151 67
	movq	24(%rbp), %rax	 # __n, tmp108
	salq	$3, %rax	 #, _6
	movq	%rax, %rcx	 # _6,
	call	_Znwy	 #
 # D:/msys64/ucrt64/include/c++/15.2.0/bits/new_allocator.h:151: 	return static_cast<_Tp*>(_GLIBCXX_OPERATOR_NEW(__n * sizeof(_Tp)));
	.loc 5 151 68
	nop	
 # D:/msys64/ucrt64/include/c++/15.2.0/bits/new_allocator.h:152:       }
	.loc 5 152 7
	addq	$48, %rsp	 #,
	popq	%rbp	 #
	.cfi_restore 6
	.cfi_def_cfa 7, 8
	ret	
	.cfi_endproc
.LFE5695:
	.seh_endproc
	.globl	_ZTISt16invalid_argument
	.section	.rdata$_ZTISt16invalid_argument,"dr"
	.linkonce same_size
	.align 8
_ZTISt16invalid_argument:
 # <anonymous>:
 # <anonymous>:
	.quad	_ZTVN10__cxxabiv120__si_class_type_infoE+16
 # <anonymous>:
	.quad	_ZTSSt16invalid_argument
 # <anonymous>:
	.quad	_ZTISt11logic_error
	.globl	_ZTSSt16invalid_argument
	.section	.rdata$_ZTSSt16invalid_argument,"dr"
	.linkonce same_size
	.align 16
_ZTSSt16invalid_argument:
	.ascii "St16invalid_argument\0"
	.globl	_ZTISt11logic_error
	.section	.rdata$_ZTISt11logic_error,"dr"
	.linkonce same_size
	.align 8
_ZTISt11logic_error:
 # <anonymous>:
 # <anonymous>:
	.quad	_ZTVN10__cxxabiv120__si_class_type_infoE+16
 # <anonymous>:
	.quad	_ZTSSt11logic_error
 # <anonymous>:
	.quad	_ZTISt9exception
	.globl	_ZTSSt11logic_error
	.section	.rdata$_ZTSSt11logic_error,"dr"
	.linkonce same_size
	.align 16
_ZTSSt11logic_error:
	.ascii "St11logic_error\0"
	.globl	_ZTISt9exception
	.section	.rdata$_ZTISt9exception,"dr"
	.linkonce same_size
	.align 8
_ZTISt9exception:
 # <anonymous>:
 # <anonymous>:
	.quad	_ZTVN10__cxxabiv117__class_type_infoE+16
 # <anonymous>:
	.quad	_ZTSSt9exception
	.globl	_ZTSSt9exception
	.section	.rdata$_ZTSSt9exception,"dr"
	.linkonce same_size
	.align 8
_ZTSSt9exception:
	.ascii "St9exception\0"
	.section .rdata,"dr"
	.align 16
.LC0:
	.long	-1
	.long	2147483647
	.long	0
	.long	0
	.align 8
.LC4:
	.long	0
	.long	1072693248
	.align 8
.LC5:
	.long	0
	.long	1073741824
	.align 8
.LC6:
	.long	0
	.long	1074266112
	.align 8
.LC7:
	.long	0
	.long	1074790400
	.align 8
.LC15:
	.long	0
	.long	1079574528
	.align 8
.LC18:
	.long	0
	.long	1071644672
	.text
.Letext0:
	.file 15 "D:/msys64/ucrt64/include/c++/15.2.0/bits/utility.h"
	.file 16 "D:/msys64/ucrt64/include/c++/15.2.0/concepts"
	.file 17 "D:/msys64/ucrt64/include/c++/15.2.0/bits/iterator_concepts.h"
	.file 18 "D:/msys64/ucrt64/include/c++/15.2.0/compare"
	.file 19 "D:/msys64/ucrt64/include/c++/15.2.0/span"
	.file 20 "D:/msys64/ucrt64/include/c++/15.2.0/debug/debug.h"
	.file 21 "D:/msys64/ucrt64/include/c++/15.2.0/numbers"
	.file 22 "D:/msys64/ucrt64/include/c++/15.2.0/bits/memory_resource.h"
	.file 23 "D:/msys64/ucrt64/include/c++/15.2.0/bits/exception_ptr.h"
	.file 24 "D:/msys64/ucrt64/include/c++/15.2.0/cstddef"
	.file 25 "D:/msys64/ucrt64/include/c++/15.2.0/cwchar"
	.file 26 "D:/msys64/ucrt64/include/c++/15.2.0/bits/char_traits.h"
	.file 27 "D:/msys64/ucrt64/include/c++/15.2.0/clocale"
	.file 28 "D:/msys64/ucrt64/include/c++/15.2.0/string_view"
	.file 29 "D:/msys64/ucrt64/include/c++/15.2.0/cstdlib"
	.file 30 "D:/msys64/ucrt64/include/c++/15.2.0/cstdio"
	.file 31 "D:/msys64/ucrt64/include/c++/15.2.0/bits/basic_string.h"
	.file 32 "D:/msys64/ucrt64/include/c++/15.2.0/initializer_list"
	.file 33 "D:/msys64/ucrt64/include/c++/15.2.0/system_error"
	.file 34 "D:/msys64/ucrt64/include/c++/15.2.0/cwctype"
	.file 35 "D:/msys64/ucrt64/include/c++/15.2.0/bits/ostream.h"
	.file 36 "D:/msys64/ucrt64/include/c++/15.2.0/iosfwd"
	.file 37 "D:/msys64/ucrt64/include/c++/15.2.0/bits/vector.tcc"
	.file 38 "D:/msys64/ucrt64/include/c++/15.2.0/cmath"
	.file 39 "D:/msys64/ucrt64/include/c++/15.2.0/cstdint"
	.file 40 "D:/msys64/ucrt64/include/c++/15.2.0/bits/random.h"
	.file 41 "D:/msys64/ucrt64/include/c++/15.2.0/bits/stl_iterator_base_types.h"
	.file 42 "D:/msys64/ucrt64/include/c++/15.2.0/bits/random.tcc"
	.file 43 "D:/msys64/ucrt64/include/c++/15.2.0/stdexcept"
	.file 44 "D:/msys64/ucrt64/include/c++/15.2.0/bits/functexcept.h"
	.file 45 "D:/msys64/ucrt64/include/c++/15.2.0/ostream"
	.file 46 "D:/msys64/ucrt64/include/c++/15.2.0/bits/predefined_ops.h"
	.file 47 "D:/msys64/ucrt64/include/c++/15.2.0/ext/alloc_traits.h"
	.file 48 "D:/msys64/ucrt64/include/c++/15.2.0/bits/stl_iterator.h"
	.file 49 "D:/msys64/ucrt64/include/c++/15.2.0/bits/ptr_traits.h"
	.file 50 "D:/msys64/ucrt64/include/corecrt.h"
	.file 51 "D:/msys64/ucrt64/include/stddef.h"
	.file 52 "D:/msys64/ucrt64/include/wchar.h"
	.file 53 "D:/msys64/ucrt64/include/swprintf.inl"
	.file 54 "D:/msys64/ucrt64/include/stdio.h"
	.file 55 "D:/msys64/ucrt64/include/locale.h"
	.file 56 "D:/msys64/ucrt64/include/stdlib.h"
	.file 57 "D:/msys64/ucrt64/include/wctype.h"
	.file 58 "D:/msys64/ucrt64/include/corecrt_wctype.h"
	.file 59 "E:/Projects/Simulation_Projects/cva_cpp/includes_hpp/math/random.hpp"
	.file 60 "D:/msys64/ucrt64/include/math.h"
	.file 61 "D:/msys64/ucrt64/include/stdint.h"
	.file 62 "D:/msys64/ucrt64/include/c++/15.2.0/pstl/execution_defs.h"
	.file 63 "D:/msys64/ucrt64/include/c++/15.2.0/stdlib.h"
	.file 64 "D:/msys64/ucrt64/include/assert.h"
	.file 65 "D:/msys64/ucrt64/include/c++/15.2.0/iostream"
	.section	.rdata$.refptr._ZSt4endlIcSt11char_traitsIcEERSt13basic_ostreamIT_T0_ES6_, "dr"
	.p2align	3, 0
	.globl	.refptr._ZSt4endlIcSt11char_traitsIcEERSt13basic_ostreamIT_T0_ES6_
	.linkonce	discard
.refptr._ZSt4endlIcSt11char_traitsIcEERSt13basic_ostreamIT_T0_ES6_:
	.quad	_ZSt4endlIcSt11char_traitsIcEERSt13basic_ostreamIT_T0_ES6_
	.section	.rdata$.refptr._ZSt4cout, "dr"
	.p2align	3, 0
	.globl	.refptr._ZSt4cout
	.linkonce	discard
.refptr._ZSt4cout:
	.quad	_ZSt4cout
	.section	.rdata$.refptr._ZNSt16invalid_argumentD1Ev, "dr"
	.p2align	3, 0
	.globl	.refptr._ZNSt16invalid_argumentD1Ev
	.linkonce	discard
.refptr._ZNSt16invalid_argumentD1Ev:
	.quad	_ZNSt16invalid_argumentD1Ev
