	.file	"cva_calculator.cpp"
 # GNU C++20 (Rev8, Built by MSYS2 project) version 15.2.0 (x86_64-w64-mingw32)
 #	compiled by GNU C version 15.2.0, GMP version 6.3.0, MPFR version 4.2.2, MPC version 1.3.1, isl version isl-0.27-GMP

 # GGC heuristics: --param ggc-min-expand=100 --param ggc-min-heapsize=131072
 # options passed: -mtune=generic -march=nocona -g -std=c++20
	.text
.Ltext0:
	.cfi_sections	.debug_frame
	.file 0 "E://Projects//Simulation_Projects//cva_cpp//build" "E:/Projects/Simulation_Projects/cva_cpp/src_cpp/cva/cva_calculator.cpp"
	.section	.text$_ZSt21is_constant_evaluatedv,"x"
	.linkonce discard
	.globl	_ZSt21is_constant_evaluatedv
	.def	_ZSt21is_constant_evaluatedv;	.scl	2;	.type	32;	.endef
	.seh_proc	_ZSt21is_constant_evaluatedv
_ZSt21is_constant_evaluatedv:
.LFB15:
	.file 1 "D:/msys64/ucrt64/include/c++/15.2.0/type_traits"
	.loc 1 4007 3
	.cfi_startproc
	pushq	%rbp	 #
	.seh_pushreg	%rbp
	.cfi_def_cfa_offset 16
	.cfi_offset 6, -16
	movq	%rsp, %rbp	 #,
	.seh_setframe	%rbp, 0
	.cfi_def_cfa_register 6
	.seh_endprologue
 # D:/msys64/ucrt64/include/c++/15.2.0/type_traits:4011:     return __builtin_is_constant_evaluated();
	.loc 1 4011 44
	movl	$0, %eax	 #, _1
 # D:/msys64/ucrt64/include/c++/15.2.0/type_traits:4013:   }
	.loc 1 4013 3
	popq	%rbp	 #
	.cfi_restore 6
	.cfi_def_cfa 7, 8
	ret	
	.cfi_endproc
.LFE15:
	.seh_endproc
	.section	.text$_ZnwyPv,"x"
	.linkonce discard
	.globl	_ZnwyPv
	.def	_ZnwyPv;	.scl	2;	.type	32;	.endef
	.seh_proc	_ZnwyPv
_ZnwyPv:
.LFB203:
	.file 2 "D:/msys64/ucrt64/include/c++/15.2.0/new"
	.loc 2 208 1
	.cfi_startproc
	pushq	%rbp	 #
	.seh_pushreg	%rbp
	.cfi_def_cfa_offset 16
	.cfi_offset 6, -16
	movq	%rsp, %rbp	 #,
	.seh_setframe	%rbp, 0
	.cfi_def_cfa_register 6
	.seh_endprologue
	movq	%rcx, 16(%rbp)	 # D.12411, D.12411
	movq	%rdx, 24(%rbp)	 # __p, __p
 # D:/msys64/ucrt64/include/c++/15.2.0/new:208: { return __p; }
	.loc 2 208 10
	movq	24(%rbp), %rax	 # __p, _2
 # D:/msys64/ucrt64/include/c++/15.2.0/new:208: { return __p; }
	.loc 2 208 15
	popq	%rbp	 #
	.cfi_restore 6
	.cfi_def_cfa 7, 8
	ret	
	.cfi_endproc
.LFE203:
	.seh_endproc
	.section	.text$_ZdlPvS_,"x"
	.linkonce discard
	.globl	_ZdlPvS_
	.def	_ZdlPvS_;	.scl	2;	.type	32;	.endef
	.seh_proc	_ZdlPvS_
_ZdlPvS_:
.LFB205:
	.loc 2 219 1
	.cfi_startproc
	pushq	%rbp	 #
	.seh_pushreg	%rbp
	.cfi_def_cfa_offset 16
	.cfi_offset 6, -16
	movq	%rsp, %rbp	 #,
	.seh_setframe	%rbp, 0
	.cfi_def_cfa_register 6
	.seh_endprologue
	movq	%rcx, 16(%rbp)	 # D.12419, D.12419
	movq	%rdx, 24(%rbp)	 # D.12420, D.12420
 # D:/msys64/ucrt64/include/c++/15.2.0/new:219: { }
	.loc 2 219 3
	nop	
	popq	%rbp	 #
	.cfi_restore 6
	.cfi_def_cfa 7, 8
	ret	
	.cfi_endproc
.LFE205:
	.seh_endproc
	.section	.text$_ZSt17__size_to_integery,"x"
	.linkonce discard
	.globl	_ZSt17__size_to_integery
	.def	_ZSt17__size_to_integery;	.scl	2;	.type	32;	.endef
	.seh_proc	_ZSt17__size_to_integery
_ZSt17__size_to_integery:
.LFB505:
	.file 3 "D:/msys64/ucrt64/include/c++/15.2.0/bits/stl_algobase.h"
	.loc 3 1028 45
	.cfi_startproc
	pushq	%rbp	 #
	.seh_pushreg	%rbp
	.cfi_def_cfa_offset 16
	.cfi_offset 6, -16
	movq	%rsp, %rbp	 #,
	.seh_setframe	%rbp, 0
	.cfi_def_cfa_register 6
	.seh_endprologue
	movq	%rcx, 16(%rbp)	 # __n, __n
 # D:/msys64/ucrt64/include/c++/15.2.0/bits/stl_algobase.h:1028:   __size_to_integer(unsigned long long __n) { return __n; }
	.loc 3 1028 54
	movq	16(%rbp), %rax	 # __n, _2
 # D:/msys64/ucrt64/include/c++/15.2.0/bits/stl_algobase.h:1028:   __size_to_integer(unsigned long long __n) { return __n; }
	.loc 3 1028 59
	popq	%rbp	 #
	.cfi_restore 6
	.cfi_def_cfa 7, 8
	ret	
	.cfi_endproc
.LFE505:
	.seh_endproc
	.section	.text$_ZNK3cva4math6Matrix4rowsEv,"x"
	.linkonce discard
	.align 2
	.globl	_ZNK3cva4math6Matrix4rowsEv
	.def	_ZNK3cva4math6Matrix4rowsEv;	.scl	2;	.type	32;	.endef
	.seh_proc	_ZNK3cva4math6Matrix4rowsEv
_ZNK3cva4math6Matrix4rowsEv:
.LFB2951:
	.file 4 "E:/Projects/Simulation_Projects/cva_cpp/includes_hpp/math/matrix.hpp"
	.loc 4 18 30
	.cfi_startproc
	pushq	%rbp	 #
	.seh_pushreg	%rbp
	.cfi_def_cfa_offset 16
	.cfi_offset 6, -16
	movq	%rsp, %rbp	 #,
	.seh_setframe	%rbp, 0
	.cfi_def_cfa_register 6
	.seh_endprologue
	movq	%rcx, 16(%rbp)	 # this, this
 # E:/Projects/Simulation_Projects/cva_cpp/includes_hpp/math/matrix.hpp:18:         [[nodiscard]] size_t rows() const { return rows_; }
	.loc 4 18 52
	movq	16(%rbp), %rax	 # this, tmp100
	movq	(%rax), %rax	 # this_2(D)->rows_, _3
 # E:/Projects/Simulation_Projects/cva_cpp/includes_hpp/math/matrix.hpp:18:         [[nodiscard]] size_t rows() const { return rows_; }
	.loc 4 18 59
	popq	%rbp	 #
	.cfi_restore 6
	.cfi_def_cfa 7, 8
	ret	
	.cfi_endproc
.LFE2951:
	.seh_endproc
	.section	.text$_ZNK3cva4math6Matrix4colsEv,"x"
	.linkonce discard
	.align 2
	.globl	_ZNK3cva4math6Matrix4colsEv
	.def	_ZNK3cva4math6Matrix4colsEv;	.scl	2;	.type	32;	.endef
	.seh_proc	_ZNK3cva4math6Matrix4colsEv
_ZNK3cva4math6Matrix4colsEv:
.LFB2952:
	.loc 4 19 30
	.cfi_startproc
	pushq	%rbp	 #
	.seh_pushreg	%rbp
	.cfi_def_cfa_offset 16
	.cfi_offset 6, -16
	movq	%rsp, %rbp	 #,
	.seh_setframe	%rbp, 0
	.cfi_def_cfa_register 6
	.seh_endprologue
	movq	%rcx, 16(%rbp)	 # this, this
 # E:/Projects/Simulation_Projects/cva_cpp/includes_hpp/math/matrix.hpp:19:         [[nodiscard]] size_t cols() const { return cols_; }
	.loc 4 19 52
	movq	16(%rbp), %rax	 # this, tmp100
	movq	8(%rax), %rax	 # this_2(D)->cols_, _3
 # E:/Projects/Simulation_Projects/cva_cpp/includes_hpp/math/matrix.hpp:19:         [[nodiscard]] size_t cols() const { return cols_; }
	.loc 4 19 59
	popq	%rbp	 #
	.cfi_restore 6
	.cfi_def_cfa 7, 8
	ret	
	.cfi_endproc
.LFE2952:
	.seh_endproc
	.section	.text$_ZNK3cva4math6MatrixclEyy,"x"
	.linkonce discard
	.align 2
	.globl	_ZNK3cva4math6MatrixclEyy
	.def	_ZNK3cva4math6MatrixclEyy;	.scl	2;	.type	32;	.endef
	.seh_proc	_ZNK3cva4math6MatrixclEyy
_ZNK3cva4math6MatrixclEyy:
.LFB2954:
	.loc 4 26 23
	.cfi_startproc
	pushq	%rbp	 #
	.seh_pushreg	%rbp
	.cfi_def_cfa_offset 16
	.cfi_offset 6, -16
	movq	%rsp, %rbp	 #,
	.seh_setframe	%rbp, 0
	.cfi_def_cfa_register 6
	subq	$32, %rsp	 #,
	.seh_stackalloc	32
	.seh_endprologue
	movq	%rcx, 16(%rbp)	 # this, this
	movq	%rdx, 24(%rbp)	 # i, i
	movq	%r8, 32(%rbp)	 # j, j
 # E:/Projects/Simulation_Projects/cva_cpp/includes_hpp/math/matrix.hpp:27:             return data_[i * cols_ + j];
	.loc 4 27 39
	movq	16(%rbp), %rax	 # this, tmp104
	addq	$16, %rax	 #, _1
 # E:/Projects/Simulation_Projects/cva_cpp/includes_hpp/math/matrix.hpp:27:             return data_[i * cols_ + j];
	.loc 4 27 30
	movq	16(%rbp), %rdx	 # this, tmp105
	movq	8(%rdx), %rdx	 # this_5(D)->cols_, _2
 # E:/Projects/Simulation_Projects/cva_cpp/includes_hpp/math/matrix.hpp:27:             return data_[i * cols_ + j];
	.loc 4 27 28
	movq	%rdx, %rcx	 # _2, _2
	imulq	24(%rbp), %rcx	 # i, _2
 # E:/Projects/Simulation_Projects/cva_cpp/includes_hpp/math/matrix.hpp:27:             return data_[i * cols_ + j];
	.loc 4 27 39
	movq	32(%rbp), %rdx	 # j, tmp106
	addq	%rcx, %rdx	 # _3, _4
	movq	%rax, %rcx	 # _1,
	call	_ZNKSt6vectorIdSaIdEEixEy	 #
 # E:/Projects/Simulation_Projects/cva_cpp/includes_hpp/math/matrix.hpp:28:         }
	.loc 4 28 9
	addq	$32, %rsp	 #,
	popq	%rbp	 #
	.cfi_restore 6
	.cfi_def_cfa 7, 8
	ret	
	.cfi_endproc
.LFE2954:
	.seh_endproc
	.section	.text$_ZNSt12_Vector_baseIdSaIdEE12_Vector_implD1Ev,"x"
	.linkonce discard
	.align 2
	.globl	_ZNSt12_Vector_baseIdSaIdEE12_Vector_implD1Ev
	.def	_ZNSt12_Vector_baseIdSaIdEE12_Vector_implD1Ev;	.scl	2;	.type	32;	.endef
	.seh_proc	_ZNSt12_Vector_baseIdSaIdEE12_Vector_implD1Ev
_ZNSt12_Vector_baseIdSaIdEE12_Vector_implD1Ev:
.LFB4927:
	.file 5 "D:/msys64/ucrt64/include/c++/15.2.0/bits/stl_vector.h"
	.loc 5 139 14
	.cfi_startproc
	pushq	%rbp	 #
	.seh_pushreg	%rbp
	.cfi_def_cfa_offset 16
	.cfi_offset 6, -16
	movq	%rsp, %rbp	 #,
	.seh_setframe	%rbp, 0
	.cfi_def_cfa_register 6
	subq	$16, %rsp	 #,
	.seh_stackalloc	16
	.seh_endprologue
	movq	%rcx, 16(%rbp)	 # this, this
	movq	16(%rbp), %rax	 # this, tmp98
	movq	%rax, -8(%rbp)	 # tmp98, this
.LBB354:
.LBB355:
.LBB356:
 # D:/msys64/ucrt64/include/c++/15.2.0/bits/allocator.h:189:       ~allocator() _GLIBCXX_NOTHROW { }
	.file 6 "D:/msys64/ucrt64/include/c++/15.2.0/bits/allocator.h"
	.loc 6 189 31
	nop	
.LBE356:
.LBE355:
.LBE354:
 # D:/msys64/ucrt64/include/c++/15.2.0/bits/stl_vector.h:139:       struct _Vector_impl
	.loc 5 139 14
	nop	
	addq	$16, %rsp	 #,
	popq	%rbp	 #
	.cfi_restore 6
	.cfi_def_cfa 7, 8
	ret	
	.cfi_endproc
.LFE4927:
	.seh_endproc
	.section	.text$_ZNSt12_Vector_baseIdSaIdEEC2Ev,"x"
	.linkonce discard
	.align 2
	.globl	_ZNSt12_Vector_baseIdSaIdEEC2Ev
	.def	_ZNSt12_Vector_baseIdSaIdEEC2Ev;	.scl	2;	.type	32;	.endef
	.seh_proc	_ZNSt12_Vector_baseIdSaIdEEC2Ev
_ZNSt12_Vector_baseIdSaIdEEC2Ev:
.LFB4928:
	.loc 5 321 7
	.cfi_startproc
	pushq	%rbp	 #
	.seh_pushreg	%rbp
	.cfi_def_cfa_offset 16
	.cfi_offset 6, -16
	movq	%rsp, %rbp	 #,
	.seh_setframe	%rbp, 0
	.cfi_def_cfa_register 6
	subq	$32, %rsp	 #,
	.seh_stackalloc	32
	.seh_endprologue
	movq	%rcx, 16(%rbp)	 # this, this
.LBB357:
 # D:/msys64/ucrt64/include/c++/15.2.0/bits/stl_vector.h:321:       _Vector_base() = default;
	.loc 5 321 7
	movq	16(%rbp), %rax	 # this, _1
	movq	%rax, %rcx	 # _1,
	call	_ZNSt12_Vector_baseIdSaIdEE12_Vector_implC1EvQ26is_default_constructible_vIN9__gnu_cxx14__alloc_traitsIT0_NS5_10value_typeEE6rebindIT_E5otherEE	 #
.LBE357:
	nop	
	addq	$32, %rsp	 #,
	popq	%rbp	 #
	.cfi_restore 6
	.cfi_def_cfa 7, 8
	ret	
	.cfi_endproc
.LFE4928:
	.seh_endproc
	.section	.text$_ZNSt6vectorIdSaIdEEC1Ev,"x"
	.linkonce discard
	.align 2
	.globl	_ZNSt6vectorIdSaIdEEC1Ev
	.def	_ZNSt6vectorIdSaIdEEC1Ev;	.scl	2;	.type	32;	.endef
	.seh_proc	_ZNSt6vectorIdSaIdEEC1Ev
_ZNSt6vectorIdSaIdEEC1Ev:
.LFB4931:
	.loc 5 561 7
	.cfi_startproc
	pushq	%rbp	 #
	.seh_pushreg	%rbp
	.cfi_def_cfa_offset 16
	.cfi_offset 6, -16
	movq	%rsp, %rbp	 #,
	.seh_setframe	%rbp, 0
	.cfi_def_cfa_register 6
	subq	$32, %rsp	 #,
	.seh_stackalloc	32
	.seh_endprologue
	movq	%rcx, 16(%rbp)	 # this, this
.LBB358:
 # D:/msys64/ucrt64/include/c++/15.2.0/bits/stl_vector.h:561:       vector() = default;
	.loc 5 561 7
	movq	16(%rbp), %rax	 # this, _1
	movq	%rax, %rcx	 # _1,
	call	_ZNSt12_Vector_baseIdSaIdEEC2Ev	 #
.LBE358:
	nop	
	addq	$32, %rsp	 #,
	popq	%rbp	 #
	.cfi_restore 6
	.cfi_def_cfa 7, 8
	ret	
	.cfi_endproc
.LFE4931:
	.seh_endproc
	.section	.text$_ZN3cva15ExposureProfileC1Ev,"x"
	.linkonce discard
	.align 2
	.globl	_ZN3cva15ExposureProfileC1Ev
	.def	_ZN3cva15ExposureProfileC1Ev;	.scl	2;	.type	32;	.endef
	.seh_proc	_ZN3cva15ExposureProfileC1Ev
_ZN3cva15ExposureProfileC1Ev:
.LFB4933:
	.file 7 "E:/Projects/Simulation_Projects/cva_cpp/includes_hpp/cva/cva_calculator.hpp"
	.loc 7 13 12
	.cfi_startproc
	pushq	%rbp	 #
	.seh_pushreg	%rbp
	.cfi_def_cfa_offset 16
	.cfi_offset 6, -16
	movq	%rsp, %rbp	 #,
	.seh_setframe	%rbp, 0
	.cfi_def_cfa_register 6
	subq	$32, %rsp	 #,
	.seh_stackalloc	32
	.seh_endprologue
	movq	%rcx, 16(%rbp)	 # this, this
.LBB359:
 # E:/Projects/Simulation_Projects/cva_cpp/includes_hpp/cva/cva_calculator.hpp:13:     struct ExposureProfile {
	.loc 7 13 12
	movq	16(%rbp), %rax	 # this, _1
	movq	%rax, %rcx	 # _1,
	call	_ZNSt6vectorIdSaIdEEC1Ev	 #
 # E:/Projects/Simulation_Projects/cva_cpp/includes_hpp/cva/cva_calculator.hpp:13:     struct ExposureProfile {
	.loc 7 13 12 is_stmt 0 discriminator 1
	movq	16(%rbp), %rax	 # this, tmp104
	addq	$24, %rax	 #, _2
	movq	%rax, %rcx	 # _2,
	call	_ZNSt6vectorIdSaIdEEC1Ev	 #
 # E:/Projects/Simulation_Projects/cva_cpp/includes_hpp/cva/cva_calculator.hpp:13:     struct ExposureProfile {
	.loc 7 13 12 discriminator 2
	movq	16(%rbp), %rax	 # this, tmp105
	addq	$48, %rax	 #, _3
	movq	%rax, %rcx	 # _3,
	call	_ZNSt6vectorIdSaIdEEC1Ev	 #
.LBE359:
 # E:/Projects/Simulation_Projects/cva_cpp/includes_hpp/cva/cva_calculator.hpp:13:     struct ExposureProfile {
	.loc 7 13 12
	nop	
	addq	$32, %rsp	 #,
	popq	%rbp	 #
	.cfi_restore 6
	.cfi_def_cfa 7, 8
	ret	
	.cfi_endproc
.LFE4933:
	.seh_endproc
	.section	.text$_ZNSt12_Vector_baseIdSaIdEE12_Vector_implC1EvQ26is_default_constructible_vIN9__gnu_cxx14__alloc_traitsIT0_NS5_10value_typeEE6rebindIT_E5otherEE,"x"
	.linkonce discard
	.align 2
	.globl	_ZNSt12_Vector_baseIdSaIdEE12_Vector_implC1EvQ26is_default_constructible_vIN9__gnu_cxx14__alloc_traitsIT0_NS5_10value_typeEE6rebindIT_E5otherEE
	.def	_ZNSt12_Vector_baseIdSaIdEE12_Vector_implC1EvQ26is_default_constructible_vIN9__gnu_cxx14__alloc_traitsIT0_NS5_10value_typeEE6rebindIT_E5otherEE;	.scl	2;	.type	32;	.endef
	.seh_proc	_ZNSt12_Vector_baseIdSaIdEE12_Vector_implC1EvQ26is_default_constructible_vIN9__gnu_cxx14__alloc_traitsIT0_NS5_10value_typeEE6rebindIT_E5otherEE
_ZNSt12_Vector_baseIdSaIdEE12_Vector_implC1EvQ26is_default_constructible_vIN9__gnu_cxx14__alloc_traitsIT0_NS5_10value_typeEE6rebindIT_E5otherEE:
.LFB4936:
	.loc 5 143 2 is_stmt 1
	.cfi_startproc
	pushq	%rbp	 #
	.seh_pushreg	%rbp
	.cfi_def_cfa_offset 16
	.cfi_offset 6, -16
	movq	%rsp, %rbp	 #,
	.seh_setframe	%rbp, 0
	.cfi_def_cfa_register 6
	subq	$48, %rsp	 #,
	.seh_stackalloc	48
	.seh_endprologue
	movq	%rcx, 16(%rbp)	 # this, this
	movq	16(%rbp), %rax	 # this, tmp99
	movq	%rax, -8(%rbp)	 # tmp99, this
	movq	-8(%rbp), %rax	 # this, tmp100
	movq	%rax, -16(%rbp)	 # tmp100, this
.LBB360:
.LBB361:
.LBB362:
.LBB363:
.LBB364:
.LBB365:
 # D:/msys64/ucrt64/include/c++/15.2.0/bits/new_allocator.h:88:       __new_allocator() _GLIBCXX_USE_NOEXCEPT { }
	.file 8 "D:/msys64/ucrt64/include/c++/15.2.0/bits/new_allocator.h"
	.loc 8 88 36
	nop	
.LBE365:
.LBE364:
.LBE363:
 # D:/msys64/ucrt64/include/c++/15.2.0/bits/allocator.h:168:       allocator() _GLIBCXX_NOTHROW { }
	.loc 6 168 30
	nop	
.LBE362:
.LBE361:
 # D:/msys64/ucrt64/include/c++/15.2.0/bits/stl_vector.h:148: 	: _Tp_alloc_type()
	.loc 5 148 19 discriminator 1
	movq	16(%rbp), %rax	 # this, _1
	movq	%rax, %rcx	 # _1,
	call	_ZNSt12_Vector_baseIdSaIdEE17_Vector_impl_dataC2Ev	 #
.LBE360:
 # D:/msys64/ucrt64/include/c++/15.2.0/bits/stl_vector.h:149: 	{ }
	.loc 5 149 4
	nop	
	addq	$48, %rsp	 #,
	popq	%rbp	 #
	.cfi_restore 6
	.cfi_def_cfa 7, 8
	ret	
	.cfi_endproc
.LFE4936:
	.seh_endproc
	.weak	_ZNSt12_Vector_baseIdSaIdEE12_Vector_implC1Ev
	.def	_ZNSt12_Vector_baseIdSaIdEE12_Vector_implC1Ev;	.scl	2;	.type	32;	.endef
	.set	_ZNSt12_Vector_baseIdSaIdEE12_Vector_implC1Ev,_ZNSt12_Vector_baseIdSaIdEE12_Vector_implC1EvQ26is_default_constructible_vIN9__gnu_cxx14__alloc_traitsIT0_NS5_10value_typeEE6rebindIT_E5otherEE
	.section	.text$_ZNSt12_Vector_baseIdSaIdEE17_Vector_impl_dataC2Ev,"x"
	.linkonce discard
	.align 2
	.globl	_ZNSt12_Vector_baseIdSaIdEE17_Vector_impl_dataC2Ev
	.def	_ZNSt12_Vector_baseIdSaIdEE17_Vector_impl_dataC2Ev;	.scl	2;	.type	32;	.endef
	.seh_proc	_ZNSt12_Vector_baseIdSaIdEE17_Vector_impl_dataC2Ev
_ZNSt12_Vector_baseIdSaIdEE17_Vector_impl_dataC2Ev:
.LFB4944:
	.loc 5 105 2
	.cfi_startproc
	pushq	%rbp	 #
	.seh_pushreg	%rbp
	.cfi_def_cfa_offset 16
	.cfi_offset 6, -16
	movq	%rsp, %rbp	 #,
	.seh_setframe	%rbp, 0
	.cfi_def_cfa_register 6
	.seh_endprologue
	movq	%rcx, 16(%rbp)	 # this, this
.LBB366:
 # D:/msys64/ucrt64/include/c++/15.2.0/bits/stl_vector.h:106: 	: _M_start(), _M_finish(), _M_end_of_storage()
	.loc 5 106 4
	movq	16(%rbp), %rax	 # this, tmp98
	movq	$0, (%rax)	 #, this_2(D)->_M_start
 # D:/msys64/ucrt64/include/c++/15.2.0/bits/stl_vector.h:106: 	: _M_start(), _M_finish(), _M_end_of_storage()
	.loc 5 106 16
	movq	16(%rbp), %rax	 # this, tmp99
	movq	$0, 8(%rax)	 #, this_2(D)->_M_finish
 # D:/msys64/ucrt64/include/c++/15.2.0/bits/stl_vector.h:106: 	: _M_start(), _M_finish(), _M_end_of_storage()
	.loc 5 106 29
	movq	16(%rbp), %rax	 # this, tmp100
	movq	$0, 16(%rax)	 #, this_2(D)->_M_end_of_storage
.LBE366:
 # D:/msys64/ucrt64/include/c++/15.2.0/bits/stl_vector.h:107: 	{ }
	.loc 5 107 4
	nop	
	popq	%rbp	 #
	.cfi_restore 6
	.cfi_def_cfa 7, 8
	ret	
	.cfi_endproc
.LFE4944:
	.seh_endproc
	.section	.text$_ZN3cva15ExposureProfileD1Ev,"x"
	.linkonce discard
	.align 2
	.globl	_ZN3cva15ExposureProfileD1Ev
	.def	_ZN3cva15ExposureProfileD1Ev;	.scl	2;	.type	32;	.endef
	.seh_proc	_ZN3cva15ExposureProfileD1Ev
_ZN3cva15ExposureProfileD1Ev:
.LFB4948:
	.loc 7 13 12
	.cfi_startproc
	pushq	%rbp	 #
	.seh_pushreg	%rbp
	.cfi_def_cfa_offset 16
	.cfi_offset 6, -16
	movq	%rsp, %rbp	 #,
	.seh_setframe	%rbp, 0
	.cfi_def_cfa_register 6
	subq	$32, %rsp	 #,
	.seh_stackalloc	32
	.seh_endprologue
	movq	%rcx, 16(%rbp)	 # this, this
.LBB367:
 # E:/Projects/Simulation_Projects/cva_cpp/includes_hpp/cva/cva_calculator.hpp:13:     struct ExposureProfile {
	.loc 7 13 12
	movq	16(%rbp), %rax	 # this, tmp101
	addq	$48, %rax	 #, _1
	movq	%rax, %rcx	 # _1,
	call	_ZNSt6vectorIdSaIdEED1Ev	 #
 # E:/Projects/Simulation_Projects/cva_cpp/includes_hpp/cva/cva_calculator.hpp:13:     struct ExposureProfile {
	.loc 7 13 12 is_stmt 0 discriminator 1
	movq	16(%rbp), %rax	 # this, tmp102
	addq	$24, %rax	 #, _2
	movq	%rax, %rcx	 # _2,
	call	_ZNSt6vectorIdSaIdEED1Ev	 #
 # E:/Projects/Simulation_Projects/cva_cpp/includes_hpp/cva/cva_calculator.hpp:13:     struct ExposureProfile {
	.loc 7 13 12 discriminator 2
	movq	16(%rbp), %rax	 # this, _3
	movq	%rax, %rcx	 # _3,
	call	_ZNSt6vectorIdSaIdEED1Ev	 #
.LBE367:
 # E:/Projects/Simulation_Projects/cva_cpp/includes_hpp/cva/cva_calculator.hpp:13:     struct ExposureProfile {
	.loc 7 13 12
	nop	
	addq	$32, %rsp	 #,
	popq	%rbp	 #
	.cfi_restore 6
	.cfi_def_cfa 7, 8
	ret	
	.cfi_endproc
.LFE4948:
	.seh_endproc
	.section	.text$_ZSt3maxIdERKT_S2_S2_,"x"
	.linkonce discard
	.globl	_ZSt3maxIdERKT_S2_S2_
	.def	_ZSt3maxIdERKT_S2_S2_;	.scl	2;	.type	32;	.endef
	.seh_proc	_ZSt3maxIdERKT_S2_S2_
_ZSt3maxIdERKT_S2_S2_:
.LFB4949:
	.loc 3 258 5 is_stmt 1
	.cfi_startproc
	pushq	%rbp	 #
	.seh_pushreg	%rbp
	.cfi_def_cfa_offset 16
	.cfi_offset 6, -16
	movq	%rsp, %rbp	 #,
	.seh_setframe	%rbp, 0
	.cfi_def_cfa_register 6
	.seh_endprologue
	movq	%rcx, 16(%rbp)	 # __a, __a
	movq	%rdx, 24(%rbp)	 # __b, __b
 # D:/msys64/ucrt64/include/c++/15.2.0/bits/stl_algobase.h:263:       if (__a < __b)
	.loc 3 263 15
	movq	16(%rbp), %rax	 # __a, tmp102
	movsd	(%rax), %xmm1	 # *__a_5(D), _1
	movq	24(%rbp), %rax	 # __b, tmp103
	movsd	(%rax), %xmm0	 # *__b_6(D), _2
 # D:/msys64/ucrt64/include/c++/15.2.0/bits/stl_algobase.h:263:       if (__a < __b)
	.loc 3 263 7
	comisd	%xmm1, %xmm0	 # _1, _2
	jbe	.L26	 #,
 # D:/msys64/ucrt64/include/c++/15.2.0/bits/stl_algobase.h:264: 	return __b;
	.loc 3 264 9
	movq	24(%rbp), %rax	 # __b, _3
	jmp	.L24	 #
.L26:
 # D:/msys64/ucrt64/include/c++/15.2.0/bits/stl_algobase.h:265:       return __a;
	.loc 3 265 14
	movq	16(%rbp), %rax	 # __a, _3
.L24:
 # D:/msys64/ucrt64/include/c++/15.2.0/bits/stl_algobase.h:266:     }
	.loc 3 266 5
	popq	%rbp	 #
	.cfi_restore 6
	.cfi_def_cfa 7, 8
	ret	
	.cfi_endproc
.LFE4949:
	.seh_endproc
	.text
	.align 2
	.globl	_ZN3cva10Calculator11compute_cvaERKNS_11instruments10InstrumentERKNS_4math6MatrixERKSt6vectorIdSaIdEEddd
	.def	_ZN3cva10Calculator11compute_cvaERKNS_11instruments10InstrumentERKNS_4math6MatrixERKSt6vectorIdSaIdEEddd;	.scl	2;	.type	32;	.endef
	.seh_proc	_ZN3cva10Calculator11compute_cvaERKNS_11instruments10InstrumentERKNS_4math6MatrixERKSt6vectorIdSaIdEEddd
_ZN3cva10Calculator11compute_cvaERKNS_11instruments10InstrumentERKNS_4math6MatrixERKSt6vectorIdSaIdEEddd:
.LFB4920:
	.file 9 "E:/Projects/Simulation_Projects/cva_cpp/src_cpp/cva/cva_calculator.cpp"
	.loc 9 15 7
	.cfi_startproc
	pushq	%rbp	 #
	.seh_pushreg	%rbp
	.cfi_def_cfa_offset 16
	.cfi_offset 6, -16
	pushq	%rbx	 #
	.seh_pushreg	%rbx
	.cfi_def_cfa_offset 24
	.cfi_offset 3, -24
	subq	$216, %rsp	 #,
	.seh_stackalloc	216
	.cfi_def_cfa_offset 240
	leaq	192(%rsp), %rbp	 #,
	.seh_setframe	%rbp, 192
	.cfi_def_cfa 6, 48
	movups	%xmm6, 0(%rbp)	 #,
	.seh_savexmm	%xmm6, 192
	.cfi_offset 23, -48
	.seh_endprologue
	movq	%rcx, 48(%rbp)	 # .result_ptr, .result_ptr
	movq	%rdx, 56(%rbp)	 # instrument, instrument
	movq	%r8, 64(%rbp)	 # paths, paths
	movq	%r9, 72(%rbp)	 # time_grid, time_grid
 # E:\Projects\Simulation_Projects\cva_cpp\src_cpp\cva\cva_calculator.cpp:16:         size_t n_paths = paths.rows();
	.loc 9 16 36
	movq	64(%rbp), %rax	 # paths, tmp130
	movq	%rax, %rcx	 # tmp130,
	call	_ZNK3cva4math6Matrix4rowsEv	 #
	movq	%rax, -40(%rbp)	 # tmp131, n_paths
 # E:\Projects\Simulation_Projects\cva_cpp\src_cpp\cva\cva_calculator.cpp:17:         size_t n_steps = paths.cols(); // includes t=0
	.loc 9 17 36
	movq	64(%rbp), %rax	 # paths, tmp132
	movq	%rax, %rcx	 # tmp132,
	call	_ZNK3cva4math6Matrix4colsEv	 #
	movq	%rax, -48(%rbp)	 # tmp133, n_steps
 # E:\Projects\Simulation_Projects\cva_cpp\src_cpp\cva\cva_calculator.cpp:19:         ExposureProfile profile;
	.loc 9 19 25
	movq	48(%rbp), %rax	 # <retval>, tmp134
	movq	%rax, %rcx	 # tmp134,
	call	_ZN3cva15ExposureProfileC1Ev	 #
 # E:\Projects\Simulation_Projects\cva_cpp\src_cpp\cva\cva_calculator.cpp:20:         profile.time_grid = time_grid;
	.loc 9 20 29
	movq	48(%rbp), %rax	 # <retval>, _1
	movq	72(%rbp), %rdx	 # time_grid, tmp135
	movq	%rax, %rcx	 # _1,
.LEHB0:
	call	_ZNSt6vectorIdSaIdEEaSERKS1_	 #
 # E:\Projects\Simulation_Projects\cva_cpp\src_cpp\cva\cva_calculator.cpp:21:         profile.epe.resize(n_steps);
	.loc 9 21 27
	movq	48(%rbp), %rax	 # <retval>, tmp136
	leaq	24(%rax), %rcx	 #, _2
	movq	-48(%rbp), %rax	 # n_steps, tmp137
	movq	%rax, %rdx	 # tmp137,
	call	_ZNSt6vectorIdSaIdEE6resizeEy	 #
 # E:\Projects\Simulation_Projects\cva_cpp\src_cpp\cva\cva_calculator.cpp:22:         profile.cva_value = 0.0;
	.loc 9 22 27
	movq	48(%rbp), %rax	 # <retval>, tmp138
	pxor	%xmm0, %xmm0	 # tmp139
	movsd	%xmm0, 72(%rax)	 # tmp139, profile_45(D)->cva_value
 # E:\Projects\Simulation_Projects\cva_cpp\src_cpp\cva\cva_calculator.cpp:25:         double LGD = 1.0 - recovery_rate;
	.loc 9 25 16
	movsd	.LC1(%rip), %xmm0	 #, tmp141
	subsd	96(%rbp), %xmm0	 # recovery_rate, LGD_52
	movsd	%xmm0, -56(%rbp)	 # LGD_52, LGD
.LBB368:
 # E:\Projects\Simulation_Projects\cva_cpp\src_cpp\cva\cva_calculator.cpp:28:         for (size_t j = 0; j < n_steps; ++j) {
	.loc 9 28 21
	movq	$0, -8(%rbp)	 #, j
 # E:\Projects\Simulation_Projects\cva_cpp\src_cpp\cva\cva_calculator.cpp:28:         for (size_t j = 0; j < n_steps; ++j) {
	.loc 9 28 9
	jmp	.L28	 #
.L33:
.LBB369:
 # E:\Projects\Simulation_Projects\cva_cpp\src_cpp\cva\cva_calculator.cpp:29:             double t = time_grid[j];
	.loc 9 29 35
	movq	-8(%rbp), %rdx	 # j, tmp142
	movq	72(%rbp), %rax	 # time_grid, tmp143
	movq	%rax, %rcx	 # tmp143,
	call	_ZNKSt6vectorIdSaIdEEixEy	 #
 # E:\Projects\Simulation_Projects\cva_cpp\src_cpp\cva\cva_calculator.cpp:29:             double t = time_grid[j];
	.loc 9 29 35 is_stmt 0 discriminator 1
	movsd	(%rax), %xmm0	 # *_3, tmp144
	movsd	%xmm0, -120(%rbp)	 # tmp144, t
 # E:\Projects\Simulation_Projects\cva_cpp\src_cpp\cva\cva_calculator.cpp:30:             double sum_positive_exposure = 0.0;
	.loc 9 30 20 is_stmt 1
	pxor	%xmm0, %xmm0	 # tmp145
	movsd	%xmm0, -16(%rbp)	 # tmp145, sum_positive_exposure
.LBB370:
 # E:\Projects\Simulation_Projects\cva_cpp\src_cpp\cva\cva_calculator.cpp:32:             for (size_t i = 0; i < n_paths; ++i) {
	.loc 9 32 25
	movq	$0, -24(%rbp)	 #, i
 # E:\Projects\Simulation_Projects\cva_cpp\src_cpp\cva\cva_calculator.cpp:32:             for (size_t i = 0; i < n_paths; ++i) {
	.loc 9 32 13
	jmp	.L29	 #
.L30:
.LBB371:
 # E:\Projects\Simulation_Projects\cva_cpp\src_cpp\cva\cva_calculator.cpp:33:                 double spot = paths(i, j);
	.loc 9 33 36
	movq	-8(%rbp), %rcx	 # j, tmp146
	movq	-24(%rbp), %rdx	 # i, tmp147
	movq	64(%rbp), %rax	 # paths, tmp148
	movq	%rcx, %r8	 # tmp146,
	movq	%rax, %rcx	 # tmp148,
	call	_ZNK3cva4math6MatrixclEyy	 #
 # E:\Projects\Simulation_Projects\cva_cpp\src_cpp\cva\cva_calculator.cpp:33:                 double spot = paths(i, j);
	.loc 9 33 41 discriminator 1
	movsd	(%rax), %xmm0	 # *_4, tmp149
	movsd	%xmm0, -128(%rbp)	 # tmp149, spot
 # E:\Projects\Simulation_Projects\cva_cpp\src_cpp\cva\cva_calculator.cpp:34:                 double val = instrument.value(spot, t);
	.loc 9 34 46
	movq	56(%rbp), %rax	 # instrument, tmp150
	movq	(%rax), %rax	 # instrument_82(D)->_vptr.Instrument, _5
	addq	$16, %rax	 #, _6
	movq	(%rax), %rdx	 # *_6, _7
	movsd	-120(%rbp), %xmm1	 # t, tmp151
	movsd	-128(%rbp), %xmm0	 # spot, tmp152
	movq	56(%rbp), %rax	 # instrument, tmp153
	movapd	%xmm1, %xmm2	 # tmp151,
	movapd	%xmm0, %xmm1	 # tmp152,
	movq	%rax, %rcx	 # tmp153,
	call	*%rdx	 # _7
.LVL0:
.LEHE0:
	movq	%xmm0, %rax	 #, _8
 # E:\Projects\Simulation_Projects\cva_cpp\src_cpp\cva\cva_calculator.cpp:34:                 double val = instrument.value(spot, t);
	.loc 9 34 54 discriminator 2
	movq	%rax, -152(%rbp)	 # _8, val
 # E:\Projects\Simulation_Projects\cva_cpp\src_cpp\cva\cva_calculator.cpp:35:                 double exposure = std::max(0.0, val);
	.loc 9 35 44
	pxor	%xmm0, %xmm0	 # tmp154
	movsd	%xmm0, -144(%rbp)	 # tmp154, D.96071
 # E:\Projects\Simulation_Projects\cva_cpp\src_cpp\cva\cva_calculator.cpp:35:                 double exposure = std::max(0.0, val);
	.loc 9 35 43
	leaq	-152(%rbp), %rdx	 #, tmp155
	leaq	-144(%rbp), %rax	 #, tmp156
	movq	%rax, %rcx	 # tmp156,
	call	_ZSt3maxIdERKT_S2_S2_	 #
 # E:\Projects\Simulation_Projects\cva_cpp\src_cpp\cva\cva_calculator.cpp:35:                 double exposure = std::max(0.0, val);
	.loc 9 35 52 discriminator 1
	movsd	(%rax), %xmm0	 # *_9, tmp157
	movsd	%xmm0, -136(%rbp)	 # tmp157, exposure
 # E:\Projects\Simulation_Projects\cva_cpp\src_cpp\cva\cva_calculator.cpp:36:                 sum_positive_exposure += exposure;
	.loc 9 36 39
	movsd	-16(%rbp), %xmm0	 # sum_positive_exposure, tmp159
	addsd	-136(%rbp), %xmm0	 # exposure, sum_positive_exposure_90
	movsd	%xmm0, -16(%rbp)	 # sum_positive_exposure_90, sum_positive_exposure
.LBE371:
 # E:\Projects\Simulation_Projects\cva_cpp\src_cpp\cva\cva_calculator.cpp:32:             for (size_t i = 0; i < n_paths; ++i) {
	.loc 9 32 13 discriminator 2
	addq	$1, -24(%rbp)	 #, i
.L29:
 # E:\Projects\Simulation_Projects\cva_cpp\src_cpp\cva\cva_calculator.cpp:32:             for (size_t i = 0; i < n_paths; ++i) {
	.loc 9 32 34 discriminator 1
	movq	-24(%rbp), %rax	 # i, tmp160
	cmpq	-40(%rbp), %rax	 # n_paths, tmp160
	jb	.L30	 #,
.LBE370:
 # E:\Projects\Simulation_Projects\cva_cpp\src_cpp\cva\cva_calculator.cpp:39:             profile.epe[j] = sum_positive_exposure / n_paths;
	.loc 9 39 52
	movq	-40(%rbp), %rax	 # n_paths, tmp161
	testq	%rax, %rax	 # tmp161
	js	.L31	 #,
	pxor	%xmm0, %xmm0	 # _10
	cvtsi2sdq	%rax, %xmm0	 # tmp161, _10
	jmp	.L32	 #
.L31:
	movq	%rax, %rdx	 # tmp161, tmp163
	shrq	%rdx	 # tmp163
	andl	$1, %eax	 #, tmp164
	orq	%rax, %rdx	 # tmp164, tmp163
	pxor	%xmm0, %xmm0	 # tmp162
	cvtsi2sdq	%rdx, %xmm0	 # tmp163, tmp162
	addsd	%xmm0, %xmm0	 # tmp162, _10
.L32:
	movsd	-16(%rbp), %xmm1	 # sum_positive_exposure, tmp165
	movapd	%xmm1, %xmm6	 # tmp165, tmp165
	divsd	%xmm0, %xmm6	 # _10, tmp165
 # E:\Projects\Simulation_Projects\cva_cpp\src_cpp\cva\cva_calculator.cpp:39:             profile.epe[j] = sum_positive_exposure / n_paths;
	.loc 9 39 26
	movq	48(%rbp), %rax	 # <retval>, tmp166
	leaq	24(%rax), %rcx	 #, _12
	movq	-8(%rbp), %rax	 # j, tmp167
	movq	%rax, %rdx	 # tmp167,
	call	_ZNSt6vectorIdSaIdEEixEy	 #
 # E:\Projects\Simulation_Projects\cva_cpp\src_cpp\cva\cva_calculator.cpp:39:             profile.epe[j] = sum_positive_exposure / n_paths;
	.loc 9 39 28 discriminator 1
	movsd	%xmm6, (%rax)	 # _11, *_13
.LBE369:
 # E:\Projects\Simulation_Projects\cva_cpp\src_cpp\cva\cva_calculator.cpp:28:         for (size_t j = 0; j < n_steps; ++j) {
	.loc 9 28 9 discriminator 2
	addq	$1, -8(%rbp)	 #, j
.L28:
 # E:\Projects\Simulation_Projects\cva_cpp\src_cpp\cva\cva_calculator.cpp:28:         for (size_t j = 0; j < n_steps; ++j) {
	.loc 9 28 30 discriminator 1
	movq	-8(%rbp), %rax	 # j, tmp168
	cmpq	-48(%rbp), %rax	 # n_steps, tmp168
	jb	.L33	 #,
.LBE368:
.LBB372:
 # E:\Projects\Simulation_Projects\cva_cpp\src_cpp\cva\cva_calculator.cpp:45:         for (size_t j = 1; j < n_steps; ++j) {
	.loc 9 45 21
	movq	$1, -32(%rbp)	 #, j
 # E:\Projects\Simulation_Projects\cva_cpp\src_cpp\cva\cva_calculator.cpp:45:         for (size_t j = 1; j < n_steps; ++j) {
	.loc 9 45 9
	jmp	.L34	 #
.L35:
.LBB373:
 # E:\Projects\Simulation_Projects\cva_cpp\src_cpp\cva\cva_calculator.cpp:46:             double t = time_grid[j];
	.loc 9 46 35
	movq	-32(%rbp), %rdx	 # j, tmp169
	movq	72(%rbp), %rax	 # time_grid, tmp170
	movq	%rax, %rcx	 # tmp170,
	call	_ZNKSt6vectorIdSaIdEEixEy	 #
 # E:\Projects\Simulation_Projects\cva_cpp\src_cpp\cva\cva_calculator.cpp:46:             double t = time_grid[j];
	.loc 9 46 35 is_stmt 0 discriminator 1
	movsd	(%rax), %xmm0	 # *_14, tmp171
	movsd	%xmm0, -64(%rbp)	 # tmp171, t
 # E:\Projects\Simulation_Projects\cva_cpp\src_cpp\cva\cva_calculator.cpp:47:             double t_prev = time_grid[j - 1];
	.loc 9 47 44 is_stmt 1
	movq	-32(%rbp), %rax	 # j, tmp172
	leaq	-1(%rax), %rdx	 #, _15
	movq	72(%rbp), %rax	 # time_grid, tmp173
	movq	%rax, %rcx	 # tmp173,
	call	_ZNKSt6vectorIdSaIdEEixEy	 #
 # E:\Projects\Simulation_Projects\cva_cpp\src_cpp\cva\cva_calculator.cpp:47:             double t_prev = time_grid[j - 1];
	.loc 9 47 44 is_stmt 0 discriminator 1
	movsd	(%rax), %xmm0	 # *_16, tmp174
	movsd	%xmm0, -72(%rbp)	 # tmp174, t_prev
 # E:\Projects\Simulation_Projects\cva_cpp\src_cpp\cva\cva_calculator.cpp:51:             double prob_survival_prev = std::exp(-hazard_rate * t_prev);
	.loc 9 51 50 is_stmt 1
	movsd	88(%rbp), %xmm0	 # hazard_rate, tmp175
	movq	.LC2(%rip), %xmm1	 #, tmp176
	xorpd	%xmm1, %xmm0	 # tmp176, _17
 # E:\Projects\Simulation_Projects\cva_cpp\src_cpp\cva\cva_calculator.cpp:51:             double prob_survival_prev = std::exp(-hazard_rate * t_prev);
	.loc 9 51 49
	mulsd	-72(%rbp), %xmm0	 # t_prev, _17
	movq	%xmm0, %rax	 # _17, _18
	movq	%rax, %xmm0	 # _18,
	call	exp	 #
	movq	%xmm0, %rax	 #, tmp177
	movq	%rax, -80(%rbp)	 # tmp177, prob_survival_prev
 # E:\Projects\Simulation_Projects\cva_cpp\src_cpp\cva\cva_calculator.cpp:52:             double prob_survival_curr = std::exp(-hazard_rate * t);
	.loc 9 52 50
	movsd	88(%rbp), %xmm0	 # hazard_rate, tmp178
	movq	.LC2(%rip), %xmm1	 #, tmp179
	xorpd	%xmm1, %xmm0	 # tmp179, _19
 # E:\Projects\Simulation_Projects\cva_cpp\src_cpp\cva\cva_calculator.cpp:52:             double prob_survival_curr = std::exp(-hazard_rate * t);
	.loc 9 52 49
	mulsd	-64(%rbp), %xmm0	 # t, _19
	movq	%xmm0, %rax	 # _19, _20
	movq	%rax, %xmm0	 # _20,
	call	exp	 #
	movq	%xmm0, %rax	 #, tmp180
	movq	%rax, -88(%rbp)	 # tmp180, prob_survival_curr
 # E:\Projects\Simulation_Projects\cva_cpp\src_cpp\cva\cva_calculator.cpp:53:             double pd_interval = prob_survival_prev - prob_survival_curr;
	.loc 9 53 20
	movsd	-80(%rbp), %xmm0	 # prob_survival_prev, tmp182
	subsd	-88(%rbp), %xmm0	 # prob_survival_curr, pd_interval_65
	movsd	%xmm0, -96(%rbp)	 # pd_interval_65, pd_interval
 # E:\Projects\Simulation_Projects\cva_cpp\src_cpp\cva\cva_calculator.cpp:56:             double df = std::exp(-r * t);
	.loc 9 56 34
	movsd	80(%rbp), %xmm0	 # r, tmp183
	movq	.LC2(%rip), %xmm1	 #, tmp184
	xorpd	%xmm1, %xmm0	 # tmp184, _21
 # E:\Projects\Simulation_Projects\cva_cpp\src_cpp\cva\cva_calculator.cpp:56:             double df = std::exp(-r * t);
	.loc 9 56 33
	mulsd	-64(%rbp), %xmm0	 # t, _21
	movq	%xmm0, %rax	 # _21, _22
	movq	%rax, %xmm0	 # _22,
	call	exp	 #
	movq	%xmm0, %rax	 #, tmp185
	movq	%rax, -104(%rbp)	 # tmp185, df
 # E:\Projects\Simulation_Projects\cva_cpp\src_cpp\cva\cva_calculator.cpp:59:             double epe = profile.epe[j];
	.loc 9 59 39
	movq	48(%rbp), %rax	 # <retval>, tmp186
	leaq	24(%rax), %rcx	 #, _23
	movq	-32(%rbp), %rax	 # j, tmp187
	movq	%rax, %rdx	 # tmp187,
	call	_ZNSt6vectorIdSaIdEEixEy	 #
 # E:\Projects\Simulation_Projects\cva_cpp\src_cpp\cva\cva_calculator.cpp:59:             double epe = profile.epe[j];
	.loc 9 59 39 is_stmt 0 discriminator 1
	movsd	(%rax), %xmm0	 # *_24, tmp188
	movsd	%xmm0, -112(%rbp)	 # tmp188, epe
 # E:\Projects\Simulation_Projects\cva_cpp\src_cpp\cva\cva_calculator.cpp:61:             profile.cva_value += LGD * df * epe * pd_interval;
	.loc 9 61 21 is_stmt 1
	movq	48(%rbp), %rax	 # <retval>, tmp189
	movsd	72(%rax), %xmm1	 # profile_45(D)->cva_value, _25
 # E:\Projects\Simulation_Projects\cva_cpp\src_cpp\cva\cva_calculator.cpp:61:             profile.cva_value += LGD * df * epe * pd_interval;
	.loc 9 61 38
	movsd	-56(%rbp), %xmm0	 # LGD, tmp190
	mulsd	-104(%rbp), %xmm0	 # df, _26
 # E:\Projects\Simulation_Projects\cva_cpp\src_cpp\cva\cva_calculator.cpp:61:             profile.cva_value += LGD * df * epe * pd_interval;
	.loc 9 61 43
	mulsd	-112(%rbp), %xmm0	 # epe, _27
 # E:\Projects\Simulation_Projects\cva_cpp\src_cpp\cva\cva_calculator.cpp:61:             profile.cva_value += LGD * df * epe * pd_interval;
	.loc 9 61 49
	mulsd	-96(%rbp), %xmm0	 # pd_interval, _28
 # E:\Projects\Simulation_Projects\cva_cpp\src_cpp\cva\cva_calculator.cpp:61:             profile.cva_value += LGD * df * epe * pd_interval;
	.loc 9 61 31
	addsd	%xmm1, %xmm0	 # _25, _29
	movq	48(%rbp), %rax	 # <retval>, tmp191
	movsd	%xmm0, 72(%rax)	 # _29, profile_45(D)->cva_value
.LBE373:
 # E:\Projects\Simulation_Projects\cva_cpp\src_cpp\cva\cva_calculator.cpp:45:         for (size_t j = 1; j < n_steps; ++j) {
	.loc 9 45 9 discriminator 3
	addq	$1, -32(%rbp)	 #, j
.L34:
 # E:\Projects\Simulation_Projects\cva_cpp\src_cpp\cva\cva_calculator.cpp:45:         for (size_t j = 1; j < n_steps; ++j) {
	.loc 9 45 30 discriminator 1
	movq	-32(%rbp), %rax	 # j, tmp192
	cmpq	-48(%rbp), %rax	 # n_steps, tmp192
	jb	.L35	 #,
.LBE372:
 # E:\Projects\Simulation_Projects\cva_cpp\src_cpp\cva\cva_calculator.cpp:64:         return profile;
	.loc 9 64 16
	jmp	.L39	 #
.L38:
 # E:\Projects\Simulation_Projects\cva_cpp\src_cpp\cva\cva_calculator.cpp:65:     }
	.loc 9 65 5
	movq	%rax, %rbx	 #, tmp194
	movq	48(%rbp), %rax	 # <retval>, tmp193
	movq	%rax, %rcx	 # tmp193,
	call	_ZN3cva15ExposureProfileD1Ev	 #
	movq	%rbx, %rax	 # tmp194, D.108016
	movq	%rax, %rcx	 # D.108016,
.LEHB1:
	call	_Unwind_Resume	 #
.LEHE1:
.L39:
	movq	48(%rbp), %rax	 # <retval>,
	movups	0(%rbp), %xmm6	 #,
	addq	$216, %rsp	 #,
	.cfi_restore 23
	popq	%rbx	 #
	.cfi_restore 3
	popq	%rbp	 #
	.cfi_restore 6
	.cfi_def_cfa 7, -200
	ret	
	.cfi_endproc
.LFE4920:
	.seh_handler	__gxx_personality_seh0, @unwind, @except
	.seh_handlerdata
.LLSDA4920:
	.byte	0xff
	.byte	0xff
	.byte	0x1
	.uleb128 .LLSDACSE4920-.LLSDACSB4920
.LLSDACSB4920:
	.uleb128 .LEHB0-.LFB4920
	.uleb128 .LEHE0-.LEHB0
	.uleb128 .L38-.LFB4920
	.uleb128 0
	.uleb128 .LEHB1-.LFB4920
	.uleb128 .LEHE1-.LEHB1
	.uleb128 0
	.uleb128 0
.LLSDACSE4920:
	.text
	.seh_endproc
	.section	.text$_ZNSt6vectorIdSaIdEED1Ev,"x"
	.linkonce discard
	.align 2
	.globl	_ZNSt6vectorIdSaIdEED1Ev
	.def	_ZNSt6vectorIdSaIdEED1Ev;	.scl	2;	.type	32;	.endef
	.seh_proc	_ZNSt6vectorIdSaIdEED1Ev
_ZNSt6vectorIdSaIdEED1Ev:
.LFB5268:
	.loc 5 800 7
	.cfi_startproc
	pushq	%rbp	 #
	.seh_pushreg	%rbp
	.cfi_def_cfa_offset 16
	.cfi_offset 6, -16
	movq	%rsp, %rbp	 #,
	.seh_setframe	%rbp, 0
	.cfi_def_cfa_register 6
	subq	$64, %rsp	 #,
	.seh_stackalloc	64
	.seh_endprologue
	movq	%rcx, 16(%rbp)	 # this, this
.LBB374:
 # D:/msys64/ucrt64/include/c++/15.2.0/bits/stl_vector.h:803: 		      _M_get_Tp_allocator());
	.loc 5 803 28
	movq	16(%rbp), %rax	 # this, _1
	movq	%rax, %rcx	 # _1,
	call	_ZNSt12_Vector_baseIdSaIdEE19_M_get_Tp_allocatorEv	 #
 # D:/msys64/ucrt64/include/c++/15.2.0/bits/stl_vector.h:802: 	std::_Destroy(this->_M_impl._M_start, this->_M_impl._M_finish,
	.loc 5 802 54
	movq	16(%rbp), %rdx	 # this, tmp103
	movq	8(%rdx), %rdx	 # this_6(D)->D.68084._M_impl.D.67390._M_finish, _3
 # D:/msys64/ucrt64/include/c++/15.2.0/bits/stl_vector.h:802: 	std::_Destroy(this->_M_impl._M_start, this->_M_impl._M_finish,
	.loc 5 802 30
	movq	16(%rbp), %rcx	 # this, tmp104
	movq	(%rcx), %rcx	 # this_6(D)->D.68084._M_impl.D.67390._M_start, _4
	movq	%rcx, -8(%rbp)	 # _4, __first
	movq	%rdx, -16(%rbp)	 # _3, __last
	movq	%rax, -24(%rbp)	 # _2, D.107556
.LBB375:
.LBB376:
 # D:/msys64/ucrt64/include/c++/15.2.0/bits/alloc_traits.h:1045:       std::_Destroy(__first, __last);
	.file 10 "D:/msys64/ucrt64/include/c++/15.2.0/bits/alloc_traits.h"
	.loc 10 1045 20
	movq	-16(%rbp), %rdx	 # __last, tmp105
	movq	-8(%rbp), %rax	 # __first, tmp106
	movq	%rax, %rcx	 # tmp106,
	call	_ZSt8_DestroyIPdEvT_S1_	 #
 # D:/msys64/ucrt64/include/c++/15.2.0/bits/alloc_traits.h:1046:     }
	.loc 10 1046 5
	nop	
.LBE376:
.LBE375:
 # D:/msys64/ucrt64/include/c++/15.2.0/bits/stl_vector.h:805:       }
	.loc 5 805 7
	movq	16(%rbp), %rax	 # this, _5
	movq	%rax, %rcx	 # _5,
	call	_ZNSt12_Vector_baseIdSaIdEED2Ev	 #
.LBE374:
	nop	
	addq	$64, %rsp	 #,
	popq	%rbp	 #
	.cfi_restore 6
	.cfi_def_cfa 7, 8
	ret	
	.cfi_endproc
.LFE5268:
	.seh_handler	__gxx_personality_seh0, @unwind, @except
	.seh_handlerdata
.LLSDA5268:
	.byte	0xff
	.byte	0xff
	.byte	0x1
	.uleb128 .LLSDACSE5268-.LLSDACSB5268
.LLSDACSB5268:
.LLSDACSE5268:
	.section	.text$_ZNSt6vectorIdSaIdEED1Ev,"x"
	.linkonce discard
	.seh_endproc
	.section .rdata,"dr"
.LC3:
	.ascii "__n < this->size()\0"
	.align 8
.LC4:
	.ascii "constexpr std::vector<_Tp, _Alloc>::reference std::vector<_Tp, _Alloc>::operator[](size_type) [with _Tp = double; _Alloc = std::allocator<double>; reference = double&; size_type = long long unsigned int]\0"
	.align 8
.LC5:
	.ascii "D:/msys64/ucrt64/include/c++/15.2.0/bits/stl_vector.h\0"
	.section	.text$_ZNSt6vectorIdSaIdEEixEy,"x"
	.linkonce discard
	.align 2
	.globl	_ZNSt6vectorIdSaIdEEixEy
	.def	_ZNSt6vectorIdSaIdEEixEy;	.scl	2;	.type	32;	.endef
	.seh_proc	_ZNSt6vectorIdSaIdEEixEy
_ZNSt6vectorIdSaIdEEixEy:
.LFB5269:
	.loc 5 1261 7
	.cfi_startproc
	pushq	%rbp	 #
	.seh_pushreg	%rbp
	.cfi_def_cfa_offset 16
	.cfi_offset 6, -16
	movq	%rsp, %rbp	 #,
	.seh_setframe	%rbp, 0
	.cfi_def_cfa_register 6
	subq	$32, %rsp	 #,
	.seh_stackalloc	32
	.seh_endprologue
	movq	%rcx, 16(%rbp)	 # this, this
	movq	%rdx, 24(%rbp)	 # __n, __n
 # D:/msys64/ucrt64/include/c++/15.2.0/bits/stl_vector.h:1263: 	__glibcxx_requires_subscript(__n);
	.loc 5 1263 50
	movq	16(%rbp), %rax	 # this, tmp107
	movq	%rax, %rcx	 # tmp107,
	call	_ZNKSt6vectorIdSaIdEE4sizeEv	 #
 # D:/msys64/ucrt64/include/c++/15.2.0/bits/stl_vector.h:1263: 	__glibcxx_requires_subscript(__n);
	.loc 5 1263 29 discriminator 1
	cmpq	%rax, 24(%rbp)	 # _1, __n
	setnb	%al	 #, _2
 # D:/msys64/ucrt64/include/c++/15.2.0/bits/stl_vector.h:1263: 	__glibcxx_requires_subscript(__n);
	.loc 5 1263 27 discriminator 1
	movzbl	%al, %eax	 # _2, _3
 # D:/msys64/ucrt64/include/c++/15.2.0/bits/stl_vector.h:1263: 	__glibcxx_requires_subscript(__n);
	.loc 5 1263 27 is_stmt 0 discriminator 2
	testl	%eax, %eax	 # _4
	setne	%al	 #, retval.72_11
 # D:/msys64/ucrt64/include/c++/15.2.0/bits/stl_vector.h:1263: 	__glibcxx_requires_subscript(__n);
	.loc 5 1263 7 is_stmt 1 discriminator 2
	testb	%al, %al	 # retval.72_11
	je	.L42	 #,
 # D:/msys64/ucrt64/include/c++/15.2.0/bits/stl_vector.h:1263: 	__glibcxx_requires_subscript(__n);
	.loc 5 1263 89 discriminator 3
	leaq	.LC3(%rip), %rcx	 #, tmp108
	leaq	.LC4(%rip), %rdx	 #, tmp109
	leaq	.LC5(%rip), %rax	 #, tmp110
	movq	%rcx, %r9	 # tmp108,
	movq	%rdx, %r8	 # tmp109,
	movl	$1263, %edx	 #,
	movq	%rax, %rcx	 # tmp110,
	call	_ZSt21__glibcxx_assert_failPKciS0_S0_	 #
.L42:
 # D:/msys64/ucrt64/include/c++/15.2.0/bits/stl_vector.h:1264: 	return *(this->_M_impl._M_start + __n);
	.loc 5 1264 25
	movq	16(%rbp), %rax	 # this, tmp111
	movq	(%rax), %rax	 # this_8(D)->D.68084._M_impl.D.67390._M_start, _5
 # D:/msys64/ucrt64/include/c++/15.2.0/bits/stl_vector.h:1264: 	return *(this->_M_impl._M_start + __n);
	.loc 5 1264 34
	movq	24(%rbp), %rdx	 # __n, tmp112
	salq	$3, %rdx	 #, _6
 # D:/msys64/ucrt64/include/c++/15.2.0/bits/stl_vector.h:1264: 	return *(this->_M_impl._M_start + __n);
	.loc 5 1264 39
	addq	%rdx, %rax	 # _6, _12
 # D:/msys64/ucrt64/include/c++/15.2.0/bits/stl_vector.h:1265:       }
	.loc 5 1265 7
	addq	$32, %rsp	 #,
	popq	%rbp	 #
	.cfi_restore 6
	.cfi_def_cfa 7, 8
	ret	
	.cfi_endproc
.LFE5269:
	.seh_endproc
	.section .rdata,"dr"
	.align 8
.LC6:
	.ascii "constexpr std::vector<_Tp, _Alloc>::const_reference std::vector<_Tp, _Alloc>::operator[](size_type) const [with _Tp = double; _Alloc = std::allocator<double>; const_reference = const double&; size_type = long long unsigned int]\0"
	.section	.text$_ZNKSt6vectorIdSaIdEEixEy,"x"
	.linkonce discard
	.align 2
	.globl	_ZNKSt6vectorIdSaIdEEixEy
	.def	_ZNKSt6vectorIdSaIdEEixEy;	.scl	2;	.type	32;	.endef
	.seh_proc	_ZNKSt6vectorIdSaIdEEixEy
_ZNKSt6vectorIdSaIdEEixEy:
.LFB5270:
	.loc 5 1280 7
	.cfi_startproc
	pushq	%rbp	 #
	.seh_pushreg	%rbp
	.cfi_def_cfa_offset 16
	.cfi_offset 6, -16
	movq	%rsp, %rbp	 #,
	.seh_setframe	%rbp, 0
	.cfi_def_cfa_register 6
	subq	$32, %rsp	 #,
	.seh_stackalloc	32
	.seh_endprologue
	movq	%rcx, 16(%rbp)	 # this, this
	movq	%rdx, 24(%rbp)	 # __n, __n
 # D:/msys64/ucrt64/include/c++/15.2.0/bits/stl_vector.h:1282: 	__glibcxx_requires_subscript(__n);
	.loc 5 1282 50
	movq	16(%rbp), %rax	 # this, tmp107
	movq	%rax, %rcx	 # tmp107,
	call	_ZNKSt6vectorIdSaIdEE4sizeEv	 #
 # D:/msys64/ucrt64/include/c++/15.2.0/bits/stl_vector.h:1282: 	__glibcxx_requires_subscript(__n);
	.loc 5 1282 29 discriminator 1
	cmpq	%rax, 24(%rbp)	 # _1, __n
	setnb	%al	 #, _2
 # D:/msys64/ucrt64/include/c++/15.2.0/bits/stl_vector.h:1282: 	__glibcxx_requires_subscript(__n);
	.loc 5 1282 27 discriminator 1
	movzbl	%al, %eax	 # _2, _3
 # D:/msys64/ucrt64/include/c++/15.2.0/bits/stl_vector.h:1282: 	__glibcxx_requires_subscript(__n);
	.loc 5 1282 27 is_stmt 0 discriminator 2
	testl	%eax, %eax	 # _4
	setne	%al	 #, retval.71_11
 # D:/msys64/ucrt64/include/c++/15.2.0/bits/stl_vector.h:1282: 	__glibcxx_requires_subscript(__n);
	.loc 5 1282 7 is_stmt 1 discriminator 2
	testb	%al, %al	 # retval.71_11
	je	.L45	 #,
 # D:/msys64/ucrt64/include/c++/15.2.0/bits/stl_vector.h:1282: 	__glibcxx_requires_subscript(__n);
	.loc 5 1282 89 discriminator 3
	leaq	.LC3(%rip), %rcx	 #, tmp108
	leaq	.LC6(%rip), %rdx	 #, tmp109
	leaq	.LC5(%rip), %rax	 #, tmp110
	movq	%rcx, %r9	 # tmp108,
	movq	%rdx, %r8	 # tmp109,
	movl	$1282, %edx	 #,
	movq	%rax, %rcx	 # tmp110,
	call	_ZSt21__glibcxx_assert_failPKciS0_S0_	 #
.L45:
 # D:/msys64/ucrt64/include/c++/15.2.0/bits/stl_vector.h:1283: 	return *(this->_M_impl._M_start + __n);
	.loc 5 1283 25
	movq	16(%rbp), %rax	 # this, tmp111
	movq	(%rax), %rax	 # this_8(D)->D.68084._M_impl.D.67390._M_start, _5
 # D:/msys64/ucrt64/include/c++/15.2.0/bits/stl_vector.h:1283: 	return *(this->_M_impl._M_start + __n);
	.loc 5 1283 34
	movq	24(%rbp), %rdx	 # __n, tmp112
	salq	$3, %rdx	 #, _6
 # D:/msys64/ucrt64/include/c++/15.2.0/bits/stl_vector.h:1283: 	return *(this->_M_impl._M_start + __n);
	.loc 5 1283 39
	addq	%rdx, %rax	 # _6, _12
 # D:/msys64/ucrt64/include/c++/15.2.0/bits/stl_vector.h:1284:       }
	.loc 5 1284 7
	addq	$32, %rsp	 #,
	popq	%rbp	 #
	.cfi_restore 6
	.cfi_def_cfa 7, 8
	ret	
	.cfi_endproc
.LFE5270:
	.seh_endproc
	.section	.text$_ZNKSt6vectorIdSaIdEE4sizeEv,"x"
	.linkonce discard
	.align 2
	.globl	_ZNKSt6vectorIdSaIdEE4sizeEv
	.def	_ZNKSt6vectorIdSaIdEE4sizeEv;	.scl	2;	.type	32;	.endef
	.seh_proc	_ZNKSt6vectorIdSaIdEE4sizeEv
_ZNKSt6vectorIdSaIdEE4sizeEv:
.LFB5273:
	.loc 5 1117 7
	.cfi_startproc
	pushq	%rbp	 #
	.seh_pushreg	%rbp
	.cfi_def_cfa_offset 16
	.cfi_offset 6, -16
	movq	%rsp, %rbp	 #,
	.seh_setframe	%rbp, 0
	.cfi_def_cfa_register 6
	subq	$16, %rsp	 #,
	.seh_stackalloc	16
	.seh_endprologue
	movq	%rcx, 16(%rbp)	 # this, this
 # D:/msys64/ucrt64/include/c++/15.2.0/bits/stl_vector.h:1119: 	ptrdiff_t __dif = this->_M_impl._M_finish - this->_M_impl._M_start;
	.loc 5 1119 34
	movq	16(%rbp), %rax	 # this, tmp103
	movq	8(%rax), %rdx	 # this_5(D)->D.68084._M_impl.D.67390._M_finish, _1
 # D:/msys64/ucrt64/include/c++/15.2.0/bits/stl_vector.h:1119: 	ptrdiff_t __dif = this->_M_impl._M_finish - this->_M_impl._M_start;
	.loc 5 1119 60
	movq	16(%rbp), %rax	 # this, tmp104
	movq	(%rax), %rax	 # this_5(D)->D.68084._M_impl.D.67390._M_start, _2
 # D:/msys64/ucrt64/include/c++/15.2.0/bits/stl_vector.h:1119: 	ptrdiff_t __dif = this->_M_impl._M_finish - this->_M_impl._M_start;
	.loc 5 1119 44
	subq	%rax, %rdx	 # _2, _3
 # D:/msys64/ucrt64/include/c++/15.2.0/bits/stl_vector.h:1119: 	ptrdiff_t __dif = this->_M_impl._M_finish - this->_M_impl._M_start;
	.loc 5 1119 12
	movq	%rdx, %rax	 # _3, _3
	sarq	$3, %rax	 #, _3
	movq	%rax, -8(%rbp)	 # __dif_6, __dif
 # D:/msys64/ucrt64/include/c++/15.2.0/bits/stl_vector.h:1120: 	if (__dif < 0)
	.loc 5 1120 2
	cmpq	$0, -8(%rbp)	 #, __dif
 # D:/msys64/ucrt64/include/c++/15.2.0/bits/stl_vector.h:1122: 	return size_type(__dif);
	.loc 5 1122 24
	movq	-8(%rbp), %rax	 # __dif, _7
 # D:/msys64/ucrt64/include/c++/15.2.0/bits/stl_vector.h:1123:       }
	.loc 5 1123 7
	addq	$16, %rsp	 #,
	popq	%rbp	 #
	.cfi_restore 6
	.cfi_def_cfa 7, 8
	ret	
	.cfi_endproc
.LFE5273:
	.seh_endproc
	.section	.text$_ZNSt12_Vector_baseIdSaIdEED2Ev,"x"
	.linkonce discard
	.align 2
	.globl	_ZNSt12_Vector_baseIdSaIdEED2Ev
	.def	_ZNSt12_Vector_baseIdSaIdEED2Ev;	.scl	2;	.type	32;	.endef
	.seh_proc	_ZNSt12_Vector_baseIdSaIdEED2Ev
_ZNSt12_Vector_baseIdSaIdEED2Ev:
.LFB5343:
	.loc 5 373 7
	.cfi_startproc
	pushq	%rbp	 #
	.seh_pushreg	%rbp
	.cfi_def_cfa_offset 16
	.cfi_offset 6, -16
	movq	%rsp, %rbp	 #,
	.seh_setframe	%rbp, 0
	.cfi_def_cfa_register 6
	subq	$32, %rsp	 #,
	.seh_stackalloc	32
	.seh_endprologue
	movq	%rcx, 16(%rbp)	 # this, this
.LBB377:
 # D:/msys64/ucrt64/include/c++/15.2.0/bits/stl_vector.h:376: 		      _M_impl._M_end_of_storage - _M_impl._M_start);
	.loc 5 376 17
	movq	16(%rbp), %rax	 # this, tmp105
	movq	16(%rax), %rdx	 # this_9(D)->_M_impl.D.67390._M_end_of_storage, _1
 # D:/msys64/ucrt64/include/c++/15.2.0/bits/stl_vector.h:376: 		      _M_impl._M_end_of_storage - _M_impl._M_start);
	.loc 5 376 45
	movq	16(%rbp), %rax	 # this, tmp106
	movq	(%rax), %rax	 # this_9(D)->_M_impl.D.67390._M_start, _2
 # D:/msys64/ucrt64/include/c++/15.2.0/bits/stl_vector.h:376: 		      _M_impl._M_end_of_storage - _M_impl._M_start);
	.loc 5 376 35
	subq	%rax, %rdx	 # _2, _3
	movq	%rdx, %rax	 # _3, _3
	sarq	$3, %rax	 #, _3
 # D:/msys64/ucrt64/include/c++/15.2.0/bits/stl_vector.h:375: 	_M_deallocate(_M_impl._M_start,
	.loc 5 375 15
	movq	%rax, %rcx	 # _4, _5
	movq	16(%rbp), %rax	 # this, tmp108
	movq	(%rax), %rdx	 # this_9(D)->_M_impl.D.67390._M_start, _6
	movq	16(%rbp), %rax	 # this, tmp109
	movq	%rcx, %r8	 # _5,
	movq	%rax, %rcx	 # tmp109,
	call	_ZNSt12_Vector_baseIdSaIdEE13_M_deallocateEPdy	 #
 # D:/msys64/ucrt64/include/c++/15.2.0/bits/stl_vector.h:377:       }
	.loc 5 377 7
	movq	16(%rbp), %rax	 # this, _7
	movq	%rax, %rcx	 # _7,
	call	_ZNSt12_Vector_baseIdSaIdEE12_Vector_implD1Ev	 #
.LBE377:
	nop	
	addq	$32, %rsp	 #,
	popq	%rbp	 #
	.cfi_restore 6
	.cfi_def_cfa 7, 8
	ret	
	.cfi_endproc
.LFE5343:
	.seh_handler	__gxx_personality_seh0, @unwind, @except
	.seh_handlerdata
.LLSDA5343:
	.byte	0xff
	.byte	0xff
	.byte	0x1
	.uleb128 .LLSDACSE5343-.LLSDACSB5343
.LLSDACSB5343:
.LLSDACSE5343:
	.section	.text$_ZNSt12_Vector_baseIdSaIdEED2Ev,"x"
	.linkonce discard
	.seh_endproc
	.section	.text$_ZNSt6vectorIdSaIdEEaSERKS1_,"x"
	.linkonce discard
	.align 2
	.globl	_ZNSt6vectorIdSaIdEEaSERKS1_
	.def	_ZNSt6vectorIdSaIdEEaSERKS1_;	.scl	2;	.type	32;	.endef
	.seh_proc	_ZNSt6vectorIdSaIdEEaSERKS1_
_ZNSt6vectorIdSaIdEEaSERKS1_:
.LFB5345:
	.file 11 "D:/msys64/ucrt64/include/c++/15.2.0/bits/vector.tcc"
	.loc 11 210 5
	.cfi_startproc
	pushq	%rbp	 #
	.seh_pushreg	%rbp
	.cfi_def_cfa_offset 16
	.cfi_offset 6, -16
	pushq	%r12	 #
	.seh_pushreg	%r12
	.cfi_def_cfa_offset 24
	.cfi_offset 12, -24
	pushq	%rdi	 #
	.seh_pushreg	%rdi
	.cfi_def_cfa_offset 32
	.cfi_offset 5, -32
	pushq	%rsi	 #
	.seh_pushreg	%rsi
	.cfi_def_cfa_offset 40
	.cfi_offset 4, -40
	pushq	%rbx	 #
	.seh_pushreg	%rbx
	.cfi_def_cfa_offset 48
	.cfi_offset 3, -48
	subq	$144, %rsp	 #,
	.seh_stackalloc	144
	.cfi_def_cfa_offset 192
	leaq	144(%rsp), %rbp	 #,
	.seh_setframe	%rbp, 144
	.cfi_def_cfa 6, 48
	.seh_endprologue
	movq	%rcx, 48(%rbp)	 # this, this
	movq	%rdx, 56(%rbp)	 # __x, __x
	movq	56(%rbp), %rax	 # __x, tmp168
	movq	%rax, -24(%rbp)	 # tmp168, __r
.LBB378:
.LBB379:
.LBB380:
 # D:/msys64/ucrt64/include/c++/15.2.0/bits/move.h:53:     { return __builtin_addressof(__r); }
	.file 12 "D:/msys64/ucrt64/include/c++/15.2.0/bits/move.h"
	.loc 12 53 37
	movq	-24(%rbp), %rax	 # __r, D.107883
.LBE380:
.LBE379:
 # D:/msys64/ucrt64/include/c++/15.2.0/bits/vector.tcc:213:       if (std::__addressof(__x) != this)
	.loc 11 213 33 discriminator 1
	cmpq	%rax, 48(%rbp)	 # D.107883, this
	setne	%al	 #, retval.0_66
 # D:/msys64/ucrt64/include/c++/15.2.0/bits/vector.tcc:213:       if (std::__addressof(__x) != this)
	.loc 11 213 7 discriminator 1
	testb	%al, %al	 # retval.0_66
	je	.L53	 #,
.LBB381:
.LBB382:
.LBB383:
 # D:/msys64/ucrt64/include/c++/15.2.0/ext/alloc_traits.h:108:     { return _Base_type::propagate_on_container_copy_assignment::value; }
	.file 13 "D:/msys64/ucrt64/include/c++/15.2.0/ext/alloc_traits.h"
	.loc 13 108 66
	movl	$0, %eax	 #, D.107886
.LBE383:
.LBE382:
 # D:/msys64/ucrt64/include/c++/15.2.0/bits/vector.tcc:217: 	  if (_Alloc_traits::_S_propagate_on_copy_assign())
	.loc 11 217 4 discriminator 1
	testb	%al, %al	 # D.107886
	je	.L55	 #,
.LBB384:
.LBB385:
 # D:/msys64/ucrt64/include/c++/15.2.0/ext/alloc_traits.h:120:     { return _Base_type::is_always_equal::value; }
	.loc 13 120 43
	movl	$1, %eax	 #, D.107889
.LBE385:
.LBE384:
 # D:/msys64/ucrt64/include/c++/15.2.0/bits/vector.tcc:219: 	      if (!_Alloc_traits::_S_always_equal()
	.loc 11 219 43 discriminator 1
	xorl	$1, %eax	 #, _3
 # D:/msys64/ucrt64/include/c++/15.2.0/bits/vector.tcc:220: 	          && _M_get_Tp_allocator() != __x._M_get_Tp_allocator())
	.loc 11 220 12
	testb	%al, %al	 # _3
	je	.L57	 #,
 # D:/msys64/ucrt64/include/c++/15.2.0/bits/vector.tcc:220: 	          && _M_get_Tp_allocator() != __x._M_get_Tp_allocator())
	.loc 11 220 63 discriminator 1
	movq	56(%rbp), %rax	 # __x, _4
	movq	%rax, %rcx	 # _4,
	call	_ZNKSt12_Vector_baseIdSaIdEE19_M_get_Tp_allocatorEv	 #
	movq	%rax, %rbx	 #, _5
 # D:/msys64/ucrt64/include/c++/15.2.0/bits/vector.tcc:220: 	          && _M_get_Tp_allocator() != __x._M_get_Tp_allocator())
	.loc 11 220 34 discriminator 3
	movq	48(%rbp), %rax	 # this, _6
	movq	%rax, %rcx	 # _6,
	call	_ZNSt12_Vector_baseIdSaIdEE19_M_get_Tp_allocatorEv	 #
	movq	%rax, -32(%rbp)	 # _7, D.107892
	movq	%rbx, -40(%rbp)	 # _5, D.107893
.LBB386:
.LBB387:
 # D:/msys64/ucrt64/include/c++/15.2.0/bits/allocator.h:222:       { return true; }
	.loc 6 222 16
	movl	$1, %eax	 #, D.107894
.LBE387:
.LBE386:
 # D:/msys64/ucrt64/include/c++/15.2.0/bits/vector.tcc:220: 	          && _M_get_Tp_allocator() != __x._M_get_Tp_allocator())
	.loc 11 220 37 discriminator 5
	xorl	$1, %eax	 #, _9
 # D:/msys64/ucrt64/include/c++/15.2.0/bits/vector.tcc:220: 	          && _M_get_Tp_allocator() != __x._M_get_Tp_allocator())
	.loc 11 220 12 discriminator 5
	testb	%al, %al	 # _9
	je	.L57	 #,
 # D:/msys64/ucrt64/include/c++/15.2.0/bits/vector.tcc:220: 	          && _M_get_Tp_allocator() != __x._M_get_Tp_allocator())
	.loc 11 220 12 is_stmt 0 discriminator 6
	movl	$1, %eax	 #, iftmp.3_56
 # D:/msys64/ucrt64/include/c++/15.2.0/bits/vector.tcc:220: 	          && _M_get_Tp_allocator() != __x._M_get_Tp_allocator())
	.loc 11 220 12
	jmp	.L59	 #
.L57:
 # D:/msys64/ucrt64/include/c++/15.2.0/bits/vector.tcc:220: 	          && _M_get_Tp_allocator() != __x._M_get_Tp_allocator())
	.loc 11 220 12 discriminator 7
	movl	$0, %eax	 #, iftmp.3_56
.L59:
 # D:/msys64/ucrt64/include/c++/15.2.0/bits/vector.tcc:219: 	      if (!_Alloc_traits::_S_always_equal()
	.loc 11 219 8 is_stmt 1
	testb	%al, %al	 # iftmp.3_56
	je	.L60	 #,
 # D:/msys64/ucrt64/include/c++/15.2.0/bits/vector.tcc:223: 		  this->clear();
	.loc 11 223 16
	movq	48(%rbp), %rax	 # this, tmp169
	movq	%rax, %rcx	 # tmp169,
	call	_ZNSt6vectorIdSaIdEE5clearEv	 #
 # D:/msys64/ucrt64/include/c++/15.2.0/bits/vector.tcc:224: 		  _M_deallocate(this->_M_impl._M_start,
	.loc 11 224 18
	movq	48(%rbp), %rax	 # this, _10
 # D:/msys64/ucrt64/include/c++/15.2.0/bits/vector.tcc:225: 				this->_M_impl._M_end_of_storage
	.loc 11 225 19
	movq	48(%rbp), %rdx	 # this, tmp170
	movq	16(%rdx), %rcx	 # this_65(D)->D.68084._M_impl.D.67390._M_end_of_storage, _11
 # D:/msys64/ucrt64/include/c++/15.2.0/bits/vector.tcc:226: 				- this->_M_impl._M_start);
	.loc 11 226 21
	movq	48(%rbp), %rdx	 # this, tmp171
	movq	(%rdx), %rdx	 # this_65(D)->D.68084._M_impl.D.67390._M_start, _12
 # D:/msys64/ucrt64/include/c++/15.2.0/bits/vector.tcc:226: 				- this->_M_impl._M_start);
	.loc 11 226 5
	subq	%rdx, %rcx	 # _12, _13
	sarq	$3, %rcx	 #, _13
	movq	%rcx, %rdx	 # _13, _14
 # D:/msys64/ucrt64/include/c++/15.2.0/bits/vector.tcc:224: 		  _M_deallocate(this->_M_impl._M_start,
	.loc 11 224 18
	movq	%rdx, %rcx	 # _14, _15
	movq	48(%rbp), %rdx	 # this, tmp173
	movq	(%rdx), %rdx	 # this_65(D)->D.68084._M_impl.D.67390._M_start, _16
	movq	%rcx, %r8	 # _15,
	movq	%rax, %rcx	 # _10,
	call	_ZNSt12_Vector_baseIdSaIdEE13_M_deallocateEPdy	 #
 # D:/msys64/ucrt64/include/c++/15.2.0/bits/vector.tcc:227: 		  this->_M_impl._M_start = nullptr;
	.loc 11 227 28
	movq	48(%rbp), %rax	 # this, tmp174
	movq	$0, (%rax)	 #, this_65(D)->D.68084._M_impl.D.67390._M_start
 # D:/msys64/ucrt64/include/c++/15.2.0/bits/vector.tcc:228: 		  this->_M_impl._M_finish = nullptr;
	.loc 11 228 29
	movq	48(%rbp), %rax	 # this, tmp175
	movq	$0, 8(%rax)	 #, this_65(D)->D.68084._M_impl.D.67390._M_finish
 # D:/msys64/ucrt64/include/c++/15.2.0/bits/vector.tcc:229: 		  this->_M_impl._M_end_of_storage = nullptr;
	.loc 11 229 37
	movq	48(%rbp), %rax	 # this, tmp176
	movq	$0, 16(%rax)	 #, this_65(D)->D.68084._M_impl.D.67390._M_end_of_storage
.L60:
 # D:/msys64/ucrt64/include/c++/15.2.0/bits/vector.tcc:232: 				   __x._M_get_Tp_allocator());
	.loc 11 232 31
	movq	56(%rbp), %rax	 # __x, _17
	movq	%rax, %rcx	 # _17,
	call	_ZNKSt12_Vector_baseIdSaIdEE19_M_get_Tp_allocatorEv	 #
	movq	%rax, %rbx	 #, _18
 # D:/msys64/ucrt64/include/c++/15.2.0/bits/vector.tcc:231: 	      std::__alloc_on_copy(_M_get_Tp_allocator(),
	.loc 11 231 48
	movq	48(%rbp), %rax	 # this, _19
	movq	%rax, %rcx	 # _19,
	call	_ZNSt12_Vector_baseIdSaIdEE19_M_get_Tp_allocatorEv	 #
	movq	%rax, -48(%rbp)	 # _20, __one
	movq	%rbx, -56(%rbp)	 # _18, __two
.LBB388:
.LBB389:
 # D:/msys64/ucrt64/include/c++/15.2.0/bits/alloc_traits.h:850:     }
	.loc 10 850 5
	nop	
.L55:
.LBE389:
.LBE388:
 # D:/msys64/ucrt64/include/c++/15.2.0/bits/vector.tcc:235: 	  const size_type __xlen = __x.size();
	.loc 11 235 37
	movq	56(%rbp), %rax	 # __x, tmp177
	movq	%rax, %rcx	 # tmp177,
	call	_ZNKSt6vectorIdSaIdEE4sizeEv	 #
	movq	%rax, -8(%rbp)	 # tmp178, __xlen
.LBB390:
 # D:/msys64/ucrt64/include/c++/15.2.0/bits/vector.tcc:236: 	  if (__xlen > capacity())
	.loc 11 236 25
	movq	48(%rbp), %rax	 # this, tmp179
	movq	%rax, %rcx	 # tmp179,
	call	_ZNKSt6vectorIdSaIdEE8capacityEv	 #
 # D:/msys64/ucrt64/include/c++/15.2.0/bits/vector.tcc:236: 	  if (__xlen > capacity())
	.loc 11 236 15 discriminator 1
	cmpq	-8(%rbp), %rax	 # __xlen, _21
	setb	%al	 #, retval.4_83
 # D:/msys64/ucrt64/include/c++/15.2.0/bits/vector.tcc:236: 	  if (__xlen > capacity())
	.loc 11 236 4 discriminator 1
	testb	%al, %al	 # retval.4_83
	je	.L61	 #,
.LBB391:
 # D:/msys64/ucrt64/include/c++/15.2.0/bits/vector.tcc:238: 	      pointer __tmp = _M_allocate_and_copy(__xlen, __x.begin(),
	.loc 11 238 44
	movq	56(%rbp), %rax	 # __x, tmp180
	movq	%rax, %rcx	 # tmp180,
	call	_ZNKSt6vectorIdSaIdEE3endEv	 #
	movq	%rax, %rbx	 #, D.106705
 # D:/msys64/ucrt64/include/c++/15.2.0/bits/vector.tcc:238: 	      pointer __tmp = _M_allocate_and_copy(__xlen, __x.begin(),
	.loc 11 238 44 is_stmt 0 discriminator 1
	movq	56(%rbp), %rax	 # __x, tmp181
	movq	%rax, %rcx	 # tmp181,
	call	_ZNKSt6vectorIdSaIdEE5beginEv	 #
	movq	%rax, %rcx	 #, D.106706
 # D:/msys64/ucrt64/include/c++/15.2.0/bits/vector.tcc:238: 	      pointer __tmp = _M_allocate_and_copy(__xlen, __x.begin(),
	.loc 11 238 44 discriminator 2
	movq	-8(%rbp), %rdx	 # __xlen, tmp182
	movq	48(%rbp), %rax	 # this, tmp183
	movq	%rbx, %r9	 # D.106705,
	movq	%rcx, %r8	 # D.106706,
	movq	%rax, %rcx	 # tmp183,
	call	_ZNSt6vectorIdSaIdEE20_M_allocate_and_copyIN9__gnu_cxx17__normal_iteratorIPKdS1_EEEEPdyT_S9_	 #
 # D:/msys64/ucrt64/include/c++/15.2.0/bits/vector.tcc:238: 	      pointer __tmp = _M_allocate_and_copy(__xlen, __x.begin(),
	.loc 11 238 44 discriminator 3
	movq	%rax, -16(%rbp)	 # _100, __tmp
 # D:/msys64/ucrt64/include/c++/15.2.0/bits/vector.tcc:241: 			    _M_get_Tp_allocator());
	.loc 11 241 27 is_stmt 1
	movq	48(%rbp), %rax	 # this, _22
	movq	%rax, %rcx	 # _22,
	call	_ZNSt12_Vector_baseIdSaIdEE19_M_get_Tp_allocatorEv	 #
 # D:/msys64/ucrt64/include/c++/15.2.0/bits/vector.tcc:240: 	      std::_Destroy(this->_M_impl._M_start, this->_M_impl._M_finish,
	.loc 11 240 60
	movq	48(%rbp), %rdx	 # this, tmp184
	movq	8(%rdx), %rdx	 # this_65(D)->D.68084._M_impl.D.67390._M_finish, _24
 # D:/msys64/ucrt64/include/c++/15.2.0/bits/vector.tcc:240: 	      std::_Destroy(this->_M_impl._M_start, this->_M_impl._M_finish,
	.loc 11 240 36
	movq	48(%rbp), %rcx	 # this, tmp185
	movq	(%rcx), %rcx	 # this_65(D)->D.68084._M_impl.D.67390._M_start, _25
	movq	%rcx, -64(%rbp)	 # _25, __first
	movq	%rdx, -72(%rbp)	 # _24, __last
	movq	%rax, -80(%rbp)	 # _23, D.107903
.LBB392:
.LBB393:
 # D:/msys64/ucrt64/include/c++/15.2.0/bits/alloc_traits.h:1045:       std::_Destroy(__first, __last);
	.loc 10 1045 20
	movq	-72(%rbp), %rdx	 # __last, tmp186
	movq	-64(%rbp), %rax	 # __first, tmp187
	movq	%rax, %rcx	 # tmp187,
	call	_ZSt8_DestroyIPdEvT_S1_	 #
 # D:/msys64/ucrt64/include/c++/15.2.0/bits/alloc_traits.h:1046:     }
	.loc 10 1046 5
	nop	
.LBE393:
.LBE392:
 # D:/msys64/ucrt64/include/c++/15.2.0/bits/vector.tcc:242: 	      _M_deallocate(this->_M_impl._M_start,
	.loc 11 242 21
	movq	48(%rbp), %rax	 # this, _26
 # D:/msys64/ucrt64/include/c++/15.2.0/bits/vector.tcc:243: 			    this->_M_impl._M_end_of_storage
	.loc 11 243 22
	movq	48(%rbp), %rdx	 # this, tmp188
	movq	16(%rdx), %rcx	 # this_65(D)->D.68084._M_impl.D.67390._M_end_of_storage, _27
 # D:/msys64/ucrt64/include/c++/15.2.0/bits/vector.tcc:244: 			    - this->_M_impl._M_start);
	.loc 11 244 24
	movq	48(%rbp), %rdx	 # this, tmp189
	movq	(%rdx), %rdx	 # this_65(D)->D.68084._M_impl.D.67390._M_start, _28
 # D:/msys64/ucrt64/include/c++/15.2.0/bits/vector.tcc:244: 			    - this->_M_impl._M_start);
	.loc 11 244 8
	subq	%rdx, %rcx	 # _28, _29
	sarq	$3, %rcx	 #, _29
	movq	%rcx, %rdx	 # _29, _30
 # D:/msys64/ucrt64/include/c++/15.2.0/bits/vector.tcc:242: 	      _M_deallocate(this->_M_impl._M_start,
	.loc 11 242 21
	movq	%rdx, %rcx	 # _30, _31
	movq	48(%rbp), %rdx	 # this, tmp191
	movq	(%rdx), %rdx	 # this_65(D)->D.68084._M_impl.D.67390._M_start, _32
	movq	%rcx, %r8	 # _31,
	movq	%rax, %rcx	 # _26,
	call	_ZNSt12_Vector_baseIdSaIdEE13_M_deallocateEPdy	 #
 # D:/msys64/ucrt64/include/c++/15.2.0/bits/vector.tcc:245: 	      this->_M_impl._M_start = __tmp;
	.loc 11 245 31
	movq	48(%rbp), %rax	 # this, tmp192
	movq	-16(%rbp), %rdx	 # __tmp, tmp193
	movq	%rdx, (%rax)	 # tmp193, this_65(D)->D.68084._M_impl.D.67390._M_start
 # D:/msys64/ucrt64/include/c++/15.2.0/bits/vector.tcc:246: 	      this->_M_impl._M_end_of_storage = this->_M_impl._M_start + __xlen;
	.loc 11 246 56
	movq	48(%rbp), %rax	 # this, tmp194
	movq	(%rax), %rax	 # this_65(D)->D.68084._M_impl.D.67390._M_start, _33
 # D:/msys64/ucrt64/include/c++/15.2.0/bits/vector.tcc:246: 	      this->_M_impl._M_end_of_storage = this->_M_impl._M_start + __xlen;
	.loc 11 246 65
	movq	-8(%rbp), %rdx	 # __xlen, tmp195
	salq	$3, %rdx	 #, _34
	addq	%rax, %rdx	 # _33, _35
 # D:/msys64/ucrt64/include/c++/15.2.0/bits/vector.tcc:246: 	      this->_M_impl._M_end_of_storage = this->_M_impl._M_start + __xlen;
	.loc 11 246 40
	movq	48(%rbp), %rax	 # this, tmp196
	movq	%rdx, 16(%rax)	 # _35, this_65(D)->D.68084._M_impl.D.67390._M_end_of_storage
.LBE391:
	jmp	.L62	 #
.L61:
 # D:/msys64/ucrt64/include/c++/15.2.0/bits/vector.tcc:248: 	  else if (size() >= __xlen)
	.loc 11 248 17
	movq	48(%rbp), %rax	 # this, tmp197
	movq	%rax, %rcx	 # tmp197,
	call	_ZNKSt6vectorIdSaIdEE4sizeEv	 #
 # D:/msys64/ucrt64/include/c++/15.2.0/bits/vector.tcc:248: 	  else if (size() >= __xlen)
	.loc 11 248 20 discriminator 1
	cmpq	-8(%rbp), %rax	 # __xlen, _36
	setnb	%al	 #, retval.5_85
 # D:/msys64/ucrt64/include/c++/15.2.0/bits/vector.tcc:248: 	  else if (size() >= __xlen)
	.loc 11 248 9 discriminator 1
	testb	%al, %al	 # retval.5_85
	je	.L63	 #,
 # D:/msys64/ucrt64/include/c++/15.2.0/bits/vector.tcc:251: 			    end(), _M_get_Tp_allocator());
	.loc 11 251 34
	movq	48(%rbp), %rax	 # this, _37
	movq	%rax, %rcx	 # _37,
	call	_ZNSt12_Vector_baseIdSaIdEE19_M_get_Tp_allocatorEv	 #
	movq	%rax, %rbx	 #, _38
 # D:/msys64/ucrt64/include/c++/15.2.0/bits/vector.tcc:250: 	      std::_Destroy(std::copy(__x.begin(), __x.end(), begin()),
	.loc 11 250 21
	movq	48(%rbp), %rax	 # this, tmp198
	movq	%rax, %rcx	 # tmp198,
	call	_ZNSt6vectorIdSaIdEE3endEv	 #
	movq	%rax, %rsi	 #, D.106711
 # D:/msys64/ucrt64/include/c++/15.2.0/bits/vector.tcc:250: 	      std::_Destroy(std::copy(__x.begin(), __x.end(), begin()),
	.loc 11 250 21 is_stmt 0 discriminator 1
	movq	48(%rbp), %rax	 # this, tmp199
	movq	%rax, %rcx	 # tmp199,
	call	_ZNSt6vectorIdSaIdEE5beginEv	 #
	movq	%rax, %r12	 #, D.106712
 # D:/msys64/ucrt64/include/c++/15.2.0/bits/vector.tcc:250: 	      std::_Destroy(std::copy(__x.begin(), __x.end(), begin()),
	.loc 11 250 21 discriminator 2
	movq	56(%rbp), %rax	 # __x, tmp200
	movq	%rax, %rcx	 # tmp200,
	call	_ZNKSt6vectorIdSaIdEE3endEv	 #
	movq	%rax, %rdi	 #, D.106713
 # D:/msys64/ucrt64/include/c++/15.2.0/bits/vector.tcc:250: 	      std::_Destroy(std::copy(__x.begin(), __x.end(), begin()),
	.loc 11 250 21 discriminator 3
	movq	56(%rbp), %rax	 # __x, tmp201
	movq	%rax, %rcx	 # tmp201,
	call	_ZNKSt6vectorIdSaIdEE5beginEv	 #
 # D:/msys64/ucrt64/include/c++/15.2.0/bits/vector.tcc:250: 	      std::_Destroy(std::copy(__x.begin(), __x.end(), begin()),
	.loc 11 250 21 discriminator 4
	movq	%r12, %r8	 # D.106712,
	movq	%rdi, %rdx	 # D.106713,
	movq	%rax, %rcx	 # D.106714,
	call	_ZSt4copyIN9__gnu_cxx17__normal_iteratorIPKdSt6vectorIdSaIdEEEENS1_IPdS6_EEET0_T_SB_SA_	 #
	movq	%rax, -96(%rbp)	 # D.106715, __first
	movq	%rsi, -104(%rbp)	 # D.106711, __last
	movq	%rbx, -88(%rbp)	 # _38, D.107906
.LBB394:
.LBB395:
 # D:/msys64/ucrt64/include/c++/15.2.0/bits/alloc_traits.h:1045:       std::_Destroy(__first, __last);
	.loc 10 1045 20 is_stmt 1
	movq	-104(%rbp), %rdx	 # __last, tmp202
	movq	-96(%rbp), %rax	 # __first, tmp203
	movq	%rax, %rcx	 # tmp203,
	call	_ZSt8_DestroyIN9__gnu_cxx17__normal_iteratorIPdSt6vectorIdSaIdEEEEEvT_S7_	 #
 # D:/msys64/ucrt64/include/c++/15.2.0/bits/alloc_traits.h:1046:     }
	.loc 10 1046 5
	jmp	.L62	 #
.L63:
.LBE395:
.LBE394:
 # D:/msys64/ucrt64/include/c++/15.2.0/bits/vector.tcc:256: 			this->_M_impl._M_start);
	.loc 11 256 18
	movq	48(%rbp), %rax	 # this, tmp204
	movq	(%rax), %rsi	 # this_65(D)->D.68084._M_impl.D.67390._M_start, _39
 # D:/msys64/ucrt64/include/c++/15.2.0/bits/vector.tcc:255: 	      std::copy(__x._M_impl._M_start, __x._M_impl._M_start + size(),
	.loc 11 255 52
	movq	56(%rbp), %rax	 # __x, tmp205
	movq	(%rax), %rbx	 # __x_64(D)->D.68084._M_impl.D.67390._M_start, _40
 # D:/msys64/ucrt64/include/c++/15.2.0/bits/vector.tcc:255: 	      std::copy(__x._M_impl._M_start, __x._M_impl._M_start + size(),
	.loc 11 255 67
	movq	48(%rbp), %rax	 # this, tmp206
	movq	%rax, %rcx	 # tmp206,
	call	_ZNKSt6vectorIdSaIdEE4sizeEv	 #
 # D:/msys64/ucrt64/include/c++/15.2.0/bits/vector.tcc:255: 	      std::copy(__x._M_impl._M_start, __x._M_impl._M_start + size(),
	.loc 11 255 61 discriminator 1
	salq	$3, %rax	 #, _42
 # D:/msys64/ucrt64/include/c++/15.2.0/bits/vector.tcc:255: 	      std::copy(__x._M_impl._M_start, __x._M_impl._M_start + size(),
	.loc 11 255 17 discriminator 1
	leaq	(%rbx,%rax), %rdx	 #, _43
 # D:/msys64/ucrt64/include/c++/15.2.0/bits/vector.tcc:255: 	      std::copy(__x._M_impl._M_start, __x._M_impl._M_start + size(),
	.loc 11 255 30 discriminator 1
	movq	56(%rbp), %rax	 # __x, tmp207
	movq	(%rax), %rax	 # __x_64(D)->D.68084._M_impl.D.67390._M_start, _44
 # D:/msys64/ucrt64/include/c++/15.2.0/bits/vector.tcc:255: 	      std::copy(__x._M_impl._M_start, __x._M_impl._M_start + size(),
	.loc 11 255 17 discriminator 1
	movq	%rsi, %r8	 # _39,
	movq	%rax, %rcx	 # _44,
	call	_ZSt4copyIPdS0_ET0_T_S2_S1_	 #
 # D:/msys64/ucrt64/include/c++/15.2.0/bits/vector.tcc:260: 					  _M_get_Tp_allocator());
	.loc 11 260 27
	movq	48(%rbp), %rax	 # this, _45
	movq	%rax, %rcx	 # _45,
	call	_ZNSt12_Vector_baseIdSaIdEE19_M_get_Tp_allocatorEv	 #
	movq	%rax, %rsi	 #, _46
 # D:/msys64/ucrt64/include/c++/15.2.0/bits/vector.tcc:259: 					  this->_M_impl._M_finish,
	.loc 11 259 22
	movq	48(%rbp), %rax	 # this, tmp208
	movq	8(%rax), %r12	 # this_65(D)->D.68084._M_impl.D.67390._M_finish, _47
 # D:/msys64/ucrt64/include/c++/15.2.0/bits/vector.tcc:258: 					  __x._M_impl._M_finish,
	.loc 11 258 20
	movq	56(%rbp), %rax	 # __x, tmp209
	movq	8(%rax), %rbx	 # __x_64(D)->D.68084._M_impl.D.67390._M_finish, _48
 # D:/msys64/ucrt64/include/c++/15.2.0/bits/vector.tcc:257: 	      std::__uninitialized_copy_a(__x._M_impl._M_start + size(),
	.loc 11 257 48
	movq	56(%rbp), %rax	 # __x, tmp210
	movq	(%rax), %rdi	 # __x_64(D)->D.68084._M_impl.D.67390._M_start, _49
 # D:/msys64/ucrt64/include/c++/15.2.0/bits/vector.tcc:257: 	      std::__uninitialized_copy_a(__x._M_impl._M_start + size(),
	.loc 11 257 63
	movq	48(%rbp), %rax	 # this, tmp211
	movq	%rax, %rcx	 # tmp211,
	call	_ZNKSt6vectorIdSaIdEE4sizeEv	 #
 # D:/msys64/ucrt64/include/c++/15.2.0/bits/vector.tcc:257: 	      std::__uninitialized_copy_a(__x._M_impl._M_start + size(),
	.loc 11 257 57 discriminator 1
	salq	$3, %rax	 #, _51
 # D:/msys64/ucrt64/include/c++/15.2.0/bits/vector.tcc:257: 	      std::__uninitialized_copy_a(__x._M_impl._M_start + size(),
	.loc 11 257 35 discriminator 1
	addq	%rdi, %rax	 # _49, _52
	movq	%rsi, %r9	 # _46,
	movq	%r12, %r8	 # _47,
	movq	%rbx, %rdx	 # _48,
	movq	%rax, %rcx	 # _52,
	call	_ZSt22__uninitialized_copy_aIPdS0_S0_dET1_T_T0_S1_RSaIT2_E	 #
.L62:
.LBE390:
 # D:/msys64/ucrt64/include/c++/15.2.0/bits/vector.tcc:262: 	  this->_M_impl._M_finish = this->_M_impl._M_start + __xlen;
	.loc 11 262 44
	movq	48(%rbp), %rax	 # this, tmp212
	movq	(%rax), %rax	 # this_65(D)->D.68084._M_impl.D.67390._M_start, _53
 # D:/msys64/ucrt64/include/c++/15.2.0/bits/vector.tcc:262: 	  this->_M_impl._M_finish = this->_M_impl._M_start + __xlen;
	.loc 11 262 53
	movq	-8(%rbp), %rdx	 # __xlen, tmp213
	salq	$3, %rdx	 #, _54
	addq	%rax, %rdx	 # _53, _55
 # D:/msys64/ucrt64/include/c++/15.2.0/bits/vector.tcc:262: 	  this->_M_impl._M_finish = this->_M_impl._M_start + __xlen;
	.loc 11 262 28
	movq	48(%rbp), %rax	 # this, tmp214
	movq	%rdx, 8(%rax)	 # _55, this_65(D)->D.68084._M_impl.D.67390._M_finish
.L53:
.LBE381:
.LBE378:
 # D:/msys64/ucrt64/include/c++/15.2.0/bits/vector.tcc:264:       return *this;
	.loc 11 264 15
	movq	48(%rbp), %rax	 # this, _107
 # D:/msys64/ucrt64/include/c++/15.2.0/bits/vector.tcc:265:     }
	.loc 11 265 5
	addq	$144, %rsp	 #,
	popq	%rbx	 #
	.cfi_restore 3
	popq	%rsi	 #
	.cfi_restore 4
	popq	%rdi	 #
	.cfi_restore 5
	popq	%r12	 #
	.cfi_restore 12
	popq	%rbp	 #
	.cfi_restore 6
	.cfi_def_cfa 7, -104
	ret	
	.cfi_endproc
.LFE5345:
	.seh_endproc
	.section	.text$_ZNSt6vectorIdSaIdEE6resizeEy,"x"
	.linkonce discard
	.align 2
	.globl	_ZNSt6vectorIdSaIdEE6resizeEy
	.def	_ZNSt6vectorIdSaIdEE6resizeEy;	.scl	2;	.type	32;	.endef
	.seh_proc	_ZNSt6vectorIdSaIdEE6resizeEy
_ZNSt6vectorIdSaIdEE6resizeEy:
.LFB5348:
	.loc 5 1143 7
	.cfi_startproc
	pushq	%rbp	 #
	.seh_pushreg	%rbp
	.cfi_def_cfa_offset 16
	.cfi_offset 6, -16
	movq	%rsp, %rbp	 #,
	.seh_setframe	%rbp, 0
	.cfi_def_cfa_register 6
	subq	$32, %rsp	 #,
	.seh_stackalloc	32
	.seh_endprologue
	movq	%rcx, 16(%rbp)	 # this, this
	movq	%rdx, 24(%rbp)	 # __new_size, __new_size
 # D:/msys64/ucrt64/include/c++/15.2.0/bits/stl_vector.h:1145: 	if (__new_size > size())
	.loc 5 1145 23
	movq	16(%rbp), %rax	 # this, tmp107
	movq	%rax, %rcx	 # tmp107,
	call	_ZNKSt6vectorIdSaIdEE4sizeEv	 #
 # D:/msys64/ucrt64/include/c++/15.2.0/bits/stl_vector.h:1145: 	if (__new_size > size())
	.loc 5 1145 17 discriminator 1
	cmpq	24(%rbp), %rax	 # __new_size, _1
	setb	%al	 #, retval.55_13
 # D:/msys64/ucrt64/include/c++/15.2.0/bits/stl_vector.h:1145: 	if (__new_size > size())
	.loc 5 1145 2 discriminator 1
	testb	%al, %al	 # retval.55_13
	je	.L66	 #,
 # D:/msys64/ucrt64/include/c++/15.2.0/bits/stl_vector.h:1146: 	  _M_default_append(__new_size - size());
	.loc 5 1146 39
	movq	16(%rbp), %rax	 # this, tmp108
	movq	%rax, %rcx	 # tmp108,
	call	_ZNKSt6vectorIdSaIdEE4sizeEv	 #
 # D:/msys64/ucrt64/include/c++/15.2.0/bits/stl_vector.h:1146: 	  _M_default_append(__new_size - size());
	.loc 5 1146 21 discriminator 1
	movq	24(%rbp), %rdx	 # __new_size, tmp109
	subq	%rax, %rdx	 # _2, _3
	movq	16(%rbp), %rax	 # this, tmp110
	movq	%rax, %rcx	 # tmp110,
	call	_ZNSt6vectorIdSaIdEE17_M_default_appendEy	 #
 # D:/msys64/ucrt64/include/c++/15.2.0/bits/stl_vector.h:1149:       }
	.loc 5 1149 7
	jmp	.L68	 #
.L66:
 # D:/msys64/ucrt64/include/c++/15.2.0/bits/stl_vector.h:1147: 	else if (__new_size < size())
	.loc 5 1147 28
	movq	16(%rbp), %rax	 # this, tmp111
	movq	%rax, %rcx	 # tmp111,
	call	_ZNKSt6vectorIdSaIdEE4sizeEv	 #
 # D:/msys64/ucrt64/include/c++/15.2.0/bits/stl_vector.h:1147: 	else if (__new_size < size())
	.loc 5 1147 22 discriminator 1
	cmpq	%rax, 24(%rbp)	 # _4, __new_size
	setb	%al	 #, retval.56_15
 # D:/msys64/ucrt64/include/c++/15.2.0/bits/stl_vector.h:1147: 	else if (__new_size < size())
	.loc 5 1147 7 discriminator 1
	testb	%al, %al	 # retval.56_15
	je	.L68	 #,
 # D:/msys64/ucrt64/include/c++/15.2.0/bits/stl_vector.h:1148: 	  _M_erase_at_end(this->_M_impl._M_start + __new_size);
	.loc 5 1148 34
	movq	16(%rbp), %rax	 # this, tmp112
	movq	(%rax), %rax	 # this_10(D)->D.68084._M_impl.D.67390._M_start, _5
 # D:/msys64/ucrt64/include/c++/15.2.0/bits/stl_vector.h:1148: 	  _M_erase_at_end(this->_M_impl._M_start + __new_size);
	.loc 5 1148 43
	movq	24(%rbp), %rdx	 # __new_size, tmp113
	salq	$3, %rdx	 #, _6
 # D:/msys64/ucrt64/include/c++/15.2.0/bits/stl_vector.h:1148: 	  _M_erase_at_end(this->_M_impl._M_start + __new_size);
	.loc 5 1148 19
	addq	%rax, %rdx	 # _5, _7
	movq	16(%rbp), %rax	 # this, tmp114
	movq	%rax, %rcx	 # tmp114,
	call	_ZNSt6vectorIdSaIdEE15_M_erase_at_endEPd	 #
.L68:
 # D:/msys64/ucrt64/include/c++/15.2.0/bits/stl_vector.h:1149:       }
	.loc 5 1149 7
	nop	
	addq	$32, %rsp	 #,
	popq	%rbp	 #
	.cfi_restore 6
	.cfi_def_cfa 7, 8
	ret	
	.cfi_endproc
.LFE5348:
	.seh_endproc
	.section	.text$_ZNSt12_Vector_baseIdSaIdEE19_M_get_Tp_allocatorEv,"x"
	.linkonce discard
	.align 2
	.globl	_ZNSt12_Vector_baseIdSaIdEE19_M_get_Tp_allocatorEv
	.def	_ZNSt12_Vector_baseIdSaIdEE19_M_get_Tp_allocatorEv;	.scl	2;	.type	32;	.endef
	.seh_proc	_ZNSt12_Vector_baseIdSaIdEE19_M_get_Tp_allocatorEv
_ZNSt12_Vector_baseIdSaIdEE19_M_get_Tp_allocatorEv:
.LFB5476:
	.loc 5 307 7
	.cfi_startproc
	pushq	%rbp	 #
	.seh_pushreg	%rbp
	.cfi_def_cfa_offset 16
	.cfi_offset 6, -16
	movq	%rsp, %rbp	 #,
	.seh_setframe	%rbp, 0
	.cfi_def_cfa_register 6
	.seh_endprologue
	movq	%rcx, 16(%rbp)	 # this, this
 # D:/msys64/ucrt64/include/c++/15.2.0/bits/stl_vector.h:308:       { return this->_M_impl; }
	.loc 5 308 22
	movq	16(%rbp), %rax	 # this, _2
 # D:/msys64/ucrt64/include/c++/15.2.0/bits/stl_vector.h:308:       { return this->_M_impl; }
	.loc 5 308 31
	popq	%rbp	 #
	.cfi_restore 6
	.cfi_def_cfa 7, 8
	ret	
	.cfi_endproc
.LFE5476:
	.seh_endproc
	.section	.text$_ZNSt12_Vector_baseIdSaIdEE13_M_deallocateEPdy,"x"
	.linkonce discard
	.align 2
	.globl	_ZNSt12_Vector_baseIdSaIdEE13_M_deallocateEPdy
	.def	_ZNSt12_Vector_baseIdSaIdEE13_M_deallocateEPdy;	.scl	2;	.type	32;	.endef
	.seh_proc	_ZNSt12_Vector_baseIdSaIdEE13_M_deallocateEPdy
_ZNSt12_Vector_baseIdSaIdEE13_M_deallocateEPdy:
.LFB5540:
	.loc 5 392 7
	.cfi_startproc
	pushq	%rbp	 #
	.seh_pushreg	%rbp
	.cfi_def_cfa_offset 16
	.cfi_offset 6, -16
	movq	%rsp, %rbp	 #,
	.seh_setframe	%rbp, 0
	.cfi_def_cfa_register 6
	subq	$80, %rsp	 #,
	.seh_stackalloc	80
	.seh_endprologue
	movq	%rcx, 16(%rbp)	 # this, this
	movq	%rdx, 24(%rbp)	 # __p, __p
	movq	%r8, 32(%rbp)	 # __n, __n
 # D:/msys64/ucrt64/include/c++/15.2.0/bits/stl_vector.h:395: 	if (__p)
	.loc 5 395 2
	cmpq	$0, 24(%rbp)	 #, __p
	je	.L76	 #,
 # D:/msys64/ucrt64/include/c++/15.2.0/bits/stl_vector.h:396: 	  _Tr::deallocate(_M_impl, __p, __n);
	.loc 5 396 20
	movq	16(%rbp), %rax	 # this, _1
	movq	%rax, -8(%rbp)	 # _1, __a
	movq	24(%rbp), %rax	 # __p, tmp100
	movq	%rax, -16(%rbp)	 # tmp100, __p
	movq	32(%rbp), %rax	 # __n, tmp101
	movq	%rax, -24(%rbp)	 # tmp101, __n
	movq	-8(%rbp), %rax	 # __a, tmp102
	movq	%rax, -32(%rbp)	 # tmp102, this
	movq	-16(%rbp), %rax	 # __p, tmp103
	movq	%rax, -40(%rbp)	 # tmp103, __p
	movq	-24(%rbp), %rax	 # __n, tmp104
	movq	%rax, -48(%rbp)	 # tmp104, __n
.LBB396:
.LBB397:
.LBB398:
.LBB399:
.LBB400:
.LBB401:
 # D:/msys64/ucrt64/include/c++/15.2.0/x86_64-w64-mingw32/bits/c++config.h:589:     return __builtin_is_constant_evaluated();
	.file 14 "D:/msys64/ucrt64/include/c++/15.2.0/x86_64-w64-mingw32/bits/c++config.h"
	.loc 14 589 44
	movl	$0, %eax	 #, _13
.LBE401:
.LBE400:
 # D:/msys64/ucrt64/include/c++/15.2.0/bits/allocator.h:210: 	if (std::__is_constant_evaluated())
	.loc 6 210 2 discriminator 1
	testb	%al, %al	 # _13
	je	.L74	 #,
 # D:/msys64/ucrt64/include/c++/15.2.0/bits/allocator.h:212: 	    ::operator delete(__p);
	.loc 6 212 23
	movq	-40(%rbp), %rax	 # __p, tmp105
	movq	%rax, %rcx	 # tmp105,
	call	_ZdlPv	 #
 # D:/msys64/ucrt64/include/c++/15.2.0/bits/allocator.h:213: 	    return;
	.loc 6 213 6
	jmp	.L75	 #
.L74:
 # D:/msys64/ucrt64/include/c++/15.2.0/bits/allocator.h:215: 	__allocator_base<_Tp>::deallocate(__p, __n);
	.loc 6 215 35
	movq	-48(%rbp), %rcx	 # __n, tmp106
	movq	-40(%rbp), %rdx	 # __p, tmp107
	movq	-32(%rbp), %rax	 # this, tmp108
	movq	%rcx, %r8	 # tmp106,
	movq	%rax, %rcx	 # tmp108,
	call	_ZNSt15__new_allocatorIdE10deallocateEPdy	 #
.L75:
.LBE399:
.LBE398:
 # D:/msys64/ucrt64/include/c++/15.2.0/bits/alloc_traits.h:649:       { __a.deallocate(__p, __n); }
	.loc 10 649 35
	nop	
.L76:
.LBE397:
.LBE396:
 # D:/msys64/ucrt64/include/c++/15.2.0/bits/stl_vector.h:397:       }
	.loc 5 397 7
	nop	
	addq	$80, %rsp	 #,
	popq	%rbp	 #
	.cfi_restore 6
	.cfi_def_cfa 7, 8
	ret	
	.cfi_endproc
.LFE5540:
	.seh_endproc
	.section	.text$_ZNKSt12_Vector_baseIdSaIdEE19_M_get_Tp_allocatorEv,"x"
	.linkonce discard
	.align 2
	.globl	_ZNKSt12_Vector_baseIdSaIdEE19_M_get_Tp_allocatorEv
	.def	_ZNKSt12_Vector_baseIdSaIdEE19_M_get_Tp_allocatorEv;	.scl	2;	.type	32;	.endef
	.seh_proc	_ZNKSt12_Vector_baseIdSaIdEE19_M_get_Tp_allocatorEv
_ZNKSt12_Vector_baseIdSaIdEE19_M_get_Tp_allocatorEv:
.LFB5542:
	.loc 5 312 7
	.cfi_startproc
	pushq	%rbp	 #
	.seh_pushreg	%rbp
	.cfi_def_cfa_offset 16
	.cfi_offset 6, -16
	movq	%rsp, %rbp	 #,
	.seh_setframe	%rbp, 0
	.cfi_def_cfa_register 6
	.seh_endprologue
	movq	%rcx, 16(%rbp)	 # this, this
 # D:/msys64/ucrt64/include/c++/15.2.0/bits/stl_vector.h:313:       { return this->_M_impl; }
	.loc 5 313 22
	movq	16(%rbp), %rax	 # this, _2
 # D:/msys64/ucrt64/include/c++/15.2.0/bits/stl_vector.h:313:       { return this->_M_impl; }
	.loc 5 313 31
	popq	%rbp	 #
	.cfi_restore 6
	.cfi_def_cfa 7, 8
	ret	
	.cfi_endproc
.LFE5542:
	.seh_endproc
	.section	.text$_ZNSt6vectorIdSaIdEE5clearEv,"x"
	.linkonce discard
	.align 2
	.globl	_ZNSt6vectorIdSaIdEE5clearEv
	.def	_ZNSt6vectorIdSaIdEE5clearEv;	.scl	2;	.type	32;	.endef
	.seh_proc	_ZNSt6vectorIdSaIdEE5clearEv
_ZNSt6vectorIdSaIdEE5clearEv:
.LFB5544:
	.loc 5 1863 7
	.cfi_startproc
	pushq	%rbp	 #
	.seh_pushreg	%rbp
	.cfi_def_cfa_offset 16
	.cfi_offset 6, -16
	movq	%rsp, %rbp	 #,
	.seh_setframe	%rbp, 0
	.cfi_def_cfa_register 6
	subq	$32, %rsp	 #,
	.seh_stackalloc	32
	.seh_endprologue
	movq	%rcx, 16(%rbp)	 # this, this
 # D:/msys64/ucrt64/include/c++/15.2.0/bits/stl_vector.h:1864:       { _M_erase_at_end(this->_M_impl._M_start); }
	.loc 5 1864 39
	movq	16(%rbp), %rax	 # this, tmp99
	movq	(%rax), %rdx	 # this_3(D)->D.68084._M_impl.D.67390._M_start, _1
 # D:/msys64/ucrt64/include/c++/15.2.0/bits/stl_vector.h:1864:       { _M_erase_at_end(this->_M_impl._M_start); }
	.loc 5 1864 24
	movq	16(%rbp), %rax	 # this, tmp100
	movq	%rax, %rcx	 # tmp100,
	call	_ZNSt6vectorIdSaIdEE15_M_erase_at_endEPd	 #
 # D:/msys64/ucrt64/include/c++/15.2.0/bits/stl_vector.h:1864:       { _M_erase_at_end(this->_M_impl._M_start); }
	.loc 5 1864 50
	nop	
	addq	$32, %rsp	 #,
	popq	%rbp	 #
	.cfi_restore 6
	.cfi_def_cfa 7, 8
	ret	
	.cfi_endproc
.LFE5544:
	.seh_endproc
	.section	.text$_ZNKSt6vectorIdSaIdEE8capacityEv,"x"
	.linkonce discard
	.align 2
	.globl	_ZNKSt6vectorIdSaIdEE8capacityEv
	.def	_ZNKSt6vectorIdSaIdEE8capacityEv;	.scl	2;	.type	32;	.endef
	.seh_proc	_ZNKSt6vectorIdSaIdEE8capacityEv
_ZNKSt6vectorIdSaIdEE8capacityEv:
.LFB5546:
	.loc 5 1208 7
	.cfi_startproc
	pushq	%rbp	 #
	.seh_pushreg	%rbp
	.cfi_def_cfa_offset 16
	.cfi_offset 6, -16
	movq	%rsp, %rbp	 #,
	.seh_setframe	%rbp, 0
	.cfi_def_cfa_register 6
	subq	$16, %rsp	 #,
	.seh_stackalloc	16
	.seh_endprologue
	movq	%rcx, 16(%rbp)	 # this, this
 # D:/msys64/ucrt64/include/c++/15.2.0/bits/stl_vector.h:1210: 	ptrdiff_t __dif = this->_M_impl._M_end_of_storage
	.loc 5 1210 34
	movq	16(%rbp), %rax	 # this, tmp103
	movq	16(%rax), %rdx	 # this_5(D)->D.68084._M_impl.D.67390._M_end_of_storage, _1
 # D:/msys64/ucrt64/include/c++/15.2.0/bits/stl_vector.h:1211: 			  - this->_M_impl._M_start;
	.loc 5 1211 22
	movq	16(%rbp), %rax	 # this, tmp104
	movq	(%rax), %rax	 # this_5(D)->D.68084._M_impl.D.67390._M_start, _2
 # D:/msys64/ucrt64/include/c++/15.2.0/bits/stl_vector.h:1211: 			  - this->_M_impl._M_start;
	.loc 5 1211 6
	subq	%rax, %rdx	 # _2, _3
 # D:/msys64/ucrt64/include/c++/15.2.0/bits/stl_vector.h:1210: 	ptrdiff_t __dif = this->_M_impl._M_end_of_storage
	.loc 5 1210 12
	movq	%rdx, %rax	 # _3, _3
	sarq	$3, %rax	 #, _3
	movq	%rax, -8(%rbp)	 # __dif_6, __dif
 # D:/msys64/ucrt64/include/c++/15.2.0/bits/stl_vector.h:1212: 	if (__dif < 0)
	.loc 5 1212 2
	cmpq	$0, -8(%rbp)	 #, __dif
 # D:/msys64/ucrt64/include/c++/15.2.0/bits/stl_vector.h:1214: 	return size_type(__dif);
	.loc 5 1214 24
	movq	-8(%rbp), %rax	 # __dif, _7
 # D:/msys64/ucrt64/include/c++/15.2.0/bits/stl_vector.h:1215:       }
	.loc 5 1215 7
	addq	$16, %rsp	 #,
	popq	%rbp	 #
	.cfi_restore 6
	.cfi_def_cfa 7, 8
	ret	
	.cfi_endproc
.LFE5546:
	.seh_endproc
	.section	.text$_ZNKSt6vectorIdSaIdEE5beginEv,"x"
	.linkonce discard
	.align 2
	.globl	_ZNKSt6vectorIdSaIdEE5beginEv
	.def	_ZNKSt6vectorIdSaIdEE5beginEv;	.scl	2;	.type	32;	.endef
	.seh_proc	_ZNKSt6vectorIdSaIdEE5beginEv
_ZNKSt6vectorIdSaIdEE5beginEv:
.LFB5547:
	.loc 5 1008 7
	.cfi_startproc
	pushq	%rbp	 #
	.seh_pushreg	%rbp
	.cfi_def_cfa_offset 16
	.cfi_offset 6, -16
	movq	%rsp, %rbp	 #,
	.seh_setframe	%rbp, 0
	.cfi_def_cfa_register 6
	subq	$16, %rsp	 #,
	.seh_stackalloc	16
	.seh_endprologue
	movq	%rcx, 16(%rbp)	 # this, this
 # D:/msys64/ucrt64/include/c++/15.2.0/bits/stl_vector.h:1009:       { return const_iterator(this->_M_impl._M_start); }
	.loc 5 1009 45
	movq	16(%rbp), %rax	 # this, _1
	movq	%rax, -8(%rbp)	 # _1, __i
.LBB402:
.LBB403:
.LBB404:
 # D:/msys64/ucrt64/include/c++/15.2.0/bits/stl_iterator.h:1059:       : _M_current(__i) { }
	.file 15 "D:/msys64/ucrt64/include/c++/15.2.0/bits/stl_iterator.h"
	.loc 15 1059 9
	movq	-8(%rbp), %rax	 # __i, tmp102
	movq	(%rax), %rax	 # *__i_6, _7
	movq	%rax, -16(%rbp)	 # _7, D.101843._M_current
.LBE404:
 # D:/msys64/ucrt64/include/c++/15.2.0/bits/stl_iterator.h:1059:       : _M_current(__i) { }
	.loc 15 1059 27
	nop	
.LBE403:
.LBE402:
 # D:/msys64/ucrt64/include/c++/15.2.0/bits/stl_vector.h:1009:       { return const_iterator(this->_M_impl._M_start); }
	.loc 5 1009 53 discriminator 1
	movq	-16(%rbp), %rax	 # D.101843, D.106864
 # D:/msys64/ucrt64/include/c++/15.2.0/bits/stl_vector.h:1009:       { return const_iterator(this->_M_impl._M_start); }
	.loc 5 1009 56
	addq	$16, %rsp	 #,
	popq	%rbp	 #
	.cfi_restore 6
	.cfi_def_cfa 7, 8
	ret	
	.cfi_endproc
.LFE5547:
	.seh_endproc
	.section	.text$_ZNKSt6vectorIdSaIdEE3endEv,"x"
	.linkonce discard
	.align 2
	.globl	_ZNKSt6vectorIdSaIdEE3endEv
	.def	_ZNKSt6vectorIdSaIdEE3endEv;	.scl	2;	.type	32;	.endef
	.seh_proc	_ZNKSt6vectorIdSaIdEE3endEv
_ZNKSt6vectorIdSaIdEE3endEv:
.LFB5548:
	.loc 5 1028 7
	.cfi_startproc
	pushq	%rbp	 #
	.seh_pushreg	%rbp
	.cfi_def_cfa_offset 16
	.cfi_offset 6, -16
	movq	%rsp, %rbp	 #,
	.seh_setframe	%rbp, 0
	.cfi_def_cfa_register 6
	subq	$16, %rsp	 #,
	.seh_stackalloc	16
	.seh_endprologue
	movq	%rcx, 16(%rbp)	 # this, this
 # D:/msys64/ucrt64/include/c++/15.2.0/bits/stl_vector.h:1029:       { return const_iterator(this->_M_impl._M_finish); }
	.loc 5 1029 45
	movq	16(%rbp), %rax	 # this, tmp102
	addq	$8, %rax	 #, _1
	movq	%rax, -8(%rbp)	 # _1, __i
.LBB405:
.LBB406:
.LBB407:
 # D:/msys64/ucrt64/include/c++/15.2.0/bits/stl_iterator.h:1059:       : _M_current(__i) { }
	.loc 15 1059 9
	movq	-8(%rbp), %rax	 # __i, tmp103
	movq	(%rax), %rax	 # *__i_6, _7
	movq	%rax, -16(%rbp)	 # _7, D.101848._M_current
.LBE407:
 # D:/msys64/ucrt64/include/c++/15.2.0/bits/stl_iterator.h:1059:       : _M_current(__i) { }
	.loc 15 1059 27
	nop	
.LBE406:
.LBE405:
 # D:/msys64/ucrt64/include/c++/15.2.0/bits/stl_vector.h:1029:       { return const_iterator(this->_M_impl._M_finish); }
	.loc 5 1029 54 discriminator 1
	movq	-16(%rbp), %rax	 # D.101848, D.106861
 # D:/msys64/ucrt64/include/c++/15.2.0/bits/stl_vector.h:1029:       { return const_iterator(this->_M_impl._M_finish); }
	.loc 5 1029 57
	addq	$16, %rsp	 #,
	popq	%rbp	 #
	.cfi_restore 6
	.cfi_def_cfa 7, 8
	ret	
	.cfi_endproc
.LFE5548:
	.seh_endproc
	.section	.text$_ZNSt6vectorIdSaIdEE20_M_allocate_and_copyIN9__gnu_cxx17__normal_iteratorIPKdS1_EEEEPdyT_S9_,"x"
	.linkonce discard
	.align 2
	.globl	_ZNSt6vectorIdSaIdEE20_M_allocate_and_copyIN9__gnu_cxx17__normal_iteratorIPKdS1_EEEEPdyT_S9_
	.def	_ZNSt6vectorIdSaIdEE20_M_allocate_and_copyIN9__gnu_cxx17__normal_iteratorIPKdS1_EEEEPdyT_S9_;	.scl	2;	.type	32;	.endef
	.seh_proc	_ZNSt6vectorIdSaIdEE20_M_allocate_and_copyIN9__gnu_cxx17__normal_iteratorIPKdS1_EEEEPdyT_S9_
_ZNSt6vectorIdSaIdEE20_M_allocate_and_copyIN9__gnu_cxx17__normal_iteratorIPKdS1_EEEEPdyT_S9_:
.LFB5549:
	.loc 5 1907 2
	.cfi_startproc
	pushq	%rbp	 #
	.seh_pushreg	%rbp
	.cfi_def_cfa_offset 16
	.cfi_offset 6, -16
	pushq	%rbx	 #
	.seh_pushreg	%rbx
	.cfi_def_cfa_offset 24
	.cfi_offset 3, -24
	subq	$72, %rsp	 #,
	.seh_stackalloc	72
	.cfi_def_cfa_offset 96
	leaq	64(%rsp), %rbp	 #,
	.seh_setframe	%rbp, 64
	.cfi_def_cfa 6, 32
	.seh_endprologue
	movq	%rcx, 32(%rbp)	 # this, this
	movq	%rdx, 40(%rbp)	 # __n, __n
	movq	%r8, 48(%rbp)	 # __first, __first
	movq	%r9, 56(%rbp)	 # __last, __last
 # D:/msys64/ucrt64/include/c++/15.2.0/bits/stl_vector.h:1910: 	  _Guard_alloc __guard(this->_M_allocate(__n), __n, *this);
	.loc 5 1910 17
	movq	32(%rbp), %rbx	 # this, _1
	movq	32(%rbp), %rax	 # this, _2
	movq	40(%rbp), %rdx	 # __n, tmp107
	movq	%rax, %rcx	 # _2,
.LEHB2:
	call	_ZNSt12_Vector_baseIdSaIdEE11_M_allocateEy	 #
.LEHE2:
	movq	%rax, %rdx	 #, _3
 # D:/msys64/ucrt64/include/c++/15.2.0/bits/stl_vector.h:1910: 	  _Guard_alloc __guard(this->_M_allocate(__n), __n, *this);
	.loc 5 1910 17 is_stmt 0 discriminator 2
	movq	40(%rbp), %rcx	 # __n, tmp108
	leaq	-32(%rbp), %rax	 #, tmp109
	movq	%rbx, %r9	 # _1,
	movq	%rcx, %r8	 # tmp108,
	movq	%rax, %rcx	 # tmp109,
	call	_ZNSt6vectorIdSaIdEE12_Guard_allocC1EPdyRSt12_Vector_baseIdS0_E	 #
 # D:/msys64/ucrt64/include/c++/15.2.0/bits/stl_vector.h:1912: 	    (__first, __last, __guard._M_storage, _M_get_Tp_allocator());
	.loc 5 1912 63 is_stmt 1
	movq	32(%rbp), %rax	 # this, _4
	movq	%rax, %rcx	 # _4,
	call	_ZNSt12_Vector_baseIdSaIdEE19_M_get_Tp_allocatorEv	 #
	movq	%rax, %rcx	 #, _5
 # D:/msys64/ucrt64/include/c++/15.2.0/bits/stl_vector.h:1912: 	    (__first, __last, __guard._M_storage, _M_get_Tp_allocator());
	.loc 5 1912 32 discriminator 1
	movq	-32(%rbp), %r8	 # __guard._M_storage, _6
 # D:/msys64/ucrt64/include/c++/15.2.0/bits/stl_vector.h:1912: 	    (__first, __last, __guard._M_storage, _M_get_Tp_allocator());
	.loc 5 1912 6 discriminator 1
	movq	56(%rbp), %rdx	 # __last, tmp110
	movq	48(%rbp), %rax	 # __first, tmp111
	movq	%rcx, %r9	 # _5,
	movq	%rax, %rcx	 # tmp111,
.LEHB3:
	call	_ZSt22__uninitialized_copy_aIN9__gnu_cxx17__normal_iteratorIPKdSt6vectorIdSaIdEEEES7_PddET1_T_T0_S9_RSaIT2_E	 #
.LEHE3:
 # D:/msys64/ucrt64/include/c++/15.2.0/bits/stl_vector.h:1913: 	  return __guard._M_release();
	.loc 5 1913 29
	leaq	-32(%rbp), %rax	 #, tmp112
	movq	%rax, %rcx	 # tmp112,
	call	_ZNSt6vectorIdSaIdEE12_Guard_alloc10_M_releaseEv	 #
	movq	%rax, %rbx	 #, _17
 # D:/msys64/ucrt64/include/c++/15.2.0/bits/stl_vector.h:1913: 	  return __guard._M_release();
	.loc 5 1913 30
	nop	
 # D:/msys64/ucrt64/include/c++/15.2.0/bits/stl_vector.h:1914: 	}
	.loc 5 1914 2
	leaq	-32(%rbp), %rax	 #, tmp113
	movq	%rax, %rcx	 # tmp113,
	call	_ZNSt6vectorIdSaIdEE12_Guard_allocD1Ev	 #
 # D:/msys64/ucrt64/include/c++/15.2.0/bits/stl_vector.h:1913: 	  return __guard._M_release();
	.loc 5 1913 30
	movq	%rbx, %rax	 # _17, <retval>
	jmp	.L91	 #
.L90:
 # D:/msys64/ucrt64/include/c++/15.2.0/bits/stl_vector.h:1914: 	}
	.loc 5 1914 2
	movq	%rax, %rbx	 #, tmp116
	leaq	-32(%rbp), %rax	 #, tmp115
	movq	%rax, %rcx	 # tmp115,
	call	_ZNSt6vectorIdSaIdEE12_Guard_allocD1Ev	 #
	movq	%rbx, %rax	 # tmp116, D.108022
	movq	%rax, %rcx	 # D.108022,
.LEHB4:
	call	_Unwind_Resume	 #
.LEHE4:
.L91:
	addq	$72, %rsp	 #,
	popq	%rbx	 #
	.cfi_restore 3
	popq	%rbp	 #
	.cfi_restore 6
	.cfi_def_cfa 7, -56
	ret	
	.cfi_endproc
.LFE5549:
	.seh_handler	__gxx_personality_seh0, @unwind, @except
	.seh_handlerdata
.LLSDA5549:
	.byte	0xff
	.byte	0xff
	.byte	0x1
	.uleb128 .LLSDACSE5549-.LLSDACSB5549
.LLSDACSB5549:
	.uleb128 .LEHB2-.LFB5549
	.uleb128 .LEHE2-.LEHB2
	.uleb128 0
	.uleb128 0
	.uleb128 .LEHB3-.LFB5549
	.uleb128 .LEHE3-.LEHB3
	.uleb128 .L90-.LFB5549
	.uleb128 0
	.uleb128 .LEHB4-.LFB5549
	.uleb128 .LEHE4-.LEHB4
	.uleb128 0
	.uleb128 0
.LLSDACSE5549:
	.section	.text$_ZNSt6vectorIdSaIdEE20_M_allocate_and_copyIN9__gnu_cxx17__normal_iteratorIPKdS1_EEEEPdyT_S9_,"x"
	.linkonce discard
	.seh_endproc
	.section	.text$_ZNSt6vectorIdSaIdEE5beginEv,"x"
	.linkonce discard
	.align 2
	.globl	_ZNSt6vectorIdSaIdEE5beginEv
	.def	_ZNSt6vectorIdSaIdEE5beginEv;	.scl	2;	.type	32;	.endef
	.seh_proc	_ZNSt6vectorIdSaIdEE5beginEv
_ZNSt6vectorIdSaIdEE5beginEv:
.LFB5550:
	.loc 5 998 7
	.cfi_startproc
	pushq	%rbp	 #
	.seh_pushreg	%rbp
	.cfi_def_cfa_offset 16
	.cfi_offset 6, -16
	movq	%rsp, %rbp	 #,
	.seh_setframe	%rbp, 0
	.cfi_def_cfa_register 6
	subq	$16, %rsp	 #,
	.seh_stackalloc	16
	.seh_endprologue
	movq	%rcx, 16(%rbp)	 # this, this
 # D:/msys64/ucrt64/include/c++/15.2.0/bits/stl_vector.h:999:       { return iterator(this->_M_impl._M_start); }
	.loc 5 999 39
	movq	16(%rbp), %rax	 # this, _1
	movq	%rax, -8(%rbp)	 # _1, __i
.LBB408:
.LBB409:
.LBB410:
 # D:/msys64/ucrt64/include/c++/15.2.0/bits/stl_iterator.h:1059:       : _M_current(__i) { }
	.loc 15 1059 9
	movq	-8(%rbp), %rax	 # __i, tmp102
	movq	(%rax), %rax	 # *__i_6, _7
	movq	%rax, -16(%rbp)	 # _7, D.101946._M_current
.LBE410:
 # D:/msys64/ucrt64/include/c++/15.2.0/bits/stl_iterator.h:1059:       : _M_current(__i) { }
	.loc 15 1059 27
	nop	
.LBE409:
.LBE408:
 # D:/msys64/ucrt64/include/c++/15.2.0/bits/stl_vector.h:999:       { return iterator(this->_M_impl._M_start); }
	.loc 5 999 47 discriminator 1
	movq	-16(%rbp), %rax	 # D.101946, D.106858
 # D:/msys64/ucrt64/include/c++/15.2.0/bits/stl_vector.h:999:       { return iterator(this->_M_impl._M_start); }
	.loc 5 999 50
	addq	$16, %rsp	 #,
	popq	%rbp	 #
	.cfi_restore 6
	.cfi_def_cfa 7, 8
	ret	
	.cfi_endproc
.LFE5550:
	.seh_endproc
	.section	.text$_ZSt4copyIN9__gnu_cxx17__normal_iteratorIPKdSt6vectorIdSaIdEEEENS1_IPdS6_EEET0_T_SB_SA_,"x"
	.linkonce discard
	.globl	_ZSt4copyIN9__gnu_cxx17__normal_iteratorIPKdSt6vectorIdSaIdEEEENS1_IPdS6_EEET0_T_SB_SA_
	.def	_ZSt4copyIN9__gnu_cxx17__normal_iteratorIPKdSt6vectorIdSaIdEEEENS1_IPdS6_EEET0_T_SB_SA_;	.scl	2;	.type	32;	.endef
	.seh_proc	_ZSt4copyIN9__gnu_cxx17__normal_iteratorIPKdSt6vectorIdSaIdEEEENS1_IPdS6_EEET0_T_SB_SA_
_ZSt4copyIN9__gnu_cxx17__normal_iteratorIPKdSt6vectorIdSaIdEEEENS1_IPdS6_EEET0_T_SB_SA_:
.LFB5551:
	.loc 3 633 5
	.cfi_startproc
	pushq	%rbp	 #
	.seh_pushreg	%rbp
	.cfi_def_cfa_offset 16
	.cfi_offset 6, -16
	pushq	%rbx	 #
	.seh_pushreg	%rbx
	.cfi_def_cfa_offset 24
	.cfi_offset 3, -24
	subq	$120, %rsp	 #,
	.seh_stackalloc	120
	.cfi_def_cfa_offset 144
	leaq	112(%rsp), %rbp	 #,
	.seh_setframe	%rbp, 112
	.cfi_def_cfa 6, 32
	.seh_endprologue
	movq	%rcx, 32(%rbp)	 # __first, __first
	movq	%rdx, 40(%rbp)	 # __last, __last
	movq	%r8, 48(%rbp)	 # __result, __result
 # D:/msys64/ucrt64/include/c++/15.2.0/bits/stl_algobase.h:642: 	     (std::__miter_base(__first), std::__miter_base(__last), __result);
	.loc 3 642 7
	movq	40(%rbp), %rax	 # __last, tmp110
	movq	%rax, %rcx	 # tmp110,
	call	_ZSt12__miter_baseIN9__gnu_cxx17__normal_iteratorIPKdSt6vectorIdSaIdEEEEET_S8_	 #
	movq	%rax, %rbx	 #, D.106868
 # D:/msys64/ucrt64/include/c++/15.2.0/bits/stl_algobase.h:642: 	     (std::__miter_base(__first), std::__miter_base(__last), __result);
	.loc 3 642 7 is_stmt 0 discriminator 1
	movq	32(%rbp), %rax	 # __first, tmp111
	movq	%rax, %rcx	 # tmp111,
	call	_ZSt12__miter_baseIN9__gnu_cxx17__normal_iteratorIPKdSt6vectorIdSaIdEEEEET_S8_	 #
	movq	%rax, -32(%rbp)	 # D.106869, __first
	movq	%rbx, -40(%rbp)	 # D.106868, __last
	movq	48(%rbp), %rax	 # __result, tmp112
	movq	%rax, -48(%rbp)	 # tmp112, __result
	movq	-48(%rbp), %rax	 # __result, tmp113
	movq	%rax, -56(%rbp)	 # tmp113, __it
.LBB411:
.LBB412:
.LBB413:
.LBB414:
.LBB415:
.LBB416:
 # D:/msys64/ucrt64/include/c++/15.2.0/bits/stl_iterator.h:1166:       { return _M_current; }
	.loc 15 1166 16 is_stmt 1
	leaq	-56(%rbp), %rax	 #, _4
.LBE416:
.LBE415:
 # D:/msys64/ucrt64/include/c++/15.2.0/bits/stl_iterator.h:3002:     { return __it.base(); }
	.loc 15 3002 24 discriminator 1
	movq	(%rax), %rax	 # *_6, _7
	movq	-40(%rbp), %rdx	 # __last, tmp114
	movq	%rdx, -64(%rbp)	 # tmp114, __it
.LBE414:
.LBE413:
.LBB417:
.LBB418:
.LBB419:
.LBB420:
 # D:/msys64/ucrt64/include/c++/15.2.0/bits/stl_iterator.h:1166:       { return _M_current; }
	.loc 15 1166 16
	leaq	-64(%rbp), %rdx	 #, _10
.LBE420:
.LBE419:
 # D:/msys64/ucrt64/include/c++/15.2.0/bits/stl_iterator.h:3002:     { return __it.base(); }
	.loc 15 3002 24 discriminator 1
	movq	(%rdx), %rdx	 # *_12, _13
	movq	-32(%rbp), %rcx	 # __first, tmp115
	movq	%rcx, -72(%rbp)	 # tmp115, __it
.LBE418:
.LBE417:
.LBB421:
.LBB422:
.LBB423:
.LBB424:
 # D:/msys64/ucrt64/include/c++/15.2.0/bits/stl_iterator.h:1166:       { return _M_current; }
	.loc 15 1166 16
	leaq	-72(%rbp), %rcx	 #, _16
.LBE424:
.LBE423:
 # D:/msys64/ucrt64/include/c++/15.2.0/bits/stl_iterator.h:3002:     { return __it.base(); }
	.loc 15 3002 24 discriminator 1
	movq	(%rcx), %rcx	 # *_18, _19
	movq	%rcx, -8(%rbp)	 # _19, __first
	movq	%rdx, -16(%rbp)	 # _13, __last
	movq	%rax, -24(%rbp)	 # _7, __result
.LBE422:
.LBE421:
.LBB425:
.LBB426:
 # D:/msys64/ucrt64/include/c++/15.2.0/bits/stl_algobase.h:492:     { return std::__copy_move_a2<_IsMove>(__first, __last, __result); }
	.loc 3 492 42
	movq	-24(%rbp), %rcx	 # __result, tmp116
	movq	-16(%rbp), %rdx	 # __last, tmp117
	movq	-8(%rbp), %rax	 # __first, tmp118
	movq	%rcx, %r8	 # tmp116,
	movq	%rax, %rcx	 # tmp118,
	call	_ZSt14__copy_move_a2ILb0EPKdS1_PdET2_T0_T1_S3_	 #
	movq	%rax, %rdx	 #, _25
 # D:/msys64/ucrt64/include/c++/15.2.0/bits/stl_algobase.h:492:     { return std::__copy_move_a2<_IsMove>(__first, __last, __result); }
	.loc 3 492 68
	nop	
.LBE426:
.LBE425:
 # D:/msys64/ucrt64/include/c++/15.2.0/bits/stl_algobase.h:500:       return std::__niter_wrap(__result,
	.loc 3 500 31 discriminator 4
	movq	-48(%rbp), %rax	 # __result, tmp119
	movq	%rax, %rcx	 # tmp119,
	call	_ZSt12__niter_wrapIN9__gnu_cxx17__normal_iteratorIPdSt6vectorIdSaIdEEEES2_ET_S7_T0_	 #
 # D:/msys64/ucrt64/include/c++/15.2.0/bits/stl_algobase.h:503: 					     std::__niter_base(__result)));
	.loc 3 503 39
	nop	
.LBE412:
.LBE411:
 # D:/msys64/ucrt64/include/c++/15.2.0/bits/stl_algobase.h:643:     }
	.loc 3 643 5
	addq	$120, %rsp	 #,
	popq	%rbx	 #
	.cfi_restore 3
	popq	%rbp	 #
	.cfi_restore 6
	.cfi_def_cfa 7, -104
	ret	
	.cfi_endproc
.LFE5551:
	.seh_endproc
	.section	.text$_ZNSt6vectorIdSaIdEE3endEv,"x"
	.linkonce discard
	.align 2
	.globl	_ZNSt6vectorIdSaIdEE3endEv
	.def	_ZNSt6vectorIdSaIdEE3endEv;	.scl	2;	.type	32;	.endef
	.seh_proc	_ZNSt6vectorIdSaIdEE3endEv
_ZNSt6vectorIdSaIdEE3endEv:
.LFB5552:
	.loc 5 1018 7
	.cfi_startproc
	pushq	%rbp	 #
	.seh_pushreg	%rbp
	.cfi_def_cfa_offset 16
	.cfi_offset 6, -16
	movq	%rsp, %rbp	 #,
	.seh_setframe	%rbp, 0
	.cfi_def_cfa_register 6
	subq	$16, %rsp	 #,
	.seh_stackalloc	16
	.seh_endprologue
	movq	%rcx, 16(%rbp)	 # this, this
 # D:/msys64/ucrt64/include/c++/15.2.0/bits/stl_vector.h:1019:       { return iterator(this->_M_impl._M_finish); }
	.loc 5 1019 39
	movq	16(%rbp), %rax	 # this, tmp102
	addq	$8, %rax	 #, _1
	movq	%rax, -8(%rbp)	 # _1, __i
.LBB427:
.LBB428:
.LBB429:
 # D:/msys64/ucrt64/include/c++/15.2.0/bits/stl_iterator.h:1059:       : _M_current(__i) { }
	.loc 15 1059 9
	movq	-8(%rbp), %rax	 # __i, tmp103
	movq	(%rax), %rax	 # *__i_6, _7
	movq	%rax, -16(%rbp)	 # _7, D.101994._M_current
.LBE429:
 # D:/msys64/ucrt64/include/c++/15.2.0/bits/stl_iterator.h:1059:       : _M_current(__i) { }
	.loc 15 1059 27
	nop	
.LBE428:
.LBE427:
 # D:/msys64/ucrt64/include/c++/15.2.0/bits/stl_vector.h:1019:       { return iterator(this->_M_impl._M_finish); }
	.loc 5 1019 48 discriminator 1
	movq	-16(%rbp), %rax	 # D.101994, D.106855
 # D:/msys64/ucrt64/include/c++/15.2.0/bits/stl_vector.h:1019:       { return iterator(this->_M_impl._M_finish); }
	.loc 5 1019 51
	addq	$16, %rsp	 #,
	popq	%rbp	 #
	.cfi_restore 6
	.cfi_def_cfa 7, 8
	ret	
	.cfi_endproc
.LFE5552:
	.seh_endproc
	.section	.text$_ZSt4copyIPdS0_ET0_T_S2_S1_,"x"
	.linkonce discard
	.globl	_ZSt4copyIPdS0_ET0_T_S2_S1_
	.def	_ZSt4copyIPdS0_ET0_T_S2_S1_;	.scl	2;	.type	32;	.endef
	.seh_proc	_ZSt4copyIPdS0_ET0_T_S2_S1_
_ZSt4copyIPdS0_ET0_T_S2_S1_:
.LFB5554:
	.loc 3 633 5
	.cfi_startproc
	pushq	%rbp	 #
	.seh_pushreg	%rbp
	.cfi_def_cfa_offset 16
	.cfi_offset 6, -16
	pushq	%rbx	 #
	.seh_pushreg	%rbx
	.cfi_def_cfa_offset 24
	.cfi_offset 3, -24
	subq	$120, %rsp	 #,
	.seh_stackalloc	120
	.cfi_def_cfa_offset 144
	leaq	112(%rsp), %rbp	 #,
	.seh_setframe	%rbp, 112
	.cfi_def_cfa 6, 32
	.seh_endprologue
	movq	%rcx, 32(%rbp)	 # __first, __first
	movq	%rdx, 40(%rbp)	 # __last, __last
	movq	%r8, 48(%rbp)	 # __result, __result
 # D:/msys64/ucrt64/include/c++/15.2.0/bits/stl_algobase.h:642: 	     (std::__miter_base(__first), std::__miter_base(__last), __result);
	.loc 3 642 7
	movq	40(%rbp), %rax	 # __last, tmp107
	movq	%rax, %rcx	 # tmp107,
	call	_ZSt12__miter_baseIPdET_S1_	 #
	movq	%rax, %rbx	 #, _1
 # D:/msys64/ucrt64/include/c++/15.2.0/bits/stl_algobase.h:642: 	     (std::__miter_base(__first), std::__miter_base(__last), __result);
	.loc 3 642 7 is_stmt 0 discriminator 1
	movq	32(%rbp), %rax	 # __first, tmp108
	movq	%rax, %rcx	 # tmp108,
	call	_ZSt12__miter_baseIPdET_S1_	 #
	movq	%rax, -8(%rbp)	 # _2, __first
	movq	%rbx, -16(%rbp)	 # _1, __last
	movq	48(%rbp), %rax	 # __result, tmp109
	movq	%rax, -80(%rbp)	 # tmp109, __result
.LBB430:
.LBB431:
 # D:/msys64/ucrt64/include/c++/15.2.0/bits/stl_algobase.h:500:       return std::__niter_wrap(__result,
	.loc 3 500 31 is_stmt 1
	movq	-80(%rbp), %rax	 # __result, __result.36_13
	movq	%rax, -24(%rbp)	 # __result.36_13, __it
.LBB432:
.LBB433:
 # D:/msys64/ucrt64/include/c++/15.2.0/bits/stl_iterator.h:3011:     { return __it; }
	.loc 15 3011 14
	movq	-24(%rbp), %rax	 # __it, _15
	movq	-16(%rbp), %rdx	 # __last, tmp110
	movq	%rdx, -32(%rbp)	 # tmp110, __it
.LBE433:
.LBE432:
.LBB434:
.LBB435:
	movq	-32(%rbp), %rdx	 # __it, _19
	movq	-8(%rbp), %rcx	 # __first, tmp111
	movq	%rcx, -40(%rbp)	 # tmp111, __it
.LBE435:
.LBE434:
.LBB436:
.LBB437:
	movq	-40(%rbp), %rcx	 # __it, _23
	movq	%rcx, -48(%rbp)	 # _23, __first
	movq	%rdx, -56(%rbp)	 # _19, __last
	movq	%rax, -64(%rbp)	 # _15, __result
.LBE437:
.LBE436:
.LBB438:
.LBB439:
 # D:/msys64/ucrt64/include/c++/15.2.0/bits/stl_algobase.h:492:     { return std::__copy_move_a2<_IsMove>(__first, __last, __result); }
	.loc 3 492 42
	movq	-64(%rbp), %rcx	 # __result, tmp112
	movq	-56(%rbp), %rdx	 # __last, tmp113
	movq	-48(%rbp), %rax	 # __first, tmp114
	movq	%rcx, %r8	 # tmp112,
	movq	%rax, %rcx	 # tmp114,
	call	_ZSt14__copy_move_a2ILb0EPdS0_S0_ET2_T0_T1_S1_	 #
 # D:/msys64/ucrt64/include/c++/15.2.0/bits/stl_algobase.h:492:     { return std::__copy_move_a2<_IsMove>(__first, __last, __result); }
	.loc 3 492 68
	nop	
	movq	%rax, -72(%rbp)	 # _29, __res
.LBE439:
.LBE438:
.LBB440:
.LBB441:
 # D:/msys64/ucrt64/include/c++/15.2.0/bits/stl_iterator.h:3082:     { return __res; }
	.loc 15 3082 14
	movq	-72(%rbp), %rax	 # __res, D.107867
.LBE441:
.LBE440:
 # D:/msys64/ucrt64/include/c++/15.2.0/bits/stl_algobase.h:503: 					     std::__niter_base(__result)));
	.loc 3 503 39
	nop	
.LBE431:
.LBE430:
 # D:/msys64/ucrt64/include/c++/15.2.0/bits/stl_algobase.h:643:     }
	.loc 3 643 5
	addq	$120, %rsp	 #,
	popq	%rbx	 #
	.cfi_restore 3
	popq	%rbp	 #
	.cfi_restore 6
	.cfi_def_cfa 7, -104
	ret	
	.cfi_endproc
.LFE5554:
	.seh_endproc
	.section	.text$_ZSt22__uninitialized_copy_aIPdS0_S0_dET1_T_T0_S1_RSaIT2_E,"x"
	.linkonce discard
	.globl	_ZSt22__uninitialized_copy_aIPdS0_S0_dET1_T_T0_S1_RSaIT2_E
	.def	_ZSt22__uninitialized_copy_aIPdS0_S0_dET1_T_T0_S1_RSaIT2_E;	.scl	2;	.type	32;	.endef
	.seh_proc	_ZSt22__uninitialized_copy_aIPdS0_S0_dET1_T_T0_S1_RSaIT2_E
_ZSt22__uninitialized_copy_aIPdS0_S0_dET1_T_T0_S1_RSaIT2_E:
.LFB5555:
	.file 16 "D:/msys64/ucrt64/include/c++/15.2.0/bits/stl_uninitialized.h"
	.loc 16 613 5
	.cfi_startproc
	pushq	%rbp	 #
	.seh_pushreg	%rbp
	.cfi_def_cfa_offset 16
	.cfi_offset 6, -16
	movq	%rsp, %rbp	 #,
	.seh_setframe	%rbp, 0
	.cfi_def_cfa_register 6
	subq	$32, %rsp	 #,
	.seh_stackalloc	32
	.seh_endprologue
	movq	%rcx, 16(%rbp)	 # __first, __first
	movq	%rdx, 24(%rbp)	 # __last, __last
	movq	%r8, 32(%rbp)	 # __result, __result
	movq	%r9, 40(%rbp)	 # D.102037, D.102037
 # D:/msys64/ucrt64/include/c++/15.2.0/bits/stl_uninitialized.h:617:       if (std::is_constant_evaluated())
	.loc 16 617 37
	call	_ZSt21is_constant_evaluatedv	 #
 # D:/msys64/ucrt64/include/c++/15.2.0/bits/stl_uninitialized.h:617:       if (std::is_constant_evaluated())
	.loc 16 617 7 discriminator 1
	testb	%al, %al	 # retval.49_9
	je	.L115	 #,
.LBB442:
.LBB443:
 # D:/msys64/ucrt64/include/c++/15.2.0/bits/move.h:139:     { return static_cast<typename std::remove_reference<_Tp>::type&&>(__t); }
	.loc 12 139 74
	leaq	16(%rbp), %rax	 #, D.107599
.LBE443:
.LBE442:
 # D:/msys64/ucrt64/include/c++/15.2.0/bits/stl_uninitialized.h:618: 	return std::__do_uninit_copy(std::move(__first), __last, __result);
	.loc 16 618 30 discriminator 1
	movq	(%rax), %rax	 # *_1, _2
	movq	32(%rbp), %rcx	 # __result, tmp105
	movq	24(%rbp), %rdx	 # __last, tmp106
	movq	%rcx, %r8	 # tmp105,
	movq	%rax, %rcx	 # _2,
	call	_ZSt16__do_uninit_copyIPdS0_S0_ET1_T_T0_S1_	 #
 # D:/msys64/ucrt64/include/c++/15.2.0/bits/stl_uninitialized.h:618: 	return std::__do_uninit_copy(std::move(__first), __last, __result);
	.loc 16 618 67
	jmp	.L117	 #
.L115:
.LBB444:
.LBB445:
 # D:/msys64/ucrt64/include/c++/15.2.0/bits/move.h:139:     { return static_cast<typename std::remove_reference<_Tp>::type&&>(__t); }
	.loc 12 139 74
	leaq	16(%rbp), %rax	 #, D.107603
.LBE445:
.LBE444:
 # D:/msys64/ucrt64/include/c++/15.2.0/bits/stl_uninitialized.h:635: 	return std::uninitialized_copy(std::move(__first), __last, __result);
	.loc 16 635 32 discriminator 1
	movq	(%rax), %rax	 # *_3, _4
	movq	32(%rbp), %rcx	 # __result, tmp107
	movq	24(%rbp), %rdx	 # __last, tmp108
	movq	%rcx, %r8	 # tmp107,
	movq	%rax, %rcx	 # _4,
	call	_ZSt18uninitialized_copyIPdS0_ET0_T_S2_S1_	 #
 # D:/msys64/ucrt64/include/c++/15.2.0/bits/stl_uninitialized.h:635: 	return std::uninitialized_copy(std::move(__first), __last, __result);
	.loc 16 635 69
	nop	
.L117:
 # D:/msys64/ucrt64/include/c++/15.2.0/bits/stl_uninitialized.h:639:     }
	.loc 16 639 5
	addq	$32, %rsp	 #,
	popq	%rbp	 #
	.cfi_restore 6
	.cfi_def_cfa 7, 8
	ret	
	.cfi_endproc
.LFE5555:
	.seh_endproc
	.section	.text$_ZSt3maxIyERKT_S2_S2_,"x"
	.linkonce discard
	.globl	_ZSt3maxIyERKT_S2_S2_
	.def	_ZSt3maxIyERKT_S2_S2_;	.scl	2;	.type	32;	.endef
	.seh_proc	_ZSt3maxIyERKT_S2_S2_
_ZSt3maxIyERKT_S2_S2_:
.LFB5558:
	.loc 3 258 5
	.cfi_startproc
	pushq	%rbp	 #
	.seh_pushreg	%rbp
	.cfi_def_cfa_offset 16
	.cfi_offset 6, -16
	movq	%rsp, %rbp	 #,
	.seh_setframe	%rbp, 0
	.cfi_def_cfa_register 6
	.seh_endprologue
	movq	%rcx, 16(%rbp)	 # __a, __a
	movq	%rdx, 24(%rbp)	 # __b, __b
 # D:/msys64/ucrt64/include/c++/15.2.0/bits/stl_algobase.h:263:       if (__a < __b)
	.loc 3 263 15
	movq	16(%rbp), %rax	 # __a, tmp102
	movq	(%rax), %rdx	 # *__a_5(D), _1
	movq	24(%rbp), %rax	 # __b, tmp103
	movq	(%rax), %rax	 # *__b_6(D), _2
 # D:/msys64/ucrt64/include/c++/15.2.0/bits/stl_algobase.h:263:       if (__a < __b)
	.loc 3 263 7
	cmpq	%rax, %rdx	 # _2, _1
	jnb	.L120	 #,
 # D:/msys64/ucrt64/include/c++/15.2.0/bits/stl_algobase.h:264: 	return __b;
	.loc 3 264 9
	movq	24(%rbp), %rax	 # __b, _3
	jmp	.L121	 #
.L120:
 # D:/msys64/ucrt64/include/c++/15.2.0/bits/stl_algobase.h:265:       return __a;
	.loc 3 265 14
	movq	16(%rbp), %rax	 # __a, _3
.L121:
 # D:/msys64/ucrt64/include/c++/15.2.0/bits/stl_algobase.h:266:     }
	.loc 3 266 5
	popq	%rbp	 #
	.cfi_restore 6
	.cfi_def_cfa 7, 8
	ret	
	.cfi_endproc
.LFE5558:
	.seh_endproc
	.section	.text$_ZNKSt6vectorIdSaIdEE12_M_check_lenEyPKc,"x"
	.linkonce discard
	.align 2
	.globl	_ZNKSt6vectorIdSaIdEE12_M_check_lenEyPKc
	.def	_ZNKSt6vectorIdSaIdEE12_M_check_lenEyPKc;	.scl	2;	.type	32;	.endef
	.seh_proc	_ZNKSt6vectorIdSaIdEE12_M_check_lenEyPKc
_ZNKSt6vectorIdSaIdEE12_M_check_lenEyPKc:
.LFB5557:
	.loc 5 2197 7
	.cfi_startproc
	pushq	%rbp	 #
	.seh_pushreg	%rbp
	.cfi_def_cfa_offset 16
	.cfi_offset 6, -16
	pushq	%rbx	 #
	.seh_pushreg	%rbx
	.cfi_def_cfa_offset 24
	.cfi_offset 3, -24
	subq	$56, %rsp	 #,
	.seh_stackalloc	56
	.cfi_def_cfa_offset 80
	leaq	48(%rsp), %rbp	 #,
	.seh_setframe	%rbp, 48
	.cfi_def_cfa 6, 32
	.seh_endprologue
	movq	%rcx, 32(%rbp)	 # this, this
	movq	%rdx, 40(%rbp)	 # __n, __n
	movq	%r8, 48(%rbp)	 # __s, __s
 # D:/msys64/ucrt64/include/c++/15.2.0/bits/stl_vector.h:2199: 	if (max_size() - size() < __n)
	.loc 5 2199 14
	movq	32(%rbp), %rax	 # this, tmp111
	movq	%rax, %rcx	 # tmp111,
	call	_ZNKSt6vectorIdSaIdEE8max_sizeEv	 #
	movq	%rax, %rbx	 #, _1
 # D:/msys64/ucrt64/include/c++/15.2.0/bits/stl_vector.h:2199: 	if (max_size() - size() < __n)
	.loc 5 2199 23 discriminator 1
	movq	32(%rbp), %rax	 # this, tmp112
	movq	%rax, %rcx	 # tmp112,
	call	_ZNKSt6vectorIdSaIdEE4sizeEv	 #
 # D:/msys64/ucrt64/include/c++/15.2.0/bits/stl_vector.h:2199: 	if (max_size() - size() < __n)
	.loc 5 2199 17 discriminator 2
	subq	%rax, %rbx	 # _2, _1
	movq	%rbx, %rdx	 # _1, _3
 # D:/msys64/ucrt64/include/c++/15.2.0/bits/stl_vector.h:2199: 	if (max_size() - size() < __n)
	.loc 5 2199 26 discriminator 2
	movq	40(%rbp), %rax	 # __n, __n.60_4
	cmpq	%rax, %rdx	 # __n.60_4, _3
	setb	%al	 #, retval.59_18
 # D:/msys64/ucrt64/include/c++/15.2.0/bits/stl_vector.h:2199: 	if (max_size() - size() < __n)
	.loc 5 2199 2 discriminator 2
	testb	%al, %al	 # retval.59_18
	je	.L123	 #,
 # D:/msys64/ucrt64/include/c++/15.2.0/bits/stl_vector.h:2200: 	  __throw_length_error(__N(__s));
	.loc 5 2200 24
	movq	48(%rbp), %rax	 # __s, tmp113
	movq	%rax, %rcx	 # tmp113,
	call	_ZSt20__throw_length_errorPKc	 #
.L123:
 # D:/msys64/ucrt64/include/c++/15.2.0/bits/stl_vector.h:2202: 	const size_type __len = size() + (std::max)(size(), __n);
	.loc 5 2202 30
	movq	32(%rbp), %rax	 # this, tmp114
	movq	%rax, %rcx	 # tmp114,
	call	_ZNKSt6vectorIdSaIdEE4sizeEv	 #
	movq	%rax, %rbx	 #, _5
 # D:/msys64/ucrt64/include/c++/15.2.0/bits/stl_vector.h:2202: 	const size_type __len = size() + (std::max)(size(), __n);
	.loc 5 2202 50 discriminator 1
	movq	32(%rbp), %rax	 # this, tmp115
	movq	%rax, %rcx	 # tmp115,
	call	_ZNKSt6vectorIdSaIdEE4sizeEv	 #
 # D:/msys64/ucrt64/include/c++/15.2.0/bits/stl_vector.h:2202: 	const size_type __len = size() + (std::max)(size(), __n);
	.loc 5 2202 50 is_stmt 0 discriminator 2
	movq	%rax, -16(%rbp)	 # _6, D.102082
 # D:/msys64/ucrt64/include/c++/15.2.0/bits/stl_vector.h:2202: 	const size_type __len = size() + (std::max)(size(), __n);
	.loc 5 2202 45 is_stmt 1 discriminator 2
	leaq	40(%rbp), %rdx	 #, tmp116
	leaq	-16(%rbp), %rax	 #, tmp117
	movq	%rax, %rcx	 # tmp117,
	call	_ZSt3maxIyERKT_S2_S2_	 #
 # D:/msys64/ucrt64/include/c++/15.2.0/bits/stl_vector.h:2202: 	const size_type __len = size() + (std::max)(size(), __n);
	.loc 5 2202 33 discriminator 3
	movq	(%rax), %rax	 # *_7, _8
 # D:/msys64/ucrt64/include/c++/15.2.0/bits/stl_vector.h:2202: 	const size_type __len = size() + (std::max)(size(), __n);
	.loc 5 2202 18 discriminator 3
	addq	%rbx, %rax	 # _5, tmp118
	movq	%rax, -8(%rbp)	 # tmp118, __len
 # D:/msys64/ucrt64/include/c++/15.2.0/bits/stl_vector.h:2203: 	return (__len < size() || __len > max_size()) ? max_size() : __len;
	.loc 5 2203 22
	movq	32(%rbp), %rax	 # this, tmp119
	movq	%rax, %rcx	 # tmp119,
	call	_ZNKSt6vectorIdSaIdEE4sizeEv	 #
 # D:/msys64/ucrt64/include/c++/15.2.0/bits/stl_vector.h:2203: 	return (__len < size() || __len > max_size()) ? max_size() : __len;
	.loc 5 2203 48 discriminator 1
	cmpq	%rax, -8(%rbp)	 # _9, __len
	jb	.L124	 #,
 # D:/msys64/ucrt64/include/c++/15.2.0/bits/stl_vector.h:2203: 	return (__len < size() || __len > max_size()) ? max_size() : __len;
	.loc 5 2203 44 discriminator 3
	movq	32(%rbp), %rax	 # this, tmp120
	movq	%rax, %rcx	 # tmp120,
	call	_ZNKSt6vectorIdSaIdEE8max_sizeEv	 #
 # D:/msys64/ucrt64/include/c++/15.2.0/bits/stl_vector.h:2203: 	return (__len < size() || __len > max_size()) ? max_size() : __len;
	.loc 5 2203 25 discriminator 4
	cmpq	-8(%rbp), %rax	 # __len, _10
	jnb	.L125	 #,
.L124:
 # D:/msys64/ucrt64/include/c++/15.2.0/bits/stl_vector.h:2203: 	return (__len < size() || __len > max_size()) ? max_size() : __len;
	.loc 5 2203 58 discriminator 5
	movq	32(%rbp), %rax	 # this, tmp121
	movq	%rax, %rcx	 # tmp121,
	call	_ZNKSt6vectorIdSaIdEE8max_sizeEv	 #
 # D:/msys64/ucrt64/include/c++/15.2.0/bits/stl_vector.h:2203: 	return (__len < size() || __len > max_size()) ? max_size() : __len;
	.loc 5 2203 63
	jmp	.L127	 #
.L125:
 # D:/msys64/ucrt64/include/c++/15.2.0/bits/stl_vector.h:2203: 	return (__len < size() || __len > max_size()) ? max_size() : __len;
	.loc 5 2203 63 is_stmt 0 discriminator 6
	movq	-8(%rbp), %rax	 # __len, _11
.L127:
 # D:/msys64/ucrt64/include/c++/15.2.0/bits/stl_vector.h:2204:       }
	.loc 5 2204 7 is_stmt 1
	addq	$56, %rsp	 #,
	popq	%rbx	 #
	.cfi_restore 3
	popq	%rbp	 #
	.cfi_restore 6
	.cfi_def_cfa 7, -40
	ret	
	.cfi_endproc
.LFE5557:
	.seh_endproc
	.section .rdata,"dr"
.LC7:
	.ascii "vector::_M_default_append\0"
	.section	.text$_ZNSt6vectorIdSaIdEE17_M_default_appendEy,"x"
	.linkonce discard
	.align 2
	.globl	_ZNSt6vectorIdSaIdEE17_M_default_appendEy
	.def	_ZNSt6vectorIdSaIdEE17_M_default_appendEy;	.scl	2;	.type	32;	.endef
	.seh_proc	_ZNSt6vectorIdSaIdEE17_M_default_appendEy
_ZNSt6vectorIdSaIdEE17_M_default_appendEy:
.LFB5556:
	.loc 11 757 5
	.cfi_startproc
	pushq	%rbp	 #
	.seh_pushreg	%rbp
	.cfi_def_cfa_offset 16
	.cfi_offset 6, -16
	pushq	%rbx	 #
	.seh_pushreg	%rbx
	.cfi_def_cfa_offset 24
	.cfi_offset 3, -24
	subq	$120, %rsp	 #,
	.seh_stackalloc	120
	.cfi_def_cfa_offset 144
	leaq	112(%rsp), %rbp	 #,
	.seh_setframe	%rbp, 112
	.cfi_def_cfa 6, 32
	.seh_endprologue
	movq	%rcx, 32(%rbp)	 # this, this
	movq	%rdx, 40(%rbp)	 # __n, __n
.LBB446:
 # D:/msys64/ucrt64/include/c++/15.2.0/bits/vector.tcc:760:       if (__n != 0)
	.loc 11 760 7
	cmpq	$0, 40(%rbp)	 #, __n
	je	.L138	 #,
.LBB447:
 # D:/msys64/ucrt64/include/c++/15.2.0/bits/vector.tcc:762: 	  const size_type __size = size();
	.loc 11 762 33
	movq	32(%rbp), %rax	 # this, tmp131
	movq	%rax, %rcx	 # tmp131,
	call	_ZNKSt6vectorIdSaIdEE4sizeEv	 #
	movq	%rax, -8(%rbp)	 # tmp132, __size
 # D:/msys64/ucrt64/include/c++/15.2.0/bits/vector.tcc:763: 	  size_type __navail = size_type(this->_M_impl._M_end_of_storage
	.loc 11 763 49
	movq	32(%rbp), %rax	 # this, tmp133
	movq	16(%rax), %rdx	 # this_36(D)->D.68084._M_impl.D.67390._M_end_of_storage, _1
 # D:/msys64/ucrt64/include/c++/15.2.0/bits/vector.tcc:764: 					 - this->_M_impl._M_finish);
	.loc 11 764 23
	movq	32(%rbp), %rax	 # this, tmp134
	movq	8(%rax), %rax	 # this_36(D)->D.68084._M_impl.D.67390._M_finish, _2
 # D:/msys64/ucrt64/include/c++/15.2.0/bits/vector.tcc:764: 					 - this->_M_impl._M_finish);
	.loc 11 764 7
	subq	%rax, %rdx	 # _2, _3
	movq	%rdx, %rax	 # _3, _3
	sarq	$3, %rax	 #, _3
 # D:/msys64/ucrt64/include/c++/15.2.0/bits/vector.tcc:763: 	  size_type __navail = size_type(this->_M_impl._M_end_of_storage
	.loc 11 763 14
	movq	%rax, -16(%rbp)	 # _4, __navail
 # D:/msys64/ucrt64/include/c++/15.2.0/bits/vector.tcc:766: 	  if (__size > max_size() || __navail > max_size() - __size)
	.loc 11 766 25
	movq	32(%rbp), %rax	 # this, tmp136
	movq	%rax, %rcx	 # tmp136,
	call	_ZNKSt6vectorIdSaIdEE8max_sizeEv	 #
 # D:/msys64/ucrt64/include/c++/15.2.0/bits/vector.tcc:766: 	  if (__size > max_size() || __navail > max_size() - __size)
	.loc 11 766 28 discriminator 1
	cmpq	-8(%rbp), %rax	 # __size, _5
	jb	.L130	 #,
 # D:/msys64/ucrt64/include/c++/15.2.0/bits/vector.tcc:766: 	  if (__size > max_size() || __navail > max_size() - __size)
	.loc 11 766 50 discriminator 3
	movq	32(%rbp), %rax	 # this, tmp137
	movq	%rax, %rcx	 # tmp137,
	call	_ZNKSt6vectorIdSaIdEE8max_sizeEv	 #
 # D:/msys64/ucrt64/include/c++/15.2.0/bits/vector.tcc:766: 	  if (__size > max_size() || __navail > max_size() - __size)
	.loc 11 766 53 discriminator 4
	subq	-8(%rbp), %rax	 # __size, _7
 # D:/msys64/ucrt64/include/c++/15.2.0/bits/vector.tcc:766: 	  if (__size > max_size() || __navail > max_size() - __size)
	.loc 11 766 28 discriminator 4
	cmpq	-16(%rbp), %rax	 # __navail, _7
	jnb	.L131	 #,
.L130:
 # D:/msys64/ucrt64/include/c++/15.2.0/bits/vector.tcc:766: 	  if (__size > max_size() || __navail > max_size() - __size)
	.loc 11 766 28 is_stmt 0 discriminator 5
	movl	$1, %eax	 #, iftmp.58_30
 # D:/msys64/ucrt64/include/c++/15.2.0/bits/vector.tcc:766: 	  if (__size > max_size() || __navail > max_size() - __size)
	.loc 11 766 28
	jmp	.L132	 #
.L131:
 # D:/msys64/ucrt64/include/c++/15.2.0/bits/vector.tcc:766: 	  if (__size > max_size() || __navail > max_size() - __size)
	.loc 11 766 28 discriminator 6
	movl	$0, %eax	 #, iftmp.58_30
.L132:
 # D:/msys64/ucrt64/include/c++/15.2.0/bits/vector.tcc:766: 	  if (__size > max_size() || __navail > max_size() - __size)
	.loc 11 766 4 is_stmt 1 discriminator 8
	testb	%al, %al	 # iftmp.58_30
.LBB448:
 # D:/msys64/ucrt64/include/c++/15.2.0/bits/vector.tcc:769: 	  if (__navail >= __n)
	.loc 11 769 4
	movq	-16(%rbp), %rax	 # __navail, tmp138
	cmpq	40(%rbp), %rax	 # __n, tmp138
	jb	.L134	 #,
 # D:/msys64/ucrt64/include/c++/15.2.0/bits/vector.tcc:771: 	      if (!this->_M_impl._M_finish)
	.loc 11 771 27
	movq	32(%rbp), %rax	 # this, tmp139
	movq	8(%rax), %rax	 # this_36(D)->D.68084._M_impl.D.67390._M_finish, _8
 # D:/msys64/ucrt64/include/c++/15.2.0/bits/vector.tcc:771: 	      if (!this->_M_impl._M_finish)
	.loc 11 771 8
	testq	%rax, %rax	 # _8
 # D:/msys64/ucrt64/include/c++/15.2.0/bits/vector.tcc:777: 						 __n, _M_get_Tp_allocator());
	.loc 11 777 32
	movq	32(%rbp), %rax	 # this, _9
	movq	%rax, %rcx	 # _9,
	call	_ZNSt12_Vector_baseIdSaIdEE19_M_get_Tp_allocatorEv	 #
	movq	%rax, %rcx	 #, _10
 # D:/msys64/ucrt64/include/c++/15.2.0/bits/vector.tcc:776: 		std::__uninitialized_default_n_a(this->_M_impl._M_finish,
	.loc 11 776 50
	movq	32(%rbp), %rax	 # this, tmp140
	movq	8(%rax), %rax	 # this_36(D)->D.68084._M_impl.D.67390._M_finish, _11
 # D:/msys64/ucrt64/include/c++/15.2.0/bits/vector.tcc:776: 		std::__uninitialized_default_n_a(this->_M_impl._M_finish,
	.loc 11 776 35
	movq	40(%rbp), %rdx	 # __n, tmp141
	movq	%rcx, %r8	 # _10,
	movq	%rax, %rcx	 # _11,
.LEHB5:
	call	_ZSt27__uninitialized_default_n_aIPdydET_S1_T0_RSaIT1_E	 #
 # D:/msys64/ucrt64/include/c++/15.2.0/bits/vector.tcc:775: 	      this->_M_impl._M_finish =
	.loc 11 775 32
	movq	32(%rbp), %rdx	 # this, tmp142
	movq	%rax, 8(%rdx)	 # _12, this_36(D)->D.68084._M_impl.D.67390._M_finish
.LBE448:
.LBE447:
.LBE446:
 # D:/msys64/ucrt64/include/c++/15.2.0/bits/vector.tcc:844:     }
	.loc 11 844 5
	jmp	.L138	 #
.L134:
.LBB457:
.LBB455:
.LBB453:
.LBB449:
 # D:/msys64/ucrt64/include/c++/15.2.0/bits/vector.tcc:784: 	      pointer __old_start = this->_M_impl._M_start;
	.loc 11 784 16
	movq	32(%rbp), %rax	 # this, tmp143
	movq	(%rax), %rax	 # this_36(D)->D.68084._M_impl.D.67390._M_start, tmp144
	movq	%rax, -24(%rbp)	 # tmp144, __old_start
 # D:/msys64/ucrt64/include/c++/15.2.0/bits/vector.tcc:785: 	      pointer __old_finish = this->_M_impl._M_finish;
	.loc 11 785 16
	movq	32(%rbp), %rax	 # this, tmp145
	movq	8(%rax), %rax	 # this_36(D)->D.68084._M_impl.D.67390._M_finish, tmp146
	movq	%rax, -32(%rbp)	 # tmp146, __old_finish
 # D:/msys64/ucrt64/include/c++/15.2.0/bits/vector.tcc:788: 		_M_check_len(__n, "vector::_M_default_append");
	.loc 11 788 15
	leaq	.LC7(%rip), %rcx	 #, tmp147
	movq	40(%rbp), %rdx	 # __n, tmp148
	movq	32(%rbp), %rax	 # this, tmp149
	movq	%rcx, %r8	 # tmp147,
	movq	%rax, %rcx	 # tmp149,
	call	_ZNKSt6vectorIdSaIdEE12_M_check_lenEyPKc	 #
 # D:/msys64/ucrt64/include/c++/15.2.0/bits/vector.tcc:788: 		_M_check_len(__n, "vector::_M_default_append");
	.loc 11 788 15 is_stmt 0 discriminator 1
	movq	%rax, -40(%rbp)	 # _48, __len
 # D:/msys64/ucrt64/include/c++/15.2.0/bits/vector.tcc:789: 	      pointer __new_start(this->_M_allocate(__len));
	.loc 11 789 45 is_stmt 1
	movq	32(%rbp), %rax	 # this, _13
	movq	-40(%rbp), %rdx	 # __len, tmp150
	movq	%rax, %rcx	 # _13,
	call	_ZNSt12_Vector_baseIdSaIdEE11_M_allocateEy	 #
.LEHE5:
 # D:/msys64/ucrt64/include/c++/15.2.0/bits/vector.tcc:789: 	      pointer __new_start(this->_M_allocate(__len));
	.loc 11 789 45 is_stmt 0 discriminator 1
	movq	%rax, -48(%rbp)	 # _51, __new_start
.LBB450:
 # D:/msys64/ucrt64/include/c++/15.2.0/bits/vector.tcc:792: 		_Guard_alloc __guard(__new_start, __len, *this);
	.loc 11 792 16 is_stmt 1
	movq	32(%rbp), %r8	 # this, _14
	movq	-40(%rbp), %rcx	 # __len, tmp151
	movq	-48(%rbp), %rdx	 # __new_start, tmp152
	leaq	-80(%rbp), %rax	 #, tmp153
	movq	%r8, %r9	 # _14,
	movq	%rcx, %r8	 # tmp151,
	movq	%rax, %rcx	 # tmp153,
	call	_ZNSt6vectorIdSaIdEE12_Guard_allocC1EPdyRSt12_Vector_baseIdS0_E	 #
 # D:/msys64/ucrt64/include/c++/15.2.0/bits/vector.tcc:795: 						 _M_get_Tp_allocator());
	.loc 11 795 27
	movq	32(%rbp), %rax	 # this, _15
	movq	%rax, %rcx	 # _15,
	call	_ZNSt12_Vector_baseIdSaIdEE19_M_get_Tp_allocatorEv	 #
	movq	%rax, %rdx	 #, _16
 # D:/msys64/ucrt64/include/c++/15.2.0/bits/vector.tcc:794: 		std::__uninitialized_default_n_a(__new_start + __size, __n,
	.loc 11 794 48
	movq	-8(%rbp), %rax	 # __size, tmp154
	leaq	0(,%rax,8), %rcx	 #, _17
 # D:/msys64/ucrt64/include/c++/15.2.0/bits/vector.tcc:794: 		std::__uninitialized_default_n_a(__new_start + __size, __n,
	.loc 11 794 35
	movq	-48(%rbp), %rax	 # __new_start, tmp155
	addq	%rax, %rcx	 # tmp155, _18
	movq	40(%rbp), %rax	 # __n, tmp156
	movq	%rdx, %r8	 # _16,
	movq	%rax, %rdx	 # tmp156,
.LEHB6:
	call	_ZSt27__uninitialized_default_n_aIPdydET_S1_T0_RSaIT1_E	 #
.LEHE6:
 # D:/msys64/ucrt64/include/c++/15.2.0/bits/vector.tcc:800: 				__new_start, _M_get_Tp_allocator());
	.loc 11 800 37
	movq	32(%rbp), %rax	 # this, _19
	movq	%rax, %rcx	 # _19,
	call	_ZNSt12_Vector_baseIdSaIdEE19_M_get_Tp_allocatorEv	 #
	movq	%rax, %rcx	 #, _20
 # D:/msys64/ucrt64/include/c++/15.2.0/bits/vector.tcc:799: 		    _S_relocate(__old_start, __old_finish,
	.loc 11 799 18
	movq	-48(%rbp), %r8	 # __new_start, tmp157
	movq	-32(%rbp), %rdx	 # __old_finish, tmp158
	movq	-24(%rbp), %rax	 # __old_start, tmp159
	movq	%rcx, %r9	 # _20,
	movq	%rax, %rcx	 # tmp159,
	call	_ZNSt6vectorIdSaIdEE11_S_relocateEPdS2_S2_RS0_	 #
 # D:/msys64/ucrt64/include/c++/15.2.0/bits/vector.tcc:833: 		__guard._M_storage = __old_start;
	.loc 11 833 22
	movq	-24(%rbp), %rax	 # __old_start, tmp160
	movq	%rax, -80(%rbp)	 # tmp160, __guard._M_storage
 # D:/msys64/ucrt64/include/c++/15.2.0/bits/vector.tcc:834: 		__guard._M_len = this->_M_impl._M_end_of_storage - __old_start;
	.loc 11 834 34
	movq	32(%rbp), %rax	 # this, tmp161
	movq	16(%rax), %rax	 # this_36(D)->D.68084._M_impl.D.67390._M_end_of_storage, _21
 # D:/msys64/ucrt64/include/c++/15.2.0/bits/vector.tcc:834: 		__guard._M_len = this->_M_impl._M_end_of_storage - __old_start;
	.loc 11 834 52
	subq	-24(%rbp), %rax	 # __old_start, _22
	sarq	$3, %rax	 #, _23
 # D:/msys64/ucrt64/include/c++/15.2.0/bits/vector.tcc:834: 		__guard._M_len = this->_M_impl._M_end_of_storage - __old_start;
	.loc 11 834 18
	movq	%rax, -72(%rbp)	 # _24, __guard._M_len
 # D:/msys64/ucrt64/include/c++/15.2.0/bits/vector.tcc:835: 	      }
	.loc 11 835 8
	leaq	-80(%rbp), %rax	 #, tmp163
	movq	%rax, %rcx	 # tmp163,
	call	_ZNSt6vectorIdSaIdEE12_Guard_allocD1Ev	 #
.LBE450:
 # D:/msys64/ucrt64/include/c++/15.2.0/bits/vector.tcc:839: 	      this->_M_impl._M_start = __new_start;
	.loc 11 839 31
	movq	32(%rbp), %rax	 # this, tmp164
	movq	-48(%rbp), %rdx	 # __new_start, tmp165
	movq	%rdx, (%rax)	 # tmp165, this_36(D)->D.68084._M_impl.D.67390._M_start
 # D:/msys64/ucrt64/include/c++/15.2.0/bits/vector.tcc:840: 	      this->_M_impl._M_finish = __new_start + __size + __n;
	.loc 11 840 55
	movq	-8(%rbp), %rdx	 # __size, tmp166
	movq	40(%rbp), %rax	 # __n, tmp167
	addq	%rdx, %rax	 # tmp166, _25
	leaq	0(,%rax,8), %rdx	 #, _26
	movq	-48(%rbp), %rax	 # __new_start, tmp168
	addq	%rax, %rdx	 # tmp168, _27
 # D:/msys64/ucrt64/include/c++/15.2.0/bits/vector.tcc:840: 	      this->_M_impl._M_finish = __new_start + __size + __n;
	.loc 11 840 32
	movq	32(%rbp), %rax	 # this, tmp169
	movq	%rdx, 8(%rax)	 # _27, this_36(D)->D.68084._M_impl.D.67390._M_finish
 # D:/msys64/ucrt64/include/c++/15.2.0/bits/vector.tcc:841: 	      this->_M_impl._M_end_of_storage = __new_start + __len;
	.loc 11 841 54
	movq	-40(%rbp), %rax	 # __len, tmp170
	leaq	0(,%rax,8), %rdx	 #, _28
	movq	-48(%rbp), %rax	 # __new_start, tmp171
	addq	%rax, %rdx	 # tmp171, _29
 # D:/msys64/ucrt64/include/c++/15.2.0/bits/vector.tcc:841: 	      this->_M_impl._M_end_of_storage = __new_start + __len;
	.loc 11 841 40
	movq	32(%rbp), %rax	 # this, tmp172
	movq	%rdx, 16(%rax)	 # _29, this_36(D)->D.68084._M_impl.D.67390._M_end_of_storage
.LBE449:
.LBE453:
.LBE455:
.LBE457:
 # D:/msys64/ucrt64/include/c++/15.2.0/bits/vector.tcc:844:     }
	.loc 11 844 5
	jmp	.L138	 #
.L137:
.LBB458:
.LBB456:
.LBB454:
.LBB452:
.LBB451:
 # D:/msys64/ucrt64/include/c++/15.2.0/bits/vector.tcc:835: 	      }
	.loc 11 835 8
	movq	%rax, %rbx	 #, tmp174
	leaq	-80(%rbp), %rax	 #, tmp173
	movq	%rax, %rcx	 # tmp173,
	call	_ZNSt6vectorIdSaIdEE12_Guard_allocD1Ev	 #
	movq	%rbx, %rax	 # tmp174, D.108023
	movq	%rax, %rcx	 # D.108023,
.LEHB7:
	call	_Unwind_Resume	 #
.LEHE7:
.L138:
.LBE451:
.LBE452:
.LBE454:
.LBE456:
.LBE458:
 # D:/msys64/ucrt64/include/c++/15.2.0/bits/vector.tcc:844:     }
	.loc 11 844 5
	nop	
	addq	$120, %rsp	 #,
	popq	%rbx	 #
	.cfi_restore 3
	popq	%rbp	 #
	.cfi_restore 6
	.cfi_def_cfa 7, -104
	ret	
	.cfi_endproc
.LFE5556:
	.seh_handler	__gxx_personality_seh0, @unwind, @except
	.seh_handlerdata
.LLSDA5556:
	.byte	0xff
	.byte	0xff
	.byte	0x1
	.uleb128 .LLSDACSE5556-.LLSDACSB5556
.LLSDACSB5556:
	.uleb128 .LEHB5-.LFB5556
	.uleb128 .LEHE5-.LEHB5
	.uleb128 0
	.uleb128 0
	.uleb128 .LEHB6-.LFB5556
	.uleb128 .LEHE6-.LEHB6
	.uleb128 .L137-.LFB5556
	.uleb128 0
	.uleb128 .LEHB7-.LFB5556
	.uleb128 .LEHE7-.LEHB7
	.uleb128 0
	.uleb128 0
.LLSDACSE5556:
	.section	.text$_ZNSt6vectorIdSaIdEE17_M_default_appendEy,"x"
	.linkonce discard
	.seh_endproc
	.section	.text$_ZNSt6vectorIdSaIdEE15_M_erase_at_endEPd,"x"
	.linkonce discard
	.align 2
	.globl	_ZNSt6vectorIdSaIdEE15_M_erase_at_endEPd
	.def	_ZNSt6vectorIdSaIdEE15_M_erase_at_endEPd;	.scl	2;	.type	32;	.endef
	.seh_proc	_ZNSt6vectorIdSaIdEE15_M_erase_at_endEPd
_ZNSt6vectorIdSaIdEE15_M_erase_at_endEPd:
.LFB5563:
	.loc 5 2234 7
	.cfi_startproc
	pushq	%rbp	 #
	.seh_pushreg	%rbp
	.cfi_def_cfa_offset 16
	.cfi_offset 6, -16
	movq	%rsp, %rbp	 #,
	.seh_setframe	%rbp, 0
	.cfi_def_cfa_register 6
	subq	$64, %rsp	 #,
	.seh_stackalloc	64
	.seh_endprologue
	movq	%rcx, 16(%rbp)	 # this, this
	movq	%rdx, 24(%rbp)	 # __pos, __pos
.LBB459:
 # D:/msys64/ucrt64/include/c++/15.2.0/bits/stl_vector.h:2236: 	if (size_type __n = this->_M_impl._M_finish - __pos)
	.loc 5 2236 36
	movq	16(%rbp), %rax	 # this, tmp104
	movq	8(%rax), %rax	 # this_9(D)->D.68084._M_impl.D.67390._M_finish, _1
 # D:/msys64/ucrt64/include/c++/15.2.0/bits/stl_vector.h:2236: 	if (size_type __n = this->_M_impl._M_finish - __pos)
	.loc 5 2236 46
	subq	24(%rbp), %rax	 # __pos, _2
	sarq	$3, %rax	 #, _3
 # D:/msys64/ucrt64/include/c++/15.2.0/bits/stl_vector.h:2236: 	if (size_type __n = this->_M_impl._M_finish - __pos)
	.loc 5 2236 16
	movq	%rax, -8(%rbp)	 # _3, __n
 # D:/msys64/ucrt64/include/c++/15.2.0/bits/stl_vector.h:2236: 	if (size_type __n = this->_M_impl._M_finish - __pos)
	.loc 5 2236 2
	cmpq	$0, -8(%rbp)	 #, __n
	je	.L141	 #,
 # D:/msys64/ucrt64/include/c++/15.2.0/bits/stl_vector.h:2239: 			  _M_get_Tp_allocator());
	.loc 5 2239 25
	movq	16(%rbp), %rax	 # this, _4
	movq	%rax, %rcx	 # _4,
	call	_ZNSt12_Vector_baseIdSaIdEE19_M_get_Tp_allocatorEv	 #
 # D:/msys64/ucrt64/include/c++/15.2.0/bits/stl_vector.h:2238: 	    std::_Destroy(__pos, this->_M_impl._M_finish,
	.loc 5 2238 41
	movq	16(%rbp), %rdx	 # this, tmp106
	movq	8(%rdx), %rdx	 # this_9(D)->D.68084._M_impl.D.67390._M_finish, _6
	movq	24(%rbp), %rcx	 # __pos, tmp107
	movq	%rcx, -16(%rbp)	 # tmp107, __first
	movq	%rdx, -24(%rbp)	 # _6, __last
	movq	%rax, -32(%rbp)	 # _5, D.107446
.LBB460:
.LBB461:
 # D:/msys64/ucrt64/include/c++/15.2.0/bits/alloc_traits.h:1045:       std::_Destroy(__first, __last);
	.loc 10 1045 20
	movq	-24(%rbp), %rdx	 # __last, tmp108
	movq	-16(%rbp), %rax	 # __first, tmp109
	movq	%rax, %rcx	 # tmp109,
	call	_ZSt8_DestroyIPdEvT_S1_	 #
 # D:/msys64/ucrt64/include/c++/15.2.0/bits/alloc_traits.h:1046:     }
	.loc 10 1046 5
	nop	
.LBE461:
.LBE460:
 # D:/msys64/ucrt64/include/c++/15.2.0/bits/stl_vector.h:2240: 	    this->_M_impl._M_finish = __pos;
	.loc 5 2240 30
	movq	16(%rbp), %rax	 # this, tmp110
	movq	24(%rbp), %rdx	 # __pos, tmp111
	movq	%rdx, 8(%rax)	 # tmp111, this_9(D)->D.68084._M_impl.D.67390._M_finish
.L141:
.LBE459:
 # D:/msys64/ucrt64/include/c++/15.2.0/bits/stl_vector.h:2243:       }
	.loc 5 2243 7
	nop	
	addq	$64, %rsp	 #,
	popq	%rbp	 #
	.cfi_restore 6
	.cfi_def_cfa 7, 8
	ret	
	.cfi_endproc
.LFE5563:
	.seh_handler	__gxx_personality_seh0, @unwind, @except
	.seh_handlerdata
.LLSDA5563:
	.byte	0xff
	.byte	0xff
	.byte	0x1
	.uleb128 .LLSDACSE5563-.LLSDACSB5563
.LLSDACSB5563:
.LLSDACSE5563:
	.section	.text$_ZNSt6vectorIdSaIdEE15_M_erase_at_endEPd,"x"
	.linkonce discard
	.seh_endproc
	.section	.text$_ZSt3minIyERKT_S2_S2_,"x"
	.linkonce discard
	.globl	_ZSt3minIyERKT_S2_S2_
	.def	_ZSt3minIyERKT_S2_S2_;	.scl	2;	.type	32;	.endef
	.seh_proc	_ZSt3minIyERKT_S2_S2_
_ZSt3minIyERKT_S2_S2_:
.LFB5578:
	.loc 3 234 5
	.cfi_startproc
	pushq	%rbp	 #
	.seh_pushreg	%rbp
	.cfi_def_cfa_offset 16
	.cfi_offset 6, -16
	movq	%rsp, %rbp	 #,
	.seh_setframe	%rbp, 0
	.cfi_def_cfa_register 6
	.seh_endprologue
	movq	%rcx, 16(%rbp)	 # __a, __a
	movq	%rdx, 24(%rbp)	 # __b, __b
 # D:/msys64/ucrt64/include/c++/15.2.0/bits/stl_algobase.h:239:       if (__b < __a)
	.loc 3 239 15
	movq	24(%rbp), %rax	 # __b, tmp102
	movq	(%rax), %rdx	 # *__b_5(D), _1
	movq	16(%rbp), %rax	 # __a, tmp103
	movq	(%rax), %rax	 # *__a_6(D), _2
 # D:/msys64/ucrt64/include/c++/15.2.0/bits/stl_algobase.h:239:       if (__b < __a)
	.loc 3 239 7
	cmpq	%rax, %rdx	 # _2, _1
	jnb	.L143	 #,
 # D:/msys64/ucrt64/include/c++/15.2.0/bits/stl_algobase.h:240: 	return __b;
	.loc 3 240 9
	movq	24(%rbp), %rax	 # __b, _3
	jmp	.L144	 #
.L143:
 # D:/msys64/ucrt64/include/c++/15.2.0/bits/stl_algobase.h:241:       return __a;
	.loc 3 241 14
	movq	16(%rbp), %rax	 # __a, _3
.L144:
 # D:/msys64/ucrt64/include/c++/15.2.0/bits/stl_algobase.h:242:     }
	.loc 3 242 5
	popq	%rbp	 #
	.cfi_restore 6
	.cfi_def_cfa 7, 8
	ret	
	.cfi_endproc
.LFE5578:
	.seh_endproc
	.section	.text$_ZNSt6vectorIdSaIdEE11_S_max_sizeERKS0_,"x"
	.linkonce discard
	.globl	_ZNSt6vectorIdSaIdEE11_S_max_sizeERKS0_
	.def	_ZNSt6vectorIdSaIdEE11_S_max_sizeERKS0_;	.scl	2;	.type	32;	.endef
	.seh_proc	_ZNSt6vectorIdSaIdEE11_S_max_sizeERKS0_
_ZNSt6vectorIdSaIdEE11_S_max_sizeERKS0_:
.LFB5649:
	.loc 5 2217 7
	.cfi_startproc
	pushq	%rbp	 #
	.seh_pushreg	%rbp
	.cfi_def_cfa_offset 16
	.cfi_offset 6, -16
	movq	%rsp, %rbp	 #,
	.seh_setframe	%rbp, 0
	.cfi_def_cfa_register 6
	subq	$48, %rsp	 #,
	.seh_stackalloc	48
	.seh_endprologue
	movq	%rcx, 16(%rbp)	 # __a, __a
 # D:/msys64/ucrt64/include/c++/15.2.0/bits/stl_vector.h:2222: 	const size_t __diffmax
	.loc 5 2222 15
	movabsq	$1152921504606846975, %rax	 #, tmp105
	movq	%rax, -8(%rbp)	 # tmp105, __diffmax
 # D:/msys64/ucrt64/include/c++/15.2.0/bits/stl_vector.h:2224: 	const size_t __allocmax = _Alloc_traits::max_size(__a);
	.loc 5 2224 15
	movabsq	$2305843009213693951, %rax	 #, tmp106
	movq	%rax, -16(%rbp)	 # tmp106, __allocmax
 # D:/msys64/ucrt64/include/c++/15.2.0/bits/stl_vector.h:2225: 	return (std::min)(__diffmax, __allocmax);
	.loc 5 2225 19
	leaq	-16(%rbp), %rdx	 #, tmp101
	leaq	-8(%rbp), %rax	 #, tmp102
	movq	%rax, %rcx	 # tmp102,
	call	_ZSt3minIyERKT_S2_S2_	 #
 # D:/msys64/ucrt64/include/c++/15.2.0/bits/stl_vector.h:2225: 	return (std::min)(__diffmax, __allocmax);
	.loc 5 2225 41 discriminator 1
	movq	(%rax), %rax	 # *_1, _6
 # D:/msys64/ucrt64/include/c++/15.2.0/bits/stl_vector.h:2226:       }
	.loc 5 2226 7
	addq	$48, %rsp	 #,
	popq	%rbp	 #
	.cfi_restore 6
	.cfi_def_cfa 7, 8
	ret	
	.cfi_endproc
.LFE5649:
	.seh_endproc
	.section	.text$_ZSt8_DestroyIPdEvT_S1_,"x"
	.linkonce discard
	.globl	_ZSt8_DestroyIPdEvT_S1_
	.def	_ZSt8_DestroyIPdEvT_S1_;	.scl	2;	.type	32;	.endef
	.seh_proc	_ZSt8_DestroyIPdEvT_S1_
_ZSt8_DestroyIPdEvT_S1_:
.LFB5656:
	.file 17 "D:/msys64/ucrt64/include/c++/15.2.0/bits/stl_construct.h"
	.loc 17 202 5
	.cfi_startproc
	pushq	%rbp	 #
	.seh_pushreg	%rbp
	.cfi_def_cfa_offset 16
	.cfi_offset 6, -16
	movq	%rsp, %rbp	 #,
	.seh_setframe	%rbp, 0
	.cfi_def_cfa_register 6
	subq	$48, %rsp	 #,
	.seh_stackalloc	48
	.seh_endprologue
	movq	%rcx, 16(%rbp)	 # __first, __first
	movq	%rdx, 24(%rbp)	 # __last, __last
.LBB462:
.LBB463:
 # D:/msys64/ucrt64/include/c++/15.2.0/x86_64-w64-mingw32/bits/c++config.h:589:     return __builtin_is_constant_evaluated();
	.loc 14 589 44
	movl	$0, %eax	 #, D.107437
.LBE463:
.LBE462:
 # D:/msys64/ucrt64/include/c++/15.2.0/bits/stl_construct.h:214:       else if (std::__is_constant_evaluated())
	.loc 17 214 12 discriminator 1
	testb	%al, %al	 # D.107437
	je	.L153	 #,
 # D:/msys64/ucrt64/include/c++/15.2.0/bits/stl_construct.h:215: 	for (; __first != __last; ++__first)
	.loc 17 215 2
	jmp	.L150	 #
.L152:
	movq	16(%rbp), %rax	 # __first, tmp100
	movq	%rax, -8(%rbp)	 # tmp100, __r
.LBB464:
.LBB465:
 # D:/msys64/ucrt64/include/c++/15.2.0/bits/move.h:53:     { return __builtin_addressof(__r); }
	.loc 12 53 37
	movq	-8(%rbp), %rax	 # __r, D.107441
.LBE465:
.LBE464:
 # D:/msys64/ucrt64/include/c++/15.2.0/bits/stl_construct.h:216: 	  std::destroy_at(std::__addressof(*__first));
	.loc 17 216 19 discriminator 1
	movq	%rax, %rcx	 # D.107441,
	call	_ZSt10destroy_atIdEvPT_	 #
 # D:/msys64/ucrt64/include/c++/15.2.0/bits/stl_construct.h:215: 	for (; __first != __last; ++__first)
	.loc 17 215 2 discriminator 2
	addq	$8, 16(%rbp)	 #, __first
.L150:
 # D:/msys64/ucrt64/include/c++/15.2.0/bits/stl_construct.h:215: 	for (; __first != __last; ++__first)
	.loc 17 215 17 discriminator 1
	movq	16(%rbp), %rax	 # __first, tmp101
	cmpq	24(%rbp), %rax	 # __last, tmp101
	jne	.L152	 #,
.L153:
 # D:/msys64/ucrt64/include/c++/15.2.0/bits/stl_construct.h:222:     }
	.loc 17 222 5
	nop	
	addq	$48, %rsp	 #,
	popq	%rbp	 #
	.cfi_restore 6
	.cfi_def_cfa 7, 8
	ret	
	.cfi_endproc
.LFE5656:
	.seh_endproc
	.section	.text$_ZNSt12_Vector_baseIdSaIdEE11_M_allocateEy,"x"
	.linkonce discard
	.align 2
	.globl	_ZNSt12_Vector_baseIdSaIdEE11_M_allocateEy
	.def	_ZNSt12_Vector_baseIdSaIdEE11_M_allocateEy;	.scl	2;	.type	32;	.endef
	.seh_proc	_ZNSt12_Vector_baseIdSaIdEE11_M_allocateEy
_ZNSt12_Vector_baseIdSaIdEE11_M_allocateEy:
.LFB5696:
	.loc 5 384 7
	.cfi_startproc
	pushq	%rbp	 #
	.seh_pushreg	%rbp
	.cfi_def_cfa_offset 16
	.cfi_offset 6, -16
	movq	%rsp, %rbp	 #,
	.seh_setframe	%rbp, 0
	.cfi_def_cfa_register 6
	subq	$64, %rsp	 #,
	.seh_stackalloc	64
	.seh_endprologue
	movq	%rcx, 16(%rbp)	 # this, this
	movq	%rdx, 24(%rbp)	 # __n, __n
 # D:/msys64/ucrt64/include/c++/15.2.0/bits/stl_vector.h:387: 	return __n != 0 ? _Tr::allocate(_M_impl, __n) : pointer();
	.loc 5 387 18
	cmpq	$0, 24(%rbp)	 #, __n
	je	.L155	 #,
 # D:/msys64/ucrt64/include/c++/15.2.0/bits/stl_vector.h:387: 	return __n != 0 ? _Tr::allocate(_M_impl, __n) : pointer();
	.loc 5 387 34 discriminator 1
	movq	16(%rbp), %rax	 # this, _1
	movq	%rax, -8(%rbp)	 # _1, __a
	movq	24(%rbp), %rax	 # __n, tmp110
	movq	%rax, -16(%rbp)	 # tmp110, __n
	movq	-8(%rbp), %rax	 # __a, tmp111
	movq	%rax, -24(%rbp)	 # tmp111, this
	movq	-16(%rbp), %rax	 # __n, tmp112
	movq	%rax, -32(%rbp)	 # tmp112, __n
.LBB466:
.LBB467:
.LBB468:
.LBB469:
.LBB470:
.LBB471:
 # D:/msys64/ucrt64/include/c++/15.2.0/x86_64-w64-mingw32/bits/c++config.h:589:     return __builtin_is_constant_evaluated();
	.loc 14 589 44
	movl	$0, %eax	 #, _13
.LBE471:
.LBE470:
 # D:/msys64/ucrt64/include/c++/15.2.0/bits/allocator.h:196: 	if (std::__is_constant_evaluated())
	.loc 6 196 2 discriminator 1
	testb	%al, %al	 # _13
	je	.L157	 #,
 # D:/msys64/ucrt64/include/c++/15.2.0/bits/allocator.h:198: 	    if (__builtin_mul_overflow(__n, sizeof(_Tp), &__n))
	.loc 6 198 32
	movq	-32(%rbp), %rax	 # __n, __n.8_16
	movl	$0, %ecx	 #, _17
	leaq	0(,%rax,8), %rdx	 #, tmp113
	shrq	$61, %rax	 #, tmp114
	testq	%rax, %rax	 # tmp114
	je	.L158	 #,
	movl	$1, %ecx	 #, _17
.L158:
	movq	%rdx, %rax	 # tmp113, _17
 # D:/msys64/ucrt64/include/c++/15.2.0/bits/allocator.h:198: 	    if (__builtin_mul_overflow(__n, sizeof(_Tp), &__n))
	.loc 6 198 32 is_stmt 0 discriminator 1
	movq	%rax, -32(%rbp)	 # _18, __n
	movq	%rcx, %rax	 # _17, _19
	andl	$1, %eax	 #, retval.7_20
 # D:/msys64/ucrt64/include/c++/15.2.0/bits/allocator.h:198: 	    if (__builtin_mul_overflow(__n, sizeof(_Tp), &__n))
	.loc 6 198 6 is_stmt 1 discriminator 1
	testb	%al, %al	 # retval.7_20
	je	.L160	 #,
 # D:/msys64/ucrt64/include/c++/15.2.0/bits/allocator.h:199: 	      std::__throw_bad_array_new_length();
	.loc 6 199 41
	call	_ZSt28__throw_bad_array_new_lengthv	 #
.L160:
 # D:/msys64/ucrt64/include/c++/15.2.0/bits/allocator.h:200: 	    return static_cast<_Tp*>(::operator new(__n));
	.loc 6 200 45
	movq	-32(%rbp), %rax	 # __n, __n.9_21
	movq	%rax, %rcx	 # __n.9_21,
	call	_Znwy	 #
 # D:/msys64/ucrt64/include/c++/15.2.0/bits/allocator.h:200: 	    return static_cast<_Tp*>(::operator new(__n));
	.loc 6 200 50
	jmp	.L161	 #
.L157:
 # D:/msys64/ucrt64/include/c++/15.2.0/bits/allocator.h:203: 	return __allocator_base<_Tp>::allocate(__n, 0);
	.loc 6 203 40
	movq	-32(%rbp), %rdx	 # __n, __n.10_24
	movq	-24(%rbp), %rax	 # this, tmp116
	movl	$0, %r8d	 #,
	movq	%rax, %rcx	 # tmp116,
	call	_ZNSt15__new_allocatorIdE8allocateEyPKv	 #
 # D:/msys64/ucrt64/include/c++/15.2.0/bits/allocator.h:203: 	return __allocator_base<_Tp>::allocate(__n, 0);
	.loc 6 203 47
	nop	
.L161:
.LBE469:
.LBE468:
 # D:/msys64/ucrt64/include/c++/15.2.0/bits/alloc_traits.h:614:       { return __a.allocate(__n); }
	.loc 10 614 32
	nop	
	jmp	.L163	 #
.L155:
.LBE467:
.LBE466:
 # D:/msys64/ucrt64/include/c++/15.2.0/bits/stl_vector.h:387: 	return __n != 0 ? _Tr::allocate(_M_impl, __n) : pointer();
	.loc 5 387 58 discriminator 2
	movl	$0, %eax	 #, D.107680
.L163:
 # D:/msys64/ucrt64/include/c++/15.2.0/bits/stl_vector.h:388:       }
	.loc 5 388 7
	addq	$64, %rsp	 #,
	popq	%rbp	 #
	.cfi_restore 6
	.cfi_def_cfa 7, 8
	ret	
	.cfi_endproc
.LFE5696:
	.seh_endproc
	.section	.text$_ZNSt6vectorIdSaIdEE12_Guard_allocC1EPdyRSt12_Vector_baseIdS0_E,"x"
	.linkonce discard
	.align 2
	.globl	_ZNSt6vectorIdSaIdEE12_Guard_allocC1EPdyRSt12_Vector_baseIdS0_E
	.def	_ZNSt6vectorIdSaIdEE12_Guard_allocC1EPdyRSt12_Vector_baseIdS0_E;	.scl	2;	.type	32;	.endef
	.seh_proc	_ZNSt6vectorIdSaIdEE12_Guard_allocC1EPdyRSt12_Vector_baseIdS0_E
_ZNSt6vectorIdSaIdEE12_Guard_allocC1EPdyRSt12_Vector_baseIdS0_E:
.LFB5699:
	.loc 5 1875 2
	.cfi_startproc
	pushq	%rbp	 #
	.seh_pushreg	%rbp
	.cfi_def_cfa_offset 16
	.cfi_offset 6, -16
	movq	%rsp, %rbp	 #,
	.seh_setframe	%rbp, 0
	.cfi_def_cfa_register 6
	.seh_endprologue
	movq	%rcx, 16(%rbp)	 # this, this
	movq	%rdx, 24(%rbp)	 # __s, __s
	movq	%r8, 32(%rbp)	 # __l, __l
	movq	%r9, 40(%rbp)	 # __vect, __vect
.LBB472:
 # D:/msys64/ucrt64/include/c++/15.2.0/bits/stl_vector.h:1876: 	: _M_storage(__s), _M_len(__l), _M_vect(__vect)
	.loc 5 1876 4
	movq	16(%rbp), %rax	 # this, tmp98
	movq	24(%rbp), %rdx	 # __s, tmp99
	movq	%rdx, (%rax)	 # tmp99, this_2(D)->_M_storage
 # D:/msys64/ucrt64/include/c++/15.2.0/bits/stl_vector.h:1876: 	: _M_storage(__s), _M_len(__l), _M_vect(__vect)
	.loc 5 1876 21
	movq	16(%rbp), %rax	 # this, tmp100
	movq	32(%rbp), %rdx	 # __l, tmp101
	movq	%rdx, 8(%rax)	 # tmp101, this_2(D)->_M_len
 # D:/msys64/ucrt64/include/c++/15.2.0/bits/stl_vector.h:1876: 	: _M_storage(__s), _M_len(__l), _M_vect(__vect)
	.loc 5 1876 34
	movq	16(%rbp), %rax	 # this, tmp102
	movq	40(%rbp), %rdx	 # __vect, tmp103
	movq	%rdx, 16(%rax)	 # tmp103, this_2(D)->_M_vect
.LBE472:
 # D:/msys64/ucrt64/include/c++/15.2.0/bits/stl_vector.h:1877: 	{ }
	.loc 5 1877 4
	nop	
	popq	%rbp	 #
	.cfi_restore 6
	.cfi_def_cfa 7, 8
	ret	
	.cfi_endproc
.LFE5699:
	.seh_endproc
	.section	.text$_ZNSt6vectorIdSaIdEE12_Guard_allocD1Ev,"x"
	.linkonce discard
	.align 2
	.globl	_ZNSt6vectorIdSaIdEE12_Guard_allocD1Ev
	.def	_ZNSt6vectorIdSaIdEE12_Guard_allocD1Ev;	.scl	2;	.type	32;	.endef
	.seh_proc	_ZNSt6vectorIdSaIdEE12_Guard_allocD1Ev
_ZNSt6vectorIdSaIdEE12_Guard_allocD1Ev:
.LFB5702:
	.loc 5 1880 2
	.cfi_startproc
	pushq	%rbp	 #
	.seh_pushreg	%rbp
	.cfi_def_cfa_offset 16
	.cfi_offset 6, -16
	movq	%rsp, %rbp	 #,
	.seh_setframe	%rbp, 0
	.cfi_def_cfa_register 6
	subq	$32, %rsp	 #,
	.seh_stackalloc	32
	.seh_endprologue
	movq	%rcx, 16(%rbp)	 # this, this
.LBB473:
 # D:/msys64/ucrt64/include/c++/15.2.0/bits/stl_vector.h:1882: 	  if (_M_storage)
	.loc 5 1882 8
	movq	16(%rbp), %rax	 # this, tmp102
	movq	(%rax), %rax	 # this_7(D)->_M_storage, _1
 # D:/msys64/ucrt64/include/c++/15.2.0/bits/stl_vector.h:1882: 	  if (_M_storage)
	.loc 5 1882 4
	testq	%rax, %rax	 # _1
	je	.L168	 #,
 # D:/msys64/ucrt64/include/c++/15.2.0/bits/stl_vector.h:1883: 	    _M_vect._M_deallocate(_M_storage, _M_len);
	.loc 5 1883 6
	movq	16(%rbp), %rax	 # this, tmp103
	movq	16(%rax), %rax	 # this_7(D)->_M_vect, _2
 # D:/msys64/ucrt64/include/c++/15.2.0/bits/stl_vector.h:1883: 	    _M_vect._M_deallocate(_M_storage, _M_len);
	.loc 5 1883 40
	movq	16(%rbp), %rdx	 # this, tmp104
	movq	8(%rdx), %rcx	 # this_7(D)->_M_len, _3
 # D:/msys64/ucrt64/include/c++/15.2.0/bits/stl_vector.h:1883: 	    _M_vect._M_deallocate(_M_storage, _M_len);
	.loc 5 1883 28
	movq	16(%rbp), %rdx	 # this, tmp105
	movq	(%rdx), %rdx	 # this_7(D)->_M_storage, _4
 # D:/msys64/ucrt64/include/c++/15.2.0/bits/stl_vector.h:1883: 	    _M_vect._M_deallocate(_M_storage, _M_len);
	.loc 5 1883 27
	movq	%rcx, %r8	 # _3,
	movq	%rax, %rcx	 # _2,
	call	_ZNSt12_Vector_baseIdSaIdEE13_M_deallocateEPdy	 #
.L168:
.LBE473:
 # D:/msys64/ucrt64/include/c++/15.2.0/bits/stl_vector.h:1884: 	}
	.loc 5 1884 2
	nop	
	addq	$32, %rsp	 #,
	popq	%rbp	 #
	.cfi_restore 6
	.cfi_def_cfa 7, 8
	ret	
	.cfi_endproc
.LFE5702:
	.seh_endproc
	.section	.text$_ZSt22__uninitialized_copy_aIN9__gnu_cxx17__normal_iteratorIPKdSt6vectorIdSaIdEEEES7_PddET1_T_T0_S9_RSaIT2_E,"x"
	.linkonce discard
	.globl	_ZSt22__uninitialized_copy_aIN9__gnu_cxx17__normal_iteratorIPKdSt6vectorIdSaIdEEEES7_PddET1_T_T0_S9_RSaIT2_E
	.def	_ZSt22__uninitialized_copy_aIN9__gnu_cxx17__normal_iteratorIPKdSt6vectorIdSaIdEEEES7_PddET1_T_T0_S9_RSaIT2_E;	.scl	2;	.type	32;	.endef
	.seh_proc	_ZSt22__uninitialized_copy_aIN9__gnu_cxx17__normal_iteratorIPKdSt6vectorIdSaIdEEEES7_PddET1_T_T0_S9_RSaIT2_E
_ZSt22__uninitialized_copy_aIN9__gnu_cxx17__normal_iteratorIPKdSt6vectorIdSaIdEEEES7_PddET1_T_T0_S9_RSaIT2_E:
.LFB5703:
	.loc 16 613 5
	.cfi_startproc
	pushq	%rbp	 #
	.seh_pushreg	%rbp
	.cfi_def_cfa_offset 16
	.cfi_offset 6, -16
	movq	%rsp, %rbp	 #,
	.seh_setframe	%rbp, 0
	.cfi_def_cfa_register 6
	subq	$32, %rsp	 #,
	.seh_stackalloc	32
	.seh_endprologue
	movq	%rcx, 16(%rbp)	 # __first, __first
	movq	%rdx, 24(%rbp)	 # __last, __last
	movq	%r8, 32(%rbp)	 # __result, __result
	movq	%r9, 40(%rbp)	 # D.104182, D.104182
 # D:/msys64/ucrt64/include/c++/15.2.0/bits/stl_uninitialized.h:617:       if (std::is_constant_evaluated())
	.loc 16 617 37
	call	_ZSt21is_constant_evaluatedv	 #
 # D:/msys64/ucrt64/include/c++/15.2.0/bits/stl_uninitialized.h:617:       if (std::is_constant_evaluated())
	.loc 16 617 7 discriminator 1
	testb	%al, %al	 # retval.12_7
	je	.L170	 #,
.LBB474:
.LBB475:
 # D:/msys64/ucrt64/include/c++/15.2.0/bits/move.h:139:     { return static_cast<typename std::remove_reference<_Tp>::type&&>(__t); }
	.loc 12 139 74
	leaq	16(%rbp), %rax	 #, D.107647
.LBE475:
.LBE474:
 # D:/msys64/ucrt64/include/c++/15.2.0/bits/stl_uninitialized.h:618: 	return std::__do_uninit_copy(std::move(__first), __last, __result);
	.loc 16 618 30 discriminator 1
	movq	32(%rbp), %rcx	 # __result, tmp103
	movq	24(%rbp), %rdx	 # __last, tmp104
	movq	(%rax), %rax	 # MEM[(struct __normal_iterator &)_1], tmp105
	movq	%rcx, %r8	 # tmp103,
	movq	%rax, %rcx	 # tmp105,
	call	_ZSt16__do_uninit_copyIN9__gnu_cxx17__normal_iteratorIPKdSt6vectorIdSaIdEEEES7_PdET1_T_T0_S9_	 #
 # D:/msys64/ucrt64/include/c++/15.2.0/bits/stl_uninitialized.h:618: 	return std::__do_uninit_copy(std::move(__first), __last, __result);
	.loc 16 618 67
	jmp	.L172	 #
.L170:
.LBB476:
.LBB477:
 # D:/msys64/ucrt64/include/c++/15.2.0/bits/move.h:139:     { return static_cast<typename std::remove_reference<_Tp>::type&&>(__t); }
	.loc 12 139 74
	leaq	16(%rbp), %rax	 #, D.107651
.LBE477:
.LBE476:
 # D:/msys64/ucrt64/include/c++/15.2.0/bits/stl_uninitialized.h:635: 	return std::uninitialized_copy(std::move(__first), __last, __result);
	.loc 16 635 32 discriminator 1
	movq	32(%rbp), %rcx	 # __result, tmp106
	movq	24(%rbp), %rdx	 # __last, tmp107
	movq	(%rax), %rax	 # MEM[(struct __normal_iterator &)_2], tmp108
	movq	%rcx, %r8	 # tmp106,
	movq	%rax, %rcx	 # tmp108,
	call	_ZSt18uninitialized_copyIN9__gnu_cxx17__normal_iteratorIPKdSt6vectorIdSaIdEEEEPdET0_T_SA_S9_	 #
 # D:/msys64/ucrt64/include/c++/15.2.0/bits/stl_uninitialized.h:635: 	return std::uninitialized_copy(std::move(__first), __last, __result);
	.loc 16 635 69
	nop	
.L172:
 # D:/msys64/ucrt64/include/c++/15.2.0/bits/stl_uninitialized.h:639:     }
	.loc 16 639 5
	addq	$32, %rsp	 #,
	popq	%rbp	 #
	.cfi_restore 6
	.cfi_def_cfa 7, 8
	ret	
	.cfi_endproc
.LFE5703:
	.seh_endproc
	.section	.text$_ZNSt6vectorIdSaIdEE12_Guard_alloc10_M_releaseEv,"x"
	.linkonce discard
	.align 2
	.globl	_ZNSt6vectorIdSaIdEE12_Guard_alloc10_M_releaseEv
	.def	_ZNSt6vectorIdSaIdEE12_Guard_alloc10_M_releaseEv;	.scl	2;	.type	32;	.endef
	.seh_proc	_ZNSt6vectorIdSaIdEE12_Guard_alloc10_M_releaseEv
_ZNSt6vectorIdSaIdEE12_Guard_alloc10_M_releaseEv:
.LFB5704:
	.loc 5 1888 2
	.cfi_startproc
	pushq	%rbp	 #
	.seh_pushreg	%rbp
	.cfi_def_cfa_offset 16
	.cfi_offset 6, -16
	movq	%rsp, %rbp	 #,
	.seh_setframe	%rbp, 0
	.cfi_def_cfa_register 6
	subq	$16, %rsp	 #,
	.seh_stackalloc	16
	.seh_endprologue
	movq	%rcx, 16(%rbp)	 # this, this
 # D:/msys64/ucrt64/include/c++/15.2.0/bits/stl_vector.h:1890: 	  pointer __res = _M_storage;
	.loc 5 1890 12
	movq	16(%rbp), %rax	 # this, tmp100
	movq	(%rax), %rax	 # this_2(D)->_M_storage, tmp101
	movq	%rax, -8(%rbp)	 # tmp101, __res
 # D:/msys64/ucrt64/include/c++/15.2.0/bits/stl_vector.h:1891: 	  _M_storage = pointer();
	.loc 5 1891 15
	movq	16(%rbp), %rax	 # this, tmp102
	movq	$0, (%rax)	 #, this_2(D)->_M_storage
 # D:/msys64/ucrt64/include/c++/15.2.0/bits/stl_vector.h:1892: 	  return __res;
	.loc 5 1892 11
	movq	-8(%rbp), %rax	 # __res, _5
 # D:/msys64/ucrt64/include/c++/15.2.0/bits/stl_vector.h:1893: 	}
	.loc 5 1893 2
	addq	$16, %rsp	 #,
	popq	%rbp	 #
	.cfi_restore 6
	.cfi_def_cfa 7, 8
	ret	
	.cfi_endproc
.LFE5704:
	.seh_endproc
	.section	.text$_ZSt12__miter_baseIN9__gnu_cxx17__normal_iteratorIPKdSt6vectorIdSaIdEEEEET_S8_,"x"
	.linkonce discard
	.globl	_ZSt12__miter_baseIN9__gnu_cxx17__normal_iteratorIPKdSt6vectorIdSaIdEEEEET_S8_
	.def	_ZSt12__miter_baseIN9__gnu_cxx17__normal_iteratorIPKdSt6vectorIdSaIdEEEEET_S8_;	.scl	2;	.type	32;	.endef
	.seh_proc	_ZSt12__miter_baseIN9__gnu_cxx17__normal_iteratorIPKdSt6vectorIdSaIdEEEEET_S8_
_ZSt12__miter_baseIN9__gnu_cxx17__normal_iteratorIPKdSt6vectorIdSaIdEEEEET_S8_:
.LFB5708:
	.file 18 "D:/msys64/ucrt64/include/c++/15.2.0/bits/cpp_type_traits.h"
	.loc 18 698 5
	.cfi_startproc
	pushq	%rbp	 #
	.seh_pushreg	%rbp
	.cfi_def_cfa_offset 16
	.cfi_offset 6, -16
	movq	%rsp, %rbp	 #,
	.seh_setframe	%rbp, 0
	.cfi_def_cfa_register 6
	.seh_endprologue
	movq	%rcx, 16(%rbp)	 # __it, __it
 # D:/msys64/ucrt64/include/c++/15.2.0/bits/cpp_type_traits.h:699:     { return __it; }
	.loc 18 699 14
	movq	16(%rbp), %rax	 # __it, D.106871
 # D:/msys64/ucrt64/include/c++/15.2.0/bits/cpp_type_traits.h:699:     { return __it; }
	.loc 18 699 20
	popq	%rbp	 #
	.cfi_restore 6
	.cfi_def_cfa 7, 8
	ret	
	.cfi_endproc
.LFE5708:
	.seh_endproc
	.section	.text$_ZSt8_DestroyIN9__gnu_cxx17__normal_iteratorIPdSt6vectorIdSaIdEEEEEvT_S7_,"x"
	.linkonce discard
	.globl	_ZSt8_DestroyIN9__gnu_cxx17__normal_iteratorIPdSt6vectorIdSaIdEEEEEvT_S7_
	.def	_ZSt8_DestroyIN9__gnu_cxx17__normal_iteratorIPdSt6vectorIdSaIdEEEEEvT_S7_;	.scl	2;	.type	32;	.endef
	.seh_proc	_ZSt8_DestroyIN9__gnu_cxx17__normal_iteratorIPdSt6vectorIdSaIdEEEEEvT_S7_
_ZSt8_DestroyIN9__gnu_cxx17__normal_iteratorIPdSt6vectorIdSaIdEEEEEvT_S7_:
.LFB5711:
	.loc 17 202 5
	.cfi_startproc
	pushq	%rbp	 #
	.seh_pushreg	%rbp
	.cfi_def_cfa_offset 16
	.cfi_offset 6, -16
	movq	%rsp, %rbp	 #,
	.seh_setframe	%rbp, 0
	.cfi_def_cfa_register 6
	subq	$64, %rsp	 #,
	.seh_stackalloc	64
	.seh_endprologue
	movq	%rcx, 16(%rbp)	 # __first, __first
	movq	%rdx, 24(%rbp)	 # __last, __last
.LBB478:
.LBB479:
 # D:/msys64/ucrt64/include/c++/15.2.0/x86_64-w64-mingw32/bits/c++config.h:589:     return __builtin_is_constant_evaluated();
	.loc 14 589 44
	movl	$0, %eax	 #, D.107471
.LBE479:
.LBE478:
 # D:/msys64/ucrt64/include/c++/15.2.0/bits/stl_construct.h:214:       else if (std::__is_constant_evaluated())
	.loc 17 214 12 discriminator 1
	testb	%al, %al	 # D.107471
	je	.L189	 #,
 # D:/msys64/ucrt64/include/c++/15.2.0/bits/stl_construct.h:215: 	for (; __first != __last; ++__first)
	.loc 17 215 2
	jmp	.L181	 #
.L188:
.LBB480:
.LBB481:
 # D:/msys64/ucrt64/include/c++/15.2.0/bits/stl_iterator.h:1090:       { return *_M_current; }
	.loc 15 1090 17
	movq	16(%rbp), %rax	 # __first._M_current, D.107483
	movq	%rax, -8(%rbp)	 # D.107483, __r
.LBE481:
.LBE480:
.LBB482:
.LBB483:
 # D:/msys64/ucrt64/include/c++/15.2.0/bits/move.h:53:     { return __builtin_addressof(__r); }
	.loc 12 53 37
	movq	-8(%rbp), %rax	 # __r, D.107479
.LBE483:
.LBE482:
 # D:/msys64/ucrt64/include/c++/15.2.0/bits/stl_construct.h:216: 	  std::destroy_at(std::__addressof(*__first));
	.loc 17 216 19 discriminator 2
	movq	%rax, %rcx	 # D.107479,
	call	_ZSt10destroy_atIdEvPT_	 #
.LBB484:
.LBB485:
 # D:/msys64/ucrt64/include/c++/15.2.0/bits/stl_iterator.h:1103: 	++_M_current;
	.loc 15 1103 4
	movq	16(%rbp), %rax	 # __first._M_current, _11
 # D:/msys64/ucrt64/include/c++/15.2.0/bits/stl_iterator.h:1103: 	++_M_current;
	.loc 15 1103 2
	addq	$8, %rax	 #, _12
	movq	%rax, 16(%rbp)	 # _12, __first._M_current
 # D:/msys64/ucrt64/include/c++/15.2.0/bits/stl_iterator.h:1104: 	return *this;
	.loc 15 1104 10
	nop	
.L181:
	leaq	16(%rbp), %rax	 #, tmp112
	movq	%rax, -16(%rbp)	 # tmp112, this
.LBE485:
.LBE484:
.LBB486:
.LBB487:
.LBB488:
.LBB489:
 # D:/msys64/ucrt64/include/c++/15.2.0/bits/stl_iterator.h:1166:       { return _M_current; }
	.loc 15 1166 16
	movq	-16(%rbp), %rax	 # this, _18
.LBE489:
.LBE488:
 # D:/msys64/ucrt64/include/c++/15.2.0/bits/stl_iterator.h:1206:     { return __lhs.base() == __rhs.base(); }
	.loc 15 1206 27 discriminator 1
	movq	(%rax), %rdx	 # *_20, _21
	leaq	24(%rbp), %rax	 #, tmp110
	movq	%rax, -24(%rbp)	 # tmp110, this
.LBB490:
.LBB491:
 # D:/msys64/ucrt64/include/c++/15.2.0/bits/stl_iterator.h:1166:       { return _M_current; }
	.loc 15 1166 16
	movq	-24(%rbp), %rax	 # this, _23
.LBE491:
.LBE490:
 # D:/msys64/ucrt64/include/c++/15.2.0/bits/stl_iterator.h:1206:     { return __lhs.base() == __rhs.base(); }
	.loc 15 1206 27 discriminator 2
	movq	(%rax), %rax	 # *_25, _26
 # D:/msys64/ucrt64/include/c++/15.2.0/bits/stl_iterator.h:1206:     { return __lhs.base() == __rhs.base(); }
	.loc 15 1206 41 discriminator 2
	cmpq	%rax, %rdx	 # _26, _21
	sete	%al	 #, D.107492
.LBE487:
.LBE486:
 # D:/msys64/ucrt64/include/c++/15.2.0/bits/stl_construct.h:215: 	for (; __first != __last; ++__first)
	.loc 17 215 17 discriminator 3
	xorl	$1, %eax	 #, retval.35_8
	testb	%al, %al	 # retval.35_8
	jne	.L188	 #,
.L189:
 # D:/msys64/ucrt64/include/c++/15.2.0/bits/stl_construct.h:222:     }
	.loc 17 222 5
	nop	
	addq	$64, %rsp	 #,
	popq	%rbp	 #
	.cfi_restore 6
	.cfi_def_cfa 7, 8
	ret	
	.cfi_endproc
.LFE5711:
	.seh_endproc
	.section	.text$_ZSt12__miter_baseIPdET_S1_,"x"
	.linkonce discard
	.globl	_ZSt12__miter_baseIPdET_S1_
	.def	_ZSt12__miter_baseIPdET_S1_;	.scl	2;	.type	32;	.endef
	.seh_proc	_ZSt12__miter_baseIPdET_S1_
_ZSt12__miter_baseIPdET_S1_:
.LFB5714:
	.loc 18 698 5
	.cfi_startproc
	pushq	%rbp	 #
	.seh_pushreg	%rbp
	.cfi_def_cfa_offset 16
	.cfi_offset 6, -16
	movq	%rsp, %rbp	 #,
	.seh_setframe	%rbp, 0
	.cfi_def_cfa_register 6
	.seh_endprologue
	movq	%rcx, 16(%rbp)	 # __it, __it
 # D:/msys64/ucrt64/include/c++/15.2.0/bits/cpp_type_traits.h:699:     { return __it; }
	.loc 18 699 14
	movq	16(%rbp), %rax	 # __it, _2
 # D:/msys64/ucrt64/include/c++/15.2.0/bits/cpp_type_traits.h:699:     { return __it; }
	.loc 18 699 20
	popq	%rbp	 #
	.cfi_restore 6
	.cfi_def_cfa 7, 8
	ret	
	.cfi_endproc
.LFE5714:
	.seh_endproc
	.section	.text$_ZNSt19_UninitDestroyGuardIPdvEC1ERS0_,"x"
	.linkonce discard
	.align 2
	.globl	_ZNSt19_UninitDestroyGuardIPdvEC1ERS0_
	.def	_ZNSt19_UninitDestroyGuardIPdvEC1ERS0_;	.scl	2;	.type	32;	.endef
	.seh_proc	_ZNSt19_UninitDestroyGuardIPdvEC1ERS0_
_ZNSt19_UninitDestroyGuardIPdvEC1ERS0_:
.LFB5720:
	.loc 16 113 7
	.cfi_startproc
	pushq	%rbp	 #
	.seh_pushreg	%rbp
	.cfi_def_cfa_offset 16
	.cfi_offset 6, -16
	movq	%rsp, %rbp	 #,
	.seh_setframe	%rbp, 0
	.cfi_def_cfa_register 6
	.seh_endprologue
	movq	%rcx, 16(%rbp)	 # this, this
	movq	%rdx, 24(%rbp)	 # __first, __first
.LBB492:
 # D:/msys64/ucrt64/include/c++/15.2.0/bits/stl_uninitialized.h:114:       : _M_first(__first), _M_cur(__builtin_addressof(__first))
	.loc 16 114 9
	movq	24(%rbp), %rax	 # __first, tmp99
	movq	(%rax), %rdx	 # *__first_5(D), _1
	movq	16(%rbp), %rax	 # this, tmp100
	movq	%rdx, (%rax)	 # _1, this_3(D)->_M_first
 # D:/msys64/ucrt64/include/c++/15.2.0/bits/stl_uninitialized.h:114:       : _M_first(__first), _M_cur(__builtin_addressof(__first))
	.loc 16 114 28
	movq	16(%rbp), %rax	 # this, tmp101
	movq	24(%rbp), %rdx	 # __first, tmp102
	movq	%rdx, 8(%rax)	 # tmp102, this_3(D)->_M_cur
.LBE492:
 # D:/msys64/ucrt64/include/c++/15.2.0/bits/stl_uninitialized.h:115:       { }
	.loc 16 115 9
	nop	
	popq	%rbp	 #
	.cfi_restore 6
	.cfi_def_cfa 7, 8
	ret	
	.cfi_endproc
.LFE5720:
	.seh_endproc
	.section	.text$_ZSt16__do_uninit_copyIPdS0_S0_ET1_T_T0_S1_,"x"
	.linkonce discard
	.globl	_ZSt16__do_uninit_copyIPdS0_S0_ET1_T_T0_S1_
	.def	_ZSt16__do_uninit_copyIPdS0_S0_ET1_T_T0_S1_;	.scl	2;	.type	32;	.endef
	.seh_proc	_ZSt16__do_uninit_copyIPdS0_S0_ET1_T_T0_S1_
_ZSt16__do_uninit_copyIPdS0_S0_ET1_T_T0_S1_:
.LFB5717:
	.loc 16 140 5
	.cfi_startproc
	pushq	%rbp	 #
	.seh_pushreg	%rbp
	.cfi_def_cfa_offset 16
	.cfi_offset 6, -16
	pushq	%rbx	 #
	.seh_pushreg	%rbx
	.cfi_def_cfa_offset 24
	.cfi_offset 3, -24
	subq	$72, %rsp	 #,
	.seh_stackalloc	72
	.cfi_def_cfa_offset 96
	leaq	64(%rsp), %rbp	 #,
	.seh_setframe	%rbp, 64
	.cfi_def_cfa 6, 32
	.seh_endprologue
	movq	%rcx, 32(%rbp)	 # __first, __first
	movq	%rdx, 40(%rbp)	 # __last, __last
	movq	%r8, 48(%rbp)	 # __result, __result
 # D:/msys64/ucrt64/include/c++/15.2.0/bits/stl_uninitialized.h:143:       _UninitDestroyGuard<_ForwardIterator> __guard(__result);
	.loc 16 143 45
	leaq	48(%rbp), %rdx	 #, tmp104
	leaq	-32(%rbp), %rax	 #, tmp105
	movq	%rax, %rcx	 # tmp105,
	call	_ZNSt19_UninitDestroyGuardIPdvEC1ERS0_	 #
 # D:/msys64/ucrt64/include/c++/15.2.0/bits/stl_uninitialized.h:144:       for (; __first != __last; ++__first, (void)++__result)
	.loc 16 144 7
	jmp	.L194	 #
.L196:
 # D:/msys64/ucrt64/include/c++/15.2.0/bits/stl_uninitialized.h:145: 	std::_Construct(std::__addressof(*__result), *__first);
	.loc 16 145 17
	movq	48(%rbp), %rax	 # __result, __result.50_1
	movq	%rax, -8(%rbp)	 # __result.50_1, __r
.LBB493:
.LBB494:
 # D:/msys64/ucrt64/include/c++/15.2.0/bits/move.h:53:     { return __builtin_addressof(__r); }
	.loc 12 53 37
	movq	-8(%rbp), %rax	 # __r, D.107595
.LBE494:
.LBE493:
 # D:/msys64/ucrt64/include/c++/15.2.0/bits/stl_uninitialized.h:145: 	std::_Construct(std::__addressof(*__result), *__first);
	.loc 16 145 17 discriminator 1
	movq	32(%rbp), %rdx	 # __first, tmp106
	movq	%rax, %rcx	 # D.107595,
	call	_ZSt10_ConstructIdJRdEEvPT_DpOT0_	 #
 # D:/msys64/ucrt64/include/c++/15.2.0/bits/stl_uninitialized.h:144:       for (; __first != __last; ++__first, (void)++__result)
	.loc 16 144 7 discriminator 2
	addq	$8, 32(%rbp)	 #, __first
 # D:/msys64/ucrt64/include/c++/15.2.0/bits/stl_uninitialized.h:144:       for (; __first != __last; ++__first, (void)++__result)
	.loc 16 144 44 discriminator 2
	movq	48(%rbp), %rax	 # __result, __result.51_3
	addq	$8, %rax	 #, _4
	movq	%rax, 48(%rbp)	 # _4, __result
.L194:
 # D:/msys64/ucrt64/include/c++/15.2.0/bits/stl_uninitialized.h:144:       for (; __first != __last; ++__first, (void)++__result)
	.loc 16 144 22 discriminator 1
	movq	32(%rbp), %rax	 # __first, tmp107
	cmpq	40(%rbp), %rax	 # __last, tmp107
	jne	.L196	 #,
 # D:/msys64/ucrt64/include/c++/15.2.0/bits/stl_uninitialized.h:146:       __guard.release();
	.loc 16 146 22
	leaq	-32(%rbp), %rax	 #, tmp108
	movq	%rax, %rcx	 # tmp108,
	call	_ZNSt19_UninitDestroyGuardIPdvE7releaseEv	 #
 # D:/msys64/ucrt64/include/c++/15.2.0/bits/stl_uninitialized.h:147:       return __result;
	.loc 16 147 14
	movq	48(%rbp), %rbx	 # __result, _12
 # D:/msys64/ucrt64/include/c++/15.2.0/bits/stl_uninitialized.h:148:     }
	.loc 16 148 5
	leaq	-32(%rbp), %rax	 #, tmp109
	movq	%rax, %rcx	 # tmp109,
	call	_ZNSt19_UninitDestroyGuardIPdvED1Ev	 #
 # D:/msys64/ucrt64/include/c++/15.2.0/bits/stl_uninitialized.h:147:       return __result;
	.loc 16 147 14
	movq	%rbx, %rax	 # _12, <retval>
 # D:/msys64/ucrt64/include/c++/15.2.0/bits/stl_uninitialized.h:148:     }
	.loc 16 148 5
	addq	$72, %rsp	 #,
	popq	%rbx	 #
	.cfi_restore 3
	popq	%rbp	 #
	.cfi_restore 6
	.cfi_def_cfa 7, -56
	ret	
	.cfi_endproc
.LFE5717:
	.seh_endproc
	.section	.text$_ZSt18uninitialized_copyIPdS0_ET0_T_S2_S1_,"x"
	.linkonce discard
	.globl	_ZSt18uninitialized_copyIPdS0_ET0_T_S2_S1_
	.def	_ZSt18uninitialized_copyIPdS0_ET0_T_S2_S1_;	.scl	2;	.type	32;	.endef
	.seh_proc	_ZSt18uninitialized_copyIPdS0_ET0_T_S2_S1_
_ZSt18uninitialized_copyIPdS0_ET0_T_S2_S1_:
.LFB5721:
	.loc 16 231 5
	.cfi_startproc
	pushq	%rbp	 #
	.seh_pushreg	%rbp
	.cfi_def_cfa_offset 16
	.cfi_offset 6, -16
	movq	%rsp, %rbp	 #,
	.seh_setframe	%rbp, 0
	.cfi_def_cfa_register 6
	subq	$64, %rsp	 #,
	.seh_stackalloc	64
	.seh_endprologue
	movq	%rcx, 16(%rbp)	 # __first, __first
	movq	%rdx, 24(%rbp)	 # __last, __last
	movq	%r8, 32(%rbp)	 # __result, __result
.LBB495:
.LBB496:
.LBB497:
.LBB498:
 # D:/msys64/ucrt64/include/c++/15.2.0/bits/stl_uninitialized.h:269: 	  ptrdiff_t __n = __last - __first;
	.loc 16 269 27
	movq	24(%rbp), %rax	 # __last, tmp107
	subq	16(%rbp), %rax	 # __first, _1
 # D:/msys64/ucrt64/include/c++/15.2.0/bits/stl_uninitialized.h:269: 	  ptrdiff_t __n = __last - __first;
	.loc 16 269 14
	sarq	$3, %rax	 #, __n_12
	movq	%rax, -8(%rbp)	 # __n_12, __n
.LBB499:
 # D:/msys64/ucrt64/include/c++/15.2.0/bits/stl_uninitialized.h:270: 	  if (__n > 0) [[__likely__]]
	.loc 16 270 4
	cmpq	$0, -8(%rbp)	 #, __n
	jle	.L199	 #,
.LBB500:
.LBB501:
 # D:/msys64/ucrt64/include/c++/15.2.0/bits/stl_uninitialized.h:275: 			       __n * sizeof(_ValT));
	.loc 16 275 11
	movq	-8(%rbp), %rax	 # __n, __n.53_2
 # D:/msys64/ucrt64/include/c++/15.2.0/bits/stl_uninitialized.h:273: 	      __builtin_memcpy(std::__niter_base(__result),
	.loc 16 273 24
	leaq	0(,%rax,8), %rcx	 #, _3
	movq	16(%rbp), %rax	 # __first, tmp109
	movq	%rax, -24(%rbp)	 # tmp109, __it
.LBB502:
.LBB503:
 # D:/msys64/ucrt64/include/c++/15.2.0/bits/stl_iterator.h:3011:     { return __it; }
	.loc 15 3011 14
	movq	-24(%rbp), %rdx	 # __it, D.107529
	movq	32(%rbp), %rax	 # __result, tmp110
	movq	%rax, -16(%rbp)	 # tmp110, __it
.LBE503:
.LBE502:
.LBB504:
.LBB505:
	movq	-16(%rbp), %rax	 # __it, D.107525
.LBE505:
.LBE504:
 # D:/msys64/ucrt64/include/c++/15.2.0/bits/stl_uninitialized.h:273: 	      __builtin_memcpy(std::__niter_base(__result),
	.loc 16 273 24 discriminator 1
	movq	%rcx, %r8	 # tmp113,
	movq	%rax, %rcx	 # tmp111,
	call	memcpy	 #
 # D:/msys64/ucrt64/include/c++/15.2.0/bits/stl_uninitialized.h:276: 	      __result += __n;
	.loc 16 276 20
	movq	-8(%rbp), %rax	 # __n, __n.54_6
 # D:/msys64/ucrt64/include/c++/15.2.0/bits/stl_uninitialized.h:276: 	      __result += __n;
	.loc 16 276 17
	salq	$3, %rax	 #, _7
	addq	%rax, 32(%rbp)	 # _7, __result
.L199:
.LBE501:
.LBE500:
.LBE499:
 # D:/msys64/ucrt64/include/c++/15.2.0/bits/stl_uninitialized.h:278: 	  return __result;
	.loc 16 278 11
	movq	32(%rbp), %rax	 # __result, _17
.LBE498:
.LBE497:
.LBE496:
.LBE495:
 # D:/msys64/ucrt64/include/c++/15.2.0/bits/stl_uninitialized.h:317:     }
	.loc 16 317 5
	addq	$64, %rsp	 #,
	popq	%rbp	 #
	.cfi_restore 6
	.cfi_def_cfa 7, 8
	ret	
	.cfi_endproc
.LFE5721:
	.seh_endproc
	.section	.text$_ZNKSt6vectorIdSaIdEE8max_sizeEv,"x"
	.linkonce discard
	.align 2
	.globl	_ZNKSt6vectorIdSaIdEE8max_sizeEv
	.def	_ZNKSt6vectorIdSaIdEE8max_sizeEv;	.scl	2;	.type	32;	.endef
	.seh_proc	_ZNKSt6vectorIdSaIdEE8max_sizeEv
_ZNKSt6vectorIdSaIdEE8max_sizeEv:
.LFB5722:
	.loc 5 1128 7
	.cfi_startproc
	pushq	%rbp	 #
	.seh_pushreg	%rbp
	.cfi_def_cfa_offset 16
	.cfi_offset 6, -16
	movq	%rsp, %rbp	 #,
	.seh_setframe	%rbp, 0
	.cfi_def_cfa_register 6
	subq	$32, %rsp	 #,
	.seh_stackalloc	32
	.seh_endprologue
	movq	%rcx, 16(%rbp)	 # this, this
 # D:/msys64/ucrt64/include/c++/15.2.0/bits/stl_vector.h:1129:       { return _S_max_size(_M_get_Tp_allocator()); }
	.loc 5 1129 47
	movq	16(%rbp), %rax	 # this, _1
	movq	%rax, %rcx	 # _1,
	call	_ZNKSt12_Vector_baseIdSaIdEE19_M_get_Tp_allocatorEv	 #
 # D:/msys64/ucrt64/include/c++/15.2.0/bits/stl_vector.h:1129:       { return _S_max_size(_M_get_Tp_allocator()); }
	.loc 5 1129 27 discriminator 1
	movq	%rax, %rcx	 # _2,
	call	_ZNSt6vectorIdSaIdEE11_S_max_sizeERKS0_	 #
 # D:/msys64/ucrt64/include/c++/15.2.0/bits/stl_vector.h:1129:       { return _S_max_size(_M_get_Tp_allocator()); }
	.loc 5 1129 52
	addq	$32, %rsp	 #,
	popq	%rbp	 #
	.cfi_restore 6
	.cfi_def_cfa 7, 8
	ret	
	.cfi_endproc
.LFE5722:
	.seh_endproc
	.section	.text$_ZSt27__uninitialized_default_n_aIPdydET_S1_T0_RSaIT1_E,"x"
	.linkonce discard
	.globl	_ZSt27__uninitialized_default_n_aIPdydET_S1_T0_RSaIT1_E
	.def	_ZSt27__uninitialized_default_n_aIPdydET_S1_T0_RSaIT1_E;	.scl	2;	.type	32;	.endef
	.seh_proc	_ZSt27__uninitialized_default_n_aIPdydET_S1_T0_RSaIT1_E
_ZSt27__uninitialized_default_n_aIPdydET_S1_T0_RSaIT1_E:
.LFB5723:
	.loc 16 1000 5
	.cfi_startproc
	pushq	%rbp	 #
	.seh_pushreg	%rbp
	.cfi_def_cfa_offset 16
	.cfi_offset 6, -16
	movq	%rsp, %rbp	 #,
	.seh_setframe	%rbp, 0
	.cfi_def_cfa_register 6
	subq	$32, %rsp	 #,
	.seh_stackalloc	32
	.seh_endprologue
	movq	%rcx, 16(%rbp)	 # __first, __first
	movq	%rdx, 24(%rbp)	 # __n, __n
	movq	%r8, 32(%rbp)	 # D.104500, D.104500
 # D:/msys64/ucrt64/include/c++/15.2.0/bits/stl_uninitialized.h:1002:     { return std::__uninitialized_default_n(__first, __n); }
	.loc 16 1002 44
	movq	24(%rbp), %rdx	 # __n, tmp100
	movq	16(%rbp), %rax	 # __first, tmp101
	movq	%rax, %rcx	 # tmp101,
	call	_ZSt25__uninitialized_default_nIPdyET_S1_T0_	 #
 # D:/msys64/ucrt64/include/c++/15.2.0/bits/stl_uninitialized.h:1002:     { return std::__uninitialized_default_n(__first, __n); }
	.loc 16 1002 60
	addq	$32, %rsp	 #,
	popq	%rbp	 #
	.cfi_restore 6
	.cfi_def_cfa 7, 8
	ret	
	.cfi_endproc
.LFE5723:
	.seh_endproc
	.section	.text$_ZNSt6vectorIdSaIdEE11_S_relocateEPdS2_S2_RS0_,"x"
	.linkonce discard
	.globl	_ZNSt6vectorIdSaIdEE11_S_relocateEPdS2_S2_RS0_
	.def	_ZNSt6vectorIdSaIdEE11_S_relocateEPdS2_S2_RS0_;	.scl	2;	.type	32;	.endef
	.seh_proc	_ZNSt6vectorIdSaIdEE11_S_relocateEPdS2_S2_RS0_
_ZNSt6vectorIdSaIdEE11_S_relocateEPdS2_S2_RS0_:
.LFB5724:
	.loc 5 534 7
	.cfi_startproc
	pushq	%rbp	 #
	.seh_pushreg	%rbp
	.cfi_def_cfa_offset 16
	.cfi_offset 6, -16
	movq	%rsp, %rbp	 #,
	.seh_setframe	%rbp, 0
	.cfi_def_cfa_register 6
	subq	$32, %rsp	 #,
	.seh_stackalloc	32
	.seh_endprologue
	movq	%rcx, 16(%rbp)	 # __first, __first
	movq	%rdx, 24(%rbp)	 # __last, __last
	movq	%r8, 32(%rbp)	 # __result, __result
	movq	%r9, 40(%rbp)	 # __alloc, __alloc
 # D:/msys64/ucrt64/include/c++/15.2.0/bits/stl_vector.h:539: 	return std::__relocate_a(__first, __last, __result, __alloc);
	.loc 5 539 26
	movq	40(%rbp), %r8	 # __alloc, tmp100
	movq	32(%rbp), %rcx	 # __result, tmp101
	movq	24(%rbp), %rdx	 # __last, tmp102
	movq	16(%rbp), %rax	 # __first, tmp103
	movq	%r8, %r9	 # tmp100,
	movq	%rcx, %r8	 # tmp101,
	movq	%rax, %rcx	 # tmp103,
	call	_ZSt12__relocate_aIPdS0_SaIdEET0_T_S3_S2_RT1_	 #
 # D:/msys64/ucrt64/include/c++/15.2.0/bits/stl_vector.h:544:       }
	.loc 5 544 7
	addq	$32, %rsp	 #,
	popq	%rbp	 #
	.cfi_restore 6
	.cfi_def_cfa 7, 8
	ret	
	.cfi_endproc
.LFE5724:
	.seh_endproc
	.section	.text$_ZSt10destroy_atIdEvPT_,"x"
	.linkonce discard
	.globl	_ZSt10destroy_atIdEvPT_
	.def	_ZSt10destroy_atIdEvPT_;	.scl	2;	.type	32;	.endef
	.seh_proc	_ZSt10destroy_atIdEvPT_
_ZSt10destroy_atIdEvPT_:
.LFB5801:
	.loc 17 80 5
	.cfi_startproc
	pushq	%rbp	 #
	.seh_pushreg	%rbp
	.cfi_def_cfa_offset 16
	.cfi_offset 6, -16
	movq	%rsp, %rbp	 #,
	.seh_setframe	%rbp, 0
	.cfi_def_cfa_register 6
	.seh_endprologue
	movq	%rcx, 16(%rbp)	 # __location, __location
 # D:/msys64/ucrt64/include/c++/15.2.0/bits/stl_construct.h:89:     }
	.loc 17 89 5
	nop	
	popq	%rbp	 #
	.cfi_restore 6
	.cfi_def_cfa 7, 8
	ret	
	.cfi_endproc
.LFE5801:
	.seh_endproc
	.section	.text$_ZSt16__do_uninit_copyIN9__gnu_cxx17__normal_iteratorIPKdSt6vectorIdSaIdEEEES7_PdET1_T_T0_S9_,"x"
	.linkonce discard
	.globl	_ZSt16__do_uninit_copyIN9__gnu_cxx17__normal_iteratorIPKdSt6vectorIdSaIdEEEES7_PdET1_T_T0_S9_
	.def	_ZSt16__do_uninit_copyIN9__gnu_cxx17__normal_iteratorIPKdSt6vectorIdSaIdEEEES7_PdET1_T_T0_S9_;	.scl	2;	.type	32;	.endef
	.seh_proc	_ZSt16__do_uninit_copyIN9__gnu_cxx17__normal_iteratorIPKdSt6vectorIdSaIdEEEES7_PdET1_T_T0_S9_
_ZSt16__do_uninit_copyIN9__gnu_cxx17__normal_iteratorIPKdSt6vectorIdSaIdEEEES7_PdET1_T_T0_S9_:
.LFB5818:
	.loc 16 140 5
	.cfi_startproc
	pushq	%rbp	 #
	.seh_pushreg	%rbp
	.cfi_def_cfa_offset 16
	.cfi_offset 6, -16
	pushq	%rbx	 #
	.seh_pushreg	%rbx
	.cfi_def_cfa_offset 24
	.cfi_offset 3, -24
	subq	$88, %rsp	 #,
	.seh_stackalloc	88
	.cfi_def_cfa_offset 112
	leaq	80(%rsp), %rbp	 #,
	.seh_setframe	%rbp, 80
	.cfi_def_cfa 6, 32
	.seh_endprologue
	movq	%rcx, 32(%rbp)	 # __first, __first
	movq	%rdx, 40(%rbp)	 # __last, __last
	movq	%r8, 48(%rbp)	 # __result, __result
 # D:/msys64/ucrt64/include/c++/15.2.0/bits/stl_uninitialized.h:143:       _UninitDestroyGuard<_ForwardIterator> __guard(__result);
	.loc 16 143 45
	leaq	48(%rbp), %rdx	 #, tmp114
	leaq	-48(%rbp), %rax	 #, tmp115
	movq	%rax, %rcx	 # tmp115,
	call	_ZNSt19_UninitDestroyGuardIPdvEC1ERS0_	 #
 # D:/msys64/ucrt64/include/c++/15.2.0/bits/stl_uninitialized.h:144:       for (; __first != __last; ++__first, (void)++__result)
	.loc 16 144 7
	jmp	.L211	 #
.L218:
.LBB506:
.LBB507:
 # D:/msys64/ucrt64/include/c++/15.2.0/bits/stl_iterator.h:1090:       { return *_M_current; }
	.loc 15 1090 17
	movq	32(%rbp), %rdx	 # __first._M_current, D.107630
.LBE507:
.LBE506:
 # D:/msys64/ucrt64/include/c++/15.2.0/bits/stl_uninitialized.h:145: 	std::_Construct(std::__addressof(*__result), *__first);
	.loc 16 145 17 discriminator 1
	movq	48(%rbp), %rax	 # __result, __result.13_2
	movq	%rax, -8(%rbp)	 # __result.13_2, __r
.LBB508:
.LBB509:
 # D:/msys64/ucrt64/include/c++/15.2.0/bits/move.h:53:     { return __builtin_addressof(__r); }
	.loc 12 53 37
	movq	-8(%rbp), %rax	 # __r, D.107626
.LBE509:
.LBE508:
 # D:/msys64/ucrt64/include/c++/15.2.0/bits/stl_uninitialized.h:145: 	std::_Construct(std::__addressof(*__result), *__first);
	.loc 16 145 17 discriminator 2
	movq	%rax, %rcx	 # D.107626,
	call	_ZSt10_ConstructIdJRKdEEvPT_DpOT0_	 #
.LBB510:
.LBB511:
 # D:/msys64/ucrt64/include/c++/15.2.0/bits/stl_iterator.h:1103: 	++_M_current;
	.loc 15 1103 4
	movq	32(%rbp), %rax	 # __first._M_current, _17
 # D:/msys64/ucrt64/include/c++/15.2.0/bits/stl_iterator.h:1103: 	++_M_current;
	.loc 15 1103 2
	addq	$8, %rax	 #, _18
	movq	%rax, 32(%rbp)	 # _18, __first._M_current
 # D:/msys64/ucrt64/include/c++/15.2.0/bits/stl_iterator.h:1104: 	return *this;
	.loc 15 1104 10
	nop	
.LBE511:
.LBE510:
 # D:/msys64/ucrt64/include/c++/15.2.0/bits/stl_uninitialized.h:144:       for (; __first != __last; ++__first, (void)++__result)
	.loc 16 144 44 discriminator 4
	movq	48(%rbp), %rax	 # __result, __result.14_4
	addq	$8, %rax	 #, _5
	movq	%rax, 48(%rbp)	 # _5, __result
.L211:
	leaq	32(%rbp), %rax	 #, tmp121
	movq	%rax, -16(%rbp)	 # tmp121, this
.LBB512:
.LBB513:
.LBB514:
.LBB515:
 # D:/msys64/ucrt64/include/c++/15.2.0/bits/stl_iterator.h:1166:       { return _M_current; }
	.loc 15 1166 16
	movq	-16(%rbp), %rax	 # this, _24
.LBE515:
.LBE514:
 # D:/msys64/ucrt64/include/c++/15.2.0/bits/stl_iterator.h:1206:     { return __lhs.base() == __rhs.base(); }
	.loc 15 1206 27 discriminator 1
	movq	(%rax), %rdx	 # *_26, _27
	leaq	40(%rbp), %rax	 #, tmp116
	movq	%rax, -24(%rbp)	 # tmp116, this
.LBB516:
.LBB517:
 # D:/msys64/ucrt64/include/c++/15.2.0/bits/stl_iterator.h:1166:       { return _M_current; }
	.loc 15 1166 16
	movq	-24(%rbp), %rax	 # this, _29
.LBE517:
.LBE516:
 # D:/msys64/ucrt64/include/c++/15.2.0/bits/stl_iterator.h:1206:     { return __lhs.base() == __rhs.base(); }
	.loc 15 1206 27 discriminator 2
	movq	(%rax), %rax	 # *_31, _32
 # D:/msys64/ucrt64/include/c++/15.2.0/bits/stl_iterator.h:1206:     { return __lhs.base() == __rhs.base(); }
	.loc 15 1206 41 discriminator 2
	cmpq	%rax, %rdx	 # _32, _27
	sete	%al	 #, D.107639
.LBE513:
.LBE512:
 # D:/msys64/ucrt64/include/c++/15.2.0/bits/stl_uninitialized.h:144:       for (; __first != __last; ++__first, (void)++__result)
	.loc 16 144 22 discriminator 3
	xorl	$1, %eax	 #, retval.15_10
	testb	%al, %al	 # retval.15_10
	jne	.L218	 #,
 # D:/msys64/ucrt64/include/c++/15.2.0/bits/stl_uninitialized.h:146:       __guard.release();
	.loc 16 146 22
	leaq	-48(%rbp), %rax	 #, tmp117
	movq	%rax, %rcx	 # tmp117,
	call	_ZNSt19_UninitDestroyGuardIPdvE7releaseEv	 #
 # D:/msys64/ucrt64/include/c++/15.2.0/bits/stl_uninitialized.h:147:       return __result;
	.loc 16 147 14
	movq	48(%rbp), %rbx	 # __result, _12
 # D:/msys64/ucrt64/include/c++/15.2.0/bits/stl_uninitialized.h:148:     }
	.loc 16 148 5
	leaq	-48(%rbp), %rax	 #, tmp118
	movq	%rax, %rcx	 # tmp118,
	call	_ZNSt19_UninitDestroyGuardIPdvED1Ev	 #
 # D:/msys64/ucrt64/include/c++/15.2.0/bits/stl_uninitialized.h:147:       return __result;
	.loc 16 147 14
	movq	%rbx, %rax	 # _12, <retval>
 # D:/msys64/ucrt64/include/c++/15.2.0/bits/stl_uninitialized.h:148:     }
	.loc 16 148 5
	addq	$88, %rsp	 #,
	popq	%rbx	 #
	.cfi_restore 3
	popq	%rbp	 #
	.cfi_restore 6
	.cfi_def_cfa 7, -72
	ret	
	.cfi_endproc
.LFE5818:
	.seh_endproc
	.section	.text$_ZSt18uninitialized_copyIN9__gnu_cxx17__normal_iteratorIPKdSt6vectorIdSaIdEEEEPdET0_T_SA_S9_,"x"
	.linkonce discard
	.globl	_ZSt18uninitialized_copyIN9__gnu_cxx17__normal_iteratorIPKdSt6vectorIdSaIdEEEEPdET0_T_SA_S9_
	.def	_ZSt18uninitialized_copyIN9__gnu_cxx17__normal_iteratorIPKdSt6vectorIdSaIdEEEEPdET0_T_SA_S9_;	.scl	2;	.type	32;	.endef
	.seh_proc	_ZSt18uninitialized_copyIN9__gnu_cxx17__normal_iteratorIPKdSt6vectorIdSaIdEEEEPdET0_T_SA_S9_
_ZSt18uninitialized_copyIN9__gnu_cxx17__normal_iteratorIPKdSt6vectorIdSaIdEEEEPdET0_T_SA_S9_:
.LFB5821:
	.loc 16 231 5
	.cfi_startproc
	pushq	%rbp	 #
	.seh_pushreg	%rbp
	.cfi_def_cfa_offset 16
	.cfi_offset 6, -16
	movq	%rsp, %rbp	 #,
	.seh_setframe	%rbp, 0
	.cfi_def_cfa_register 6
	subq	$80, %rsp	 #,
	.seh_stackalloc	80
	.seh_endprologue
	movq	%rcx, 16(%rbp)	 # __first, __first
	movq	%rdx, 24(%rbp)	 # __last, __last
	movq	%r8, 32(%rbp)	 # __result, __result
	leaq	24(%rbp), %rax	 #, tmp113
	movq	%rax, -16(%rbp)	 # tmp113, this
.LBB518:
.LBB519:
.LBB520:
.LBB521:
.LBB522:
.LBB523:
.LBB524:
.LBB525:
 # D:/msys64/ucrt64/include/c++/15.2.0/bits/stl_iterator.h:1166:       { return _M_current; }
	.loc 15 1166 16
	movq	-16(%rbp), %rax	 # this, _16
.LBE525:
.LBE524:
 # D:/msys64/ucrt64/include/c++/15.2.0/bits/stl_iterator.h:1340:     { return __lhs.base() - __rhs.base(); }
	.loc 15 1340 27 discriminator 1
	movq	(%rax), %rdx	 # *_18, _19
	leaq	16(%rbp), %rax	 #, tmp124
	movq	%rax, -24(%rbp)	 # tmp124, this
.LBB526:
.LBB527:
 # D:/msys64/ucrt64/include/c++/15.2.0/bits/stl_iterator.h:1166:       { return _M_current; }
	.loc 15 1166 16
	movq	-24(%rbp), %rax	 # this, _21
.LBE527:
.LBE526:
 # D:/msys64/ucrt64/include/c++/15.2.0/bits/stl_iterator.h:1340:     { return __lhs.base() - __rhs.base(); }
	.loc 15 1340 27 discriminator 2
	movq	(%rax), %rax	 # *_23, _24
	subq	%rax, %rdx	 # _24, _25
 # D:/msys64/ucrt64/include/c++/15.2.0/bits/stl_iterator.h:1340:     { return __lhs.base() - __rhs.base(); }
	.loc 15 1340 40 discriminator 2
	movq	%rdx, %rax	 # _25, _25
	sarq	$3, %rax	 #, _25
.LBE523:
.LBE522:
 # D:/msys64/ucrt64/include/c++/15.2.0/bits/stl_uninitialized.h:269: 	  ptrdiff_t __n = __last - __first;
	.loc 16 269 27
	movq	%rax, -8(%rbp)	 # D.107505, __n
.LBB528:
 # D:/msys64/ucrt64/include/c++/15.2.0/bits/stl_uninitialized.h:270: 	  if (__n > 0) [[__likely__]]
	.loc 16 270 4
	cmpq	$0, -8(%rbp)	 #, __n
	jle	.L224	 #,
.LBB529:
.LBB530:
 # D:/msys64/ucrt64/include/c++/15.2.0/bits/stl_uninitialized.h:275: 			       __n * sizeof(_ValT));
	.loc 16 275 11
	movq	-8(%rbp), %rax	 # __n, __n.18_1
 # D:/msys64/ucrt64/include/c++/15.2.0/bits/stl_uninitialized.h:273: 	      __builtin_memcpy(std::__niter_base(__result),
	.loc 16 273 24
	leaq	0(,%rax,8), %rcx	 #, _2
	movq	16(%rbp), %rax	 # __first, tmp115
	movq	%rax, -40(%rbp)	 # tmp115, __it
.LBB531:
.LBB532:
.LBB533:
.LBB534:
 # D:/msys64/ucrt64/include/c++/15.2.0/bits/stl_iterator.h:1166:       { return _M_current; }
	.loc 15 1166 16
	leaq	-40(%rbp), %rax	 #, _29
.LBE534:
.LBE533:
 # D:/msys64/ucrt64/include/c++/15.2.0/bits/stl_iterator.h:3002:     { return __it.base(); }
	.loc 15 3002 24 discriminator 1
	movq	(%rax), %rdx	 # *_31, D.107519
	movq	32(%rbp), %rax	 # __result, tmp116
	movq	%rax, -32(%rbp)	 # tmp116, __it
.LBE532:
.LBE531:
.LBB535:
.LBB536:
 # D:/msys64/ucrt64/include/c++/15.2.0/bits/stl_iterator.h:3011:     { return __it; }
	.loc 15 3011 14
	movq	-32(%rbp), %rax	 # __it, D.107513
.LBE536:
.LBE535:
 # D:/msys64/ucrt64/include/c++/15.2.0/bits/stl_uninitialized.h:273: 	      __builtin_memcpy(std::__niter_base(__result),
	.loc 16 273 24 discriminator 1
	movq	%rcx, %r8	 # tmp119,
	movq	%rax, %rcx	 # tmp117,
	call	memcpy	 #
 # D:/msys64/ucrt64/include/c++/15.2.0/bits/stl_uninitialized.h:276: 	      __result += __n;
	.loc 16 276 20
	movq	-8(%rbp), %rax	 # __n, __n.19_5
 # D:/msys64/ucrt64/include/c++/15.2.0/bits/stl_uninitialized.h:276: 	      __result += __n;
	.loc 16 276 17
	salq	$3, %rax	 #, _6
	addq	%rax, 32(%rbp)	 # _6, __result
.L224:
.LBE530:
.LBE529:
.LBE528:
 # D:/msys64/ucrt64/include/c++/15.2.0/bits/stl_uninitialized.h:278: 	  return __result;
	.loc 16 278 11
	movq	32(%rbp), %rax	 # __result, _14
.LBE521:
.LBE520:
.LBE519:
.LBE518:
 # D:/msys64/ucrt64/include/c++/15.2.0/bits/stl_uninitialized.h:317:     }
	.loc 16 317 5
	addq	$80, %rsp	 #,
	popq	%rbp	 #
	.cfi_restore 6
	.cfi_def_cfa 7, 8
	ret	
	.cfi_endproc
.LFE5821:
	.seh_endproc
	.section	.text$_ZSt12__niter_wrapIN9__gnu_cxx17__normal_iteratorIPdSt6vectorIdSaIdEEEES2_ET_S7_T0_,"x"
	.linkonce discard
	.globl	_ZSt12__niter_wrapIN9__gnu_cxx17__normal_iteratorIPdSt6vectorIdSaIdEEEES2_ET_S7_T0_
	.def	_ZSt12__niter_wrapIN9__gnu_cxx17__normal_iteratorIPdSt6vectorIdSaIdEEEES2_ET_S7_T0_;	.scl	2;	.type	32;	.endef
	.seh_proc	_ZSt12__niter_wrapIN9__gnu_cxx17__normal_iteratorIPdSt6vectorIdSaIdEEEES2_ET_S7_T0_
_ZSt12__niter_wrapIN9__gnu_cxx17__normal_iteratorIPdSt6vectorIdSaIdEEEES2_ET_S7_T0_:
.LFB5826:
	.loc 15 3073 5
	.cfi_startproc
	pushq	%rbp	 #
	.seh_pushreg	%rbp
	.cfi_def_cfa_offset 16
	.cfi_offset 6, -16
	movq	%rsp, %rbp	 #,
	.seh_setframe	%rbp, 0
	.cfi_def_cfa_register 6
	subq	$48, %rsp	 #,
	.seh_stackalloc	48
	.seh_endprologue
	movq	%rcx, 16(%rbp)	 # __from, __from
	movq	%rdx, 24(%rbp)	 # __res, __res
	movq	24(%rbp), %rax	 # __res, tmp111
	movq	%rax, -16(%rbp)	 # tmp111, __it
.LBB537:
.LBB538:
 # D:/msys64/ucrt64/include/c++/15.2.0/bits/stl_iterator.h:3011:     { return __it; }
	.loc 15 3011 14
	movq	-16(%rbp), %rdx	 # __it, D.107576
	movq	16(%rbp), %rax	 # __from, tmp112
	movq	%rax, -40(%rbp)	 # tmp112, __it
.LBE538:
.LBE537:
.LBB539:
.LBB540:
.LBB541:
.LBB542:
 # D:/msys64/ucrt64/include/c++/15.2.0/bits/stl_iterator.h:1166:       { return _M_current; }
	.loc 15 1166 16
	leaq	-40(%rbp), %rax	 #, _13
.LBE542:
.LBE541:
 # D:/msys64/ucrt64/include/c++/15.2.0/bits/stl_iterator.h:3002:     { return __it.base(); }
	.loc 15 3002 24 discriminator 1
	movq	(%rax), %rax	 # *_15, D.107570
.LBE540:
.LBE539:
 # D:/msys64/ucrt64/include/c++/15.2.0/bits/stl_iterator.h:3074:     { return __from + (std::__niter_base(__res) - std::__niter_base(__from)); }
	.loc 15 3074 49 discriminator 2
	subq	%rax, %rdx	 # D.107570, _3
 # D:/msys64/ucrt64/include/c++/15.2.0/bits/stl_iterator.h:3074:     { return __from + (std::__niter_base(__res) - std::__niter_base(__from)); }
	.loc 15 3074 21 discriminator 2
	movq	%rdx, %rax	 # _3, _3
	sarq	$3, %rax	 #, _3
	movq	%rax, -8(%rbp)	 # _4, __n
.LBB543:
.LBB544:
 # D:/msys64/ucrt64/include/c++/15.2.0/bits/stl_iterator.h:1148:       { return __normal_iterator(_M_current + __n); }
	.loc 15 1148 34
	movq	16(%rbp), %rax	 # __from._M_current, _8
 # D:/msys64/ucrt64/include/c++/15.2.0/bits/stl_iterator.h:1148:       { return __normal_iterator(_M_current + __n); }
	.loc 15 1148 47
	movq	-8(%rbp), %rdx	 # __n, __n.33_9
 # D:/msys64/ucrt64/include/c++/15.2.0/bits/stl_iterator.h:1148:       { return __normal_iterator(_M_current + __n); }
	.loc 15 1148 45
	salq	$3, %rdx	 #, _10
	addq	%rdx, %rax	 # _10, _11
	movq	%rax, -32(%rbp)	 # _11, D.107563
.LBB545:
.LBB546:
.LBB547:
 # D:/msys64/ucrt64/include/c++/15.2.0/bits/stl_iterator.h:1059:       : _M_current(__i) { }
	.loc 15 1059 9
	movq	-32(%rbp), %rax	 # D.107563, _12
	movq	%rax, -24(%rbp)	 # _12, D.107564._M_current
.LBE547:
 # D:/msys64/ucrt64/include/c++/15.2.0/bits/stl_iterator.h:1059:       : _M_current(__i) { }
	.loc 15 1059 27
	nop	
.LBE546:
.LBE545:
 # D:/msys64/ucrt64/include/c++/15.2.0/bits/stl_iterator.h:1148:       { return __normal_iterator(_M_current + __n); }
	.loc 15 1148 50 discriminator 1
	movq	-24(%rbp), %rax	 # D.107564, D.107565
.LBE544:
.LBE543:
 # D:/msys64/ucrt64/include/c++/15.2.0/bits/stl_iterator.h:3074:     { return __from + (std::__niter_base(__res) - std::__niter_base(__from)); }
	.loc 15 3074 79
	addq	$48, %rsp	 #,
	popq	%rbp	 #
	.cfi_restore 6
	.cfi_def_cfa 7, 8
	ret	
	.cfi_endproc
.LFE5826:
	.seh_endproc
	.section	.text$_ZNSt19_UninitDestroyGuardIPdvED1Ev,"x"
	.linkonce discard
	.align 2
	.globl	_ZNSt19_UninitDestroyGuardIPdvED1Ev
	.def	_ZNSt19_UninitDestroyGuardIPdvED1Ev;	.scl	2;	.type	32;	.endef
	.seh_proc	_ZNSt19_UninitDestroyGuardIPdvED1Ev
_ZNSt19_UninitDestroyGuardIPdvED1Ev:
.LFB5834:
	.loc 16 118 7
	.cfi_startproc
	pushq	%rbp	 #
	.seh_pushreg	%rbp
	.cfi_def_cfa_offset 16
	.cfi_offset 6, -16
	movq	%rsp, %rbp	 #,
	.seh_setframe	%rbp, 0
	.cfi_def_cfa_register 6
	subq	$32, %rsp	 #,
	.seh_stackalloc	32
	.seh_endprologue
	movq	%rcx, 16(%rbp)	 # this, this
.LBB548:
 # D:/msys64/ucrt64/include/c++/15.2.0/bits/stl_uninitialized.h:120: 	if (__builtin_expect(_M_cur != 0, 0))
	.loc 16 120 23
	movq	16(%rbp), %rax	 # this, tmp105
	movq	8(%rax), %rax	 # this_10(D)->_M_cur, _1
 # D:/msys64/ucrt64/include/c++/15.2.0/bits/stl_uninitialized.h:120: 	if (__builtin_expect(_M_cur != 0, 0))
	.loc 16 120 30
	testq	%rax, %rax	 # _1
	setne	%al	 #, _2
 # D:/msys64/ucrt64/include/c++/15.2.0/bits/stl_uninitialized.h:120: 	if (__builtin_expect(_M_cur != 0, 0))
	.loc 16 120 22
	movzbl	%al, %eax	 # _2, _3
 # D:/msys64/ucrt64/include/c++/15.2.0/bits/stl_uninitialized.h:120: 	if (__builtin_expect(_M_cur != 0, 0))
	.loc 16 120 2 discriminator 1
	testl	%eax, %eax	 # _4
	je	.L237	 #,
 # D:/msys64/ucrt64/include/c++/15.2.0/bits/stl_uninitialized.h:121: 	  std::_Destroy(_M_first, *_M_cur);
	.loc 16 121 29
	movq	16(%rbp), %rax	 # this, tmp106
	movq	8(%rax), %rax	 # this_10(D)->_M_cur, _5
 # D:/msys64/ucrt64/include/c++/15.2.0/bits/stl_uninitialized.h:121: 	  std::_Destroy(_M_first, *_M_cur);
	.loc 16 121 17
	movq	(%rax), %rdx	 # *_5, _6
 # D:/msys64/ucrt64/include/c++/15.2.0/bits/stl_uninitialized.h:121: 	  std::_Destroy(_M_first, *_M_cur);
	.loc 16 121 18
	movq	16(%rbp), %rax	 # this, tmp107
	movq	(%rax), %rax	 # this_10(D)->_M_first, _7
 # D:/msys64/ucrt64/include/c++/15.2.0/bits/stl_uninitialized.h:121: 	  std::_Destroy(_M_first, *_M_cur);
	.loc 16 121 17
	movq	%rax, %rcx	 # _7,
	call	_ZSt8_DestroyIPdEvT_S1_	 #
.L237:
.LBE548:
 # D:/msys64/ucrt64/include/c++/15.2.0/bits/stl_uninitialized.h:122:       }
	.loc 16 122 7
	nop	
	addq	$32, %rsp	 #,
	popq	%rbp	 #
	.cfi_restore 6
	.cfi_def_cfa 7, 8
	ret	
	.cfi_endproc
.LFE5834:
	.seh_endproc
	.section	.text$_ZSt10_ConstructIdJRdEEvPT_DpOT0_,"x"
	.linkonce discard
	.globl	_ZSt10_ConstructIdJRdEEvPT_DpOT0_
	.def	_ZSt10_ConstructIdJRdEEvPT_DpOT0_;	.scl	2;	.type	32;	.endef
	.seh_proc	_ZSt10_ConstructIdJRdEEvPT_DpOT0_
_ZSt10_ConstructIdJRdEEvPT_DpOT0_:
.LFB5835:
	.loc 17 123 5
	.cfi_startproc
	pushq	%rbp	 #
	.seh_pushreg	%rbp
	.cfi_def_cfa_offset 16
	.cfi_offset 6, -16
	pushq	%rbx	 #
	.seh_pushreg	%rbx
	.cfi_def_cfa_offset 24
	.cfi_offset 3, -24
	subq	$56, %rsp	 #,
	.seh_stackalloc	56
	.cfi_def_cfa_offset 80
	leaq	48(%rsp), %rbp	 #,
	.seh_setframe	%rbp, 48
	.cfi_def_cfa 6, 32
	.seh_endprologue
	movq	%rcx, 32(%rbp)	 # __p, __p
	movq	%rdx, 40(%rbp)	 # __args#0, __args#0
.LBB549:
.LBB550:
 # D:/msys64/ucrt64/include/c++/15.2.0/x86_64-w64-mingw32/bits/c++config.h:589:     return __builtin_is_constant_evaluated();
	.loc 14 589 44
	movl	$0, %eax	 #, D.107583
.LBE550:
.LBE549:
 # D:/msys64/ucrt64/include/c++/15.2.0/bits/stl_construct.h:126:       if (std::__is_constant_evaluated())
	.loc 17 126 7 discriminator 1
	testb	%al, %al	 # D.107583
	je	.L240	 #,
	movq	40(%rbp), %rax	 # __args#0, tmp106
	movq	%rax, -8(%rbp)	 # tmp106, __t
.LBB551:
.LBB552:
 # D:/msys64/ucrt64/include/c++/15.2.0/bits/move.h:73:     { return static_cast<_Tp&&>(__t); }
	.loc 12 73 36
	movq	-8(%rbp), %rdx	 # __t, D.107587
.LBE552:
.LBE551:
 # D:/msys64/ucrt64/include/c++/15.2.0/bits/stl_construct.h:129: 	  std::construct_at(__p, std::forward<_Args>(__args)...);
	.loc 17 129 21 discriminator 1
	movq	32(%rbp), %rax	 # __p, tmp107
	movq	%rax, %rcx	 # tmp107,
	call	_ZSt12construct_atIdJRdEQaant20is_unbounded_array_vIT_ErqXgsnwcvPvLi0E_S1_pispcl7declvalIT0_EEEEEPS1_S4_DpOS3_	 #
 # D:/msys64/ucrt64/include/c++/15.2.0/bits/stl_construct.h:130: 	  return;
	.loc 17 130 4
	jmp	.L238	 #
.L240:
 # D:/msys64/ucrt64/include/c++/15.2.0/bits/stl_construct.h:133:       ::new(static_cast<void*>(__p)) _Tp(std::forward<_Args>(__args)...);
	.loc 17 133 13
	movq	32(%rbp), %rbx	 # __p, _8
 # D:/msys64/ucrt64/include/c++/15.2.0/bits/stl_construct.h:133:       ::new(static_cast<void*>(__p)) _Tp(std::forward<_Args>(__args)...);
	.loc 17 133 7
	movq	%rbx, %rdx	 # _8,
	movl	$8, %ecx	 #,
	call	_ZnwyPv	 #
	movq	40(%rbp), %rdx	 # __args#0, tmp108
	movq	%rdx, -16(%rbp)	 # tmp108, __t
.LBB553:
.LBB554:
 # D:/msys64/ucrt64/include/c++/15.2.0/bits/move.h:73:     { return static_cast<_Tp&&>(__t); }
	.loc 12 73 36
	movq	-16(%rbp), %rdx	 # __t, D.107591
.LBE554:
.LBE553:
 # D:/msys64/ucrt64/include/c++/15.2.0/bits/stl_construct.h:133:       ::new(static_cast<void*>(__p)) _Tp(std::forward<_Args>(__args)...);
	.loc 17 133 7 discriminator 2
	movsd	(%rdx), %xmm0	 # *_2, _3
	movsd	%xmm0, (%rax)	 # _3, MEM[(double *)_10]
	movl	$0, %edx	 #, _14
	testb	%dl, %dl	 # _14
	je	.L238	 #,
 # D:/msys64/ucrt64/include/c++/15.2.0/bits/stl_construct.h:133:       ::new(static_cast<void*>(__p)) _Tp(std::forward<_Args>(__args)...);
	.loc 17 133 7 is_stmt 0 discriminator 3
	movq	%rbx, %rdx	 # _8,
	movq	%rax, %rcx	 # _10,
	call	_ZdlPvS_	 #
	nop	
.L238:
 # D:/msys64/ucrt64/include/c++/15.2.0/bits/stl_construct.h:134:     }
	.loc 17 134 5 is_stmt 1
	addq	$56, %rsp	 #,
	popq	%rbx	 #
	.cfi_restore 3
	popq	%rbp	 #
	.cfi_restore 6
	.cfi_def_cfa 7, -40
	ret	
	.cfi_endproc
.LFE5835:
	.seh_endproc
	.section	.text$_ZNSt19_UninitDestroyGuardIPdvE7releaseEv,"x"
	.linkonce discard
	.align 2
	.globl	_ZNSt19_UninitDestroyGuardIPdvE7releaseEv
	.def	_ZNSt19_UninitDestroyGuardIPdvE7releaseEv;	.scl	2;	.type	32;	.endef
	.seh_proc	_ZNSt19_UninitDestroyGuardIPdvE7releaseEv
_ZNSt19_UninitDestroyGuardIPdvE7releaseEv:
.LFB5836:
	.loc 16 125 12
	.cfi_startproc
	pushq	%rbp	 #
	.seh_pushreg	%rbp
	.cfi_def_cfa_offset 16
	.cfi_offset 6, -16
	movq	%rsp, %rbp	 #,
	.seh_setframe	%rbp, 0
	.cfi_def_cfa_register 6
	.seh_endprologue
	movq	%rcx, 16(%rbp)	 # this, this
 # D:/msys64/ucrt64/include/c++/15.2.0/bits/stl_uninitialized.h:125:       void release() { _M_cur = 0; }
	.loc 16 125 31
	movq	16(%rbp), %rax	 # this, tmp98
	movq	$0, 8(%rax)	 #, this_2(D)->_M_cur
 # D:/msys64/ucrt64/include/c++/15.2.0/bits/stl_uninitialized.h:125:       void release() { _M_cur = 0; }
	.loc 16 125 36
	nop	
	popq	%rbp	 #
	.cfi_restore 6
	.cfi_def_cfa 7, 8
	ret	
	.cfi_endproc
.LFE5836:
	.seh_endproc
	.section	.text$_ZSt25__uninitialized_default_nIPdyET_S1_T0_,"x"
	.linkonce discard
	.globl	_ZSt25__uninitialized_default_nIPdyET_S1_T0_
	.def	_ZSt25__uninitialized_default_nIPdyET_S1_T0_;	.scl	2;	.type	32;	.endef
	.seh_proc	_ZSt25__uninitialized_default_nIPdyET_S1_T0_
_ZSt25__uninitialized_default_nIPdyET_S1_T0_:
.LFB5837:
	.loc 16 931 5
	.cfi_startproc
	pushq	%rbp	 #
	.seh_pushreg	%rbp
	.cfi_def_cfa_offset 16
	.cfi_offset 6, -16
	movq	%rsp, %rbp	 #,
	.seh_setframe	%rbp, 0
	.cfi_def_cfa_register 6
	subq	$48, %rsp	 #,
	.seh_stackalloc	48
	.seh_endprologue
	movq	%rcx, 16(%rbp)	 # __first, __first
	movq	%rdx, 24(%rbp)	 # __n, __n
 # D:/msys64/ucrt64/include/c++/15.2.0/bits/stl_uninitialized.h:934:       if (std::is_constant_evaluated())
	.loc 16 934 37
	call	_ZSt21is_constant_evaluatedv	 #
 # D:/msys64/ucrt64/include/c++/15.2.0/bits/stl_uninitialized.h:934:       if (std::is_constant_evaluated())
	.loc 16 934 7 discriminator 1
	testb	%al, %al	 # retval.61_5
	je	.L246	 #,
 # D:/msys64/ucrt64/include/c++/15.2.0/bits/stl_uninitialized.h:936: 		 __uninit_default_n(__first, __n);
	.loc 16 936 22
	movq	24(%rbp), %rdx	 # __n, tmp101
	movq	16(%rbp), %rax	 # __first, tmp102
	movq	%rax, %rcx	 # tmp102,
	call	_ZNSt27__uninitialized_default_n_1ILb0EE18__uninit_default_nIPdyEET_S3_T0_	 #
 # D:/msys64/ucrt64/include/c++/15.2.0/bits/stl_uninitialized.h:936: 		 __uninit_default_n(__first, __n);
	.loc 16 936 35
	jmp	.L247	 #
.L246:
 # D:/msys64/ucrt64/include/c++/15.2.0/bits/stl_uninitialized.h:942:       constexpr bool __can_fill
	.loc 16 942 22
	movb	$1, -1(%rbp)	 #, __can_fill
 # D:/msys64/ucrt64/include/c++/15.2.0/bits/stl_uninitialized.h:947: 	__uninit_default_n(__first, __n);
	.loc 16 947 20
	movq	24(%rbp), %rdx	 # __n, tmp103
	movq	16(%rbp), %rax	 # __first, tmp104
	movq	%rax, %rcx	 # tmp104,
	call	_ZNSt27__uninitialized_default_n_1ILb1EE18__uninit_default_nIPdyEET_S3_T0_	 #
 # D:/msys64/ucrt64/include/c++/15.2.0/bits/stl_uninitialized.h:947: 	__uninit_default_n(__first, __n);
	.loc 16 947 33
	nop	
.L247:
 # D:/msys64/ucrt64/include/c++/15.2.0/bits/stl_uninitialized.h:948:     }
	.loc 16 948 5
	addq	$48, %rsp	 #,
	popq	%rbp	 #
	.cfi_restore 6
	.cfi_def_cfa 7, 8
	ret	
	.cfi_endproc
.LFE5837:
	.seh_endproc
	.section	.text$_ZSt12__relocate_aIPdS0_SaIdEET0_T_S3_S2_RT1_,"x"
	.linkonce discard
	.globl	_ZSt12__relocate_aIPdS0_SaIdEET0_T_S3_S2_RT1_
	.def	_ZSt12__relocate_aIPdS0_SaIdEET0_T_S3_S2_RT1_;	.scl	2;	.type	32;	.endef
	.seh_proc	_ZSt12__relocate_aIPdS0_SaIdEET0_T_S3_S2_RT1_
_ZSt12__relocate_aIPdS0_SaIdEET0_T_S3_S2_RT1_:
.LFB5838:
	.loc 16 1353 5
	.cfi_startproc
	pushq	%rbp	 #
	.seh_pushreg	%rbp
	.cfi_def_cfa_offset 16
	.cfi_offset 6, -16
	movq	%rsp, %rbp	 #,
	.seh_setframe	%rbp, 0
	.cfi_def_cfa_register 6
	subq	$64, %rsp	 #,
	.seh_stackalloc	64
	.seh_endprologue
	movq	%rcx, 16(%rbp)	 # __first, __first
	movq	%rdx, 24(%rbp)	 # __last, __last
	movq	%r8, 32(%rbp)	 # __result, __result
	movq	%r9, 40(%rbp)	 # __alloc, __alloc
	movq	32(%rbp), %rax	 # __result, tmp103
	movq	%rax, -24(%rbp)	 # tmp103, __it
.LBB555:
.LBB556:
 # D:/msys64/ucrt64/include/c++/15.2.0/bits/stl_iterator.h:3011:     { return __it; }
	.loc 15 3011 14
	movq	-24(%rbp), %rcx	 # __it, D.108013
	movq	24(%rbp), %rax	 # __last, tmp104
	movq	%rax, -16(%rbp)	 # tmp104, __it
.LBE556:
.LBE555:
.LBB557:
.LBB558:
	movq	-16(%rbp), %rdx	 # __it, D.108009
	movq	16(%rbp), %rax	 # __first, tmp105
	movq	%rax, -8(%rbp)	 # tmp105, __it
.LBE558:
.LBE557:
.LBB559:
.LBB560:
	movq	-8(%rbp), %rax	 # __it, D.108005
.LBE560:
.LBE559:
 # D:/msys64/ucrt64/include/c++/15.2.0/bits/stl_uninitialized.h:1359:       return std::__relocate_a_1(std::__niter_base(__first),
	.loc 16 1359 33 discriminator 3
	movq	40(%rbp), %r8	 # __alloc, tmp106
	movq	%r8, %r9	 # tmp106,
	movq	%rcx, %r8	 # D.108013,
	movq	%rax, %rcx	 # D.108005,
	call	_ZSt14__relocate_a_1IddENSt9enable_ifIXsrSt24__is_bitwise_relocatableIT_vE5valueEPS2_E4typeES4_S4_S4_RSaIT0_E	 #
 # D:/msys64/ucrt64/include/c++/15.2.0/bits/stl_uninitialized.h:1362:     }
	.loc 16 1362 5
	addq	$64, %rsp	 #,
	popq	%rbp	 #
	.cfi_restore 6
	.cfi_def_cfa 7, 8
	ret	
	.cfi_endproc
.LFE5838:
	.seh_endproc
	.section	.text$_ZSt10_ConstructIdJRKdEEvPT_DpOT0_,"x"
	.linkonce discard
	.globl	_ZSt10_ConstructIdJRKdEEvPT_DpOT0_
	.def	_ZSt10_ConstructIdJRKdEEvPT_DpOT0_;	.scl	2;	.type	32;	.endef
	.seh_proc	_ZSt10_ConstructIdJRKdEEvPT_DpOT0_
_ZSt10_ConstructIdJRKdEEvPT_DpOT0_:
.LFB5864:
	.loc 17 123 5
	.cfi_startproc
	pushq	%rbp	 #
	.seh_pushreg	%rbp
	.cfi_def_cfa_offset 16
	.cfi_offset 6, -16
	pushq	%rbx	 #
	.seh_pushreg	%rbx
	.cfi_def_cfa_offset 24
	.cfi_offset 3, -24
	subq	$56, %rsp	 #,
	.seh_stackalloc	56
	.cfi_def_cfa_offset 80
	leaq	48(%rsp), %rbp	 #,
	.seh_setframe	%rbp, 48
	.cfi_def_cfa 6, 32
	.seh_endprologue
	movq	%rcx, 32(%rbp)	 # __p, __p
	movq	%rdx, 40(%rbp)	 # __args#0, __args#0
.LBB561:
.LBB562:
 # D:/msys64/ucrt64/include/c++/15.2.0/x86_64-w64-mingw32/bits/c++config.h:589:     return __builtin_is_constant_evaluated();
	.loc 14 589 44
	movl	$0, %eax	 #, D.107610
.LBE562:
.LBE561:
 # D:/msys64/ucrt64/include/c++/15.2.0/bits/stl_construct.h:126:       if (std::__is_constant_evaluated())
	.loc 17 126 7 discriminator 1
	testb	%al, %al	 # D.107610
	je	.L255	 #,
	movq	40(%rbp), %rax	 # __args#0, tmp106
	movq	%rax, -8(%rbp)	 # tmp106, __t
.LBB563:
.LBB564:
 # D:/msys64/ucrt64/include/c++/15.2.0/bits/move.h:73:     { return static_cast<_Tp&&>(__t); }
	.loc 12 73 36
	movq	-8(%rbp), %rdx	 # __t, D.107614
.LBE564:
.LBE563:
 # D:/msys64/ucrt64/include/c++/15.2.0/bits/stl_construct.h:129: 	  std::construct_at(__p, std::forward<_Args>(__args)...);
	.loc 17 129 21 discriminator 1
	movq	32(%rbp), %rax	 # __p, tmp107
	movq	%rax, %rcx	 # tmp107,
	call	_ZSt12construct_atIdJRKdEQaant20is_unbounded_array_vIT_ErqXgsnwcvPvLi0E_S2_pispcl7declvalIT0_EEEEEPS2_S5_DpOS4_	 #
 # D:/msys64/ucrt64/include/c++/15.2.0/bits/stl_construct.h:130: 	  return;
	.loc 17 130 4
	jmp	.L253	 #
.L255:
 # D:/msys64/ucrt64/include/c++/15.2.0/bits/stl_construct.h:133:       ::new(static_cast<void*>(__p)) _Tp(std::forward<_Args>(__args)...);
	.loc 17 133 13
	movq	32(%rbp), %rbx	 # __p, _8
 # D:/msys64/ucrt64/include/c++/15.2.0/bits/stl_construct.h:133:       ::new(static_cast<void*>(__p)) _Tp(std::forward<_Args>(__args)...);
	.loc 17 133 7
	movq	%rbx, %rdx	 # _8,
	movl	$8, %ecx	 #,
	call	_ZnwyPv	 #
	movq	40(%rbp), %rdx	 # __args#0, tmp108
	movq	%rdx, -16(%rbp)	 # tmp108, __t
.LBB565:
.LBB566:
 # D:/msys64/ucrt64/include/c++/15.2.0/bits/move.h:73:     { return static_cast<_Tp&&>(__t); }
	.loc 12 73 36
	movq	-16(%rbp), %rdx	 # __t, D.107618
.LBE566:
.LBE565:
 # D:/msys64/ucrt64/include/c++/15.2.0/bits/stl_construct.h:133:       ::new(static_cast<void*>(__p)) _Tp(std::forward<_Args>(__args)...);
	.loc 17 133 7 discriminator 2
	movsd	(%rdx), %xmm0	 # *_2, _3
	movsd	%xmm0, (%rax)	 # _3, MEM[(double *)_10]
	movl	$0, %edx	 #, _14
	testb	%dl, %dl	 # _14
	je	.L253	 #,
 # D:/msys64/ucrt64/include/c++/15.2.0/bits/stl_construct.h:133:       ::new(static_cast<void*>(__p)) _Tp(std::forward<_Args>(__args)...);
	.loc 17 133 7 is_stmt 0 discriminator 3
	movq	%rbx, %rdx	 # _8,
	movq	%rax, %rcx	 # _10,
	call	_ZdlPvS_	 #
	nop	
.L253:
 # D:/msys64/ucrt64/include/c++/15.2.0/bits/stl_construct.h:134:     }
	.loc 17 134 5 is_stmt 1
	addq	$56, %rsp	 #,
	popq	%rbx	 #
	.cfi_restore 3
	popq	%rbp	 #
	.cfi_restore 6
	.cfi_def_cfa 7, -40
	ret	
	.cfi_endproc
.LFE5864:
	.seh_endproc
	.section	.text$_ZNSt15__new_allocatorIdE10deallocateEPdy,"x"
	.linkonce discard
	.align 2
	.globl	_ZNSt15__new_allocatorIdE10deallocateEPdy
	.def	_ZNSt15__new_allocatorIdE10deallocateEPdy;	.scl	2;	.type	32;	.endef
	.seh_proc	_ZNSt15__new_allocatorIdE10deallocateEPdy
_ZNSt15__new_allocatorIdE10deallocateEPdy:
.LFB5866:
	.loc 8 156 7
	.cfi_startproc
	pushq	%rbp	 #
	.seh_pushreg	%rbp
	.cfi_def_cfa_offset 16
	.cfi_offset 6, -16
	movq	%rsp, %rbp	 #,
	.seh_setframe	%rbp, 0
	.cfi_def_cfa_register 6
	subq	$32, %rsp	 #,
	.seh_stackalloc	32
	.seh_endprologue
	movq	%rcx, 16(%rbp)	 # this, this
	movq	%rdx, 24(%rbp)	 # __p, __p
	movq	%r8, 32(%rbp)	 # __n, __n
 # D:/msys64/ucrt64/include/c++/15.2.0/bits/new_allocator.h:172: 	_GLIBCXX_OPERATOR_DELETE(_GLIBCXX_SIZED_DEALLOC(__p, __n));
	.loc 8 172 54
	movq	32(%rbp), %rax	 # __n, tmp99
	leaq	0(,%rax,8), %rdx	 #, _2
	movq	24(%rbp), %rax	 # __p, tmp100
	movq	%rax, %rcx	 # tmp100,
	call	_ZdlPvy	 #
	nop	
 # D:/msys64/ucrt64/include/c++/15.2.0/bits/new_allocator.h:173:       }
	.loc 8 173 7
	addq	$32, %rsp	 #,
	popq	%rbp	 #
	.cfi_restore 6
	.cfi_def_cfa 7, 8
	ret	
	.cfi_endproc
.LFE5866:
	.seh_endproc
	.section	.text$_ZSt14__copy_move_a2ILb0EPKdS1_PdET2_T0_T1_S3_,"x"
	.linkonce discard
	.globl	_ZSt14__copy_move_a2ILb0EPKdS1_PdET2_T0_T1_S3_
	.def	_ZSt14__copy_move_a2ILb0EPKdS1_PdET2_T0_T1_S3_;	.scl	2;	.type	32;	.endef
	.seh_proc	_ZSt14__copy_move_a2ILb0EPKdS1_PdET2_T0_T1_S3_
_ZSt14__copy_move_a2ILb0EPKdS1_PdET2_T0_T1_S3_:
.LFB5870:
	.loc 3 413 5
	.cfi_startproc
	pushq	%rbp	 #
	.seh_pushreg	%rbp
	.cfi_def_cfa_offset 16
	.cfi_offset 6, -16
	movq	%rsp, %rbp	 #,
	.seh_setframe	%rbp, 0
	.cfi_def_cfa_register 6
	subq	$80, %rsp	 #,
	.seh_stackalloc	80
	.seh_endprologue
	movq	%rcx, 16(%rbp)	 # __first, __first
	movq	%rdx, 24(%rbp)	 # __last, __last
	movq	%r8, 32(%rbp)	 # __result, __result
.LBB567:
.LBB568:
.LBB569:
.LBB570:
.LBB571:
 # D:/msys64/ucrt64/include/c++/15.2.0/x86_64-w64-mingw32/bits/c++config.h:589:     return __builtin_is_constant_evaluated();
	.loc 14 589 44
	movl	$0, %eax	 #, D.107703
.LBE571:
.LBE570:
 # D:/msys64/ucrt64/include/c++/15.2.0/bits/stl_algobase.h:419:       else if (std::__is_constant_evaluated())
	.loc 3 419 12 discriminator 1
	testb	%al, %al	 # D.107703
	jne	.L270	 #,
.LBB572:
.LBB573:
.LBB574:
 # D:/msys64/ucrt64/include/c++/15.2.0/bits/stl_algobase.h:423: 	  ptrdiff_t __n = std::distance(__first, __last);
	.loc 3 423 33
	movq	16(%rbp), %rax	 # __first, __first.22_1
	movq	%rax, -40(%rbp)	 # __first.22_1, __first
	movq	24(%rbp), %rax	 # __last, tmp132
	movq	%rax, -16(%rbp)	 # tmp132, __last
.LBB575:
.LBB576:
.LBB577:
.LBB578:
 # D:/msys64/ucrt64/include/c++/15.2.0/bits/stl_iterator_base_types.h:242:     { return typename iterator_traits<_Iter>::iterator_category(); }
	.file 19 "D:/msys64/ucrt64/include/c++/15.2.0/bits/stl_iterator_base_types.h"
	.loc 19 242 65
	nop	
.LBE578:
.LBE577:
 # D:/msys64/ucrt64/include/c++/15.2.0/bits/stl_iterator_base_funcs.h:153:       return std::__distance(__first, __last,
	.file 20 "D:/msys64/ucrt64/include/c++/15.2.0/bits/stl_iterator_base_funcs.h"
	.loc 20 153 29
	movq	-40(%rbp), %rax	 # __first, __first.32_38
	movq	%rax, -24(%rbp)	 # __first.32_38, __first
	movq	-16(%rbp), %rax	 # __last, tmp133
	movq	%rax, -32(%rbp)	 # tmp133, __last
.LBB579:
.LBB580:
 # D:/msys64/ucrt64/include/c++/15.2.0/bits/stl_iterator_base_funcs.h:108:       return __last - __first;
	.loc 20 108 21
	movq	-32(%rbp), %rax	 # __last, tmp134
	subq	-24(%rbp), %rax	 # __first, _41
 # D:/msys64/ucrt64/include/c++/15.2.0/bits/stl_iterator_base_funcs.h:108:       return __last - __first;
	.loc 20 108 23
	sarq	$3, %rax	 #, _42
.LBE580:
.LBE579:
 # D:/msys64/ucrt64/include/c++/15.2.0/bits/stl_iterator_base_funcs.h:154: 			     std::__iterator_category(__first));
	.loc 20 154 42
	nop	
.LBE576:
.LBE575:
 # D:/msys64/ucrt64/include/c++/15.2.0/bits/stl_algobase.h:423: 	  ptrdiff_t __n = std::distance(__first, __last);
	.loc 3 423 33 discriminator 1
	movq	%rax, -8(%rbp)	 # D.107714, __n
 # D:/msys64/ucrt64/include/c++/15.2.0/bits/stl_algobase.h:424: 	  if (__builtin_expect(__n > 1, true))
	.loc 3 424 29
	cmpq	$1, -8(%rbp)	 #, __n
	setg	%al	 #, _2
 # D:/msys64/ucrt64/include/c++/15.2.0/bits/stl_algobase.h:424: 	  if (__builtin_expect(__n > 1, true))
	.loc 3 424 24
	movzbl	%al, %eax	 # _2, _3
 # D:/msys64/ucrt64/include/c++/15.2.0/bits/stl_algobase.h:424: 	  if (__builtin_expect(__n > 1, true))
	.loc 3 424 4 discriminator 1
	testl	%eax, %eax	 # _4
	je	.L267	 #,
 # D:/msys64/ucrt64/include/c++/15.2.0/bits/stl_algobase.h:428: 				__n * sizeof(*__first));
	.loc 3 428 5
	movq	-8(%rbp), %rax	 # __n, __n.23_5
 # D:/msys64/ucrt64/include/c++/15.2.0/bits/stl_algobase.h:426: 	      __builtin_memmove(_GLIBCXX_TO_ADDR(__result),
	.loc 3 426 25
	leaq	0(,%rax,8), %rcx	 #, _6
	movq	16(%rbp), %rdx	 # __first, __first.24_7
	movq	32(%rbp), %rax	 # __result, __result.25_8
	movq	%rcx, %r8	 # _6,
	movq	%rax, %rcx	 # __result.25_8,
	call	memmove	 #
 # D:/msys64/ucrt64/include/c++/15.2.0/bits/stl_algobase.h:429: 	      _GLIBCXX_ADVANCE(__result, __n);
	.loc 3 429 17
	movq	32(%rbp), %rax	 # __result, __result.26_9
 # D:/msys64/ucrt64/include/c++/15.2.0/bits/stl_algobase.h:429: 	      _GLIBCXX_ADVANCE(__result, __n);
	.loc 3 429 20
	movq	-8(%rbp), %rdx	 # __n, __n.27_10
 # D:/msys64/ucrt64/include/c++/15.2.0/bits/stl_algobase.h:429: 	      _GLIBCXX_ADVANCE(__result, __n);
	.loc 3 429 17
	salq	$3, %rdx	 #, _11
	addq	%rdx, %rax	 # _11, _12
	movq	%rax, 32(%rbp)	 # _12, __result
	jmp	.L268	 #
.L267:
 # D:/msys64/ucrt64/include/c++/15.2.0/bits/stl_algobase.h:431: 	  else if (__n == 1)
	.loc 3 431 9
	cmpq	$1, -8(%rbp)	 #, __n
	jne	.L268	 #,
.LBB581:
.LBB582:
 # D:/msys64/ucrt64/include/c++/15.2.0/bits/stl_algobase.h:407: 	*__out = *__in;
	.loc 3 407 9
	movq	16(%rbp), %rdx	 # __first, _45
	movq	32(%rbp), %rax	 # __result, _46
	movsd	(%rdx), %xmm0	 # *_45, _47
	movsd	%xmm0, (%rax)	 # _47, *_46
 # D:/msys64/ucrt64/include/c++/15.2.0/bits/stl_algobase.h:408:     }
	.loc 3 408 5
	nop	
.LBE582:
.LBE581:
 # D:/msys64/ucrt64/include/c++/15.2.0/bits/stl_algobase.h:434: 	      ++__result;
	.loc 3 434 8
	movq	32(%rbp), %rax	 # __result, __result.28_13
	addq	$8, %rax	 #, _14
	movq	%rax, 32(%rbp)	 # _14, __result
.L268:
 # D:/msys64/ucrt64/include/c++/15.2.0/bits/stl_algobase.h:436: 	  return __result;
	.loc 3 436 11
	movq	32(%rbp), %rax	 # __result, _20
	jmp	.L269	 #
.L271:
.LBE574:
.LBE573:
.LBE572:
.LBE569:
.LBE568:
.LBE567:
.LBB583:
.LBB584:
 # D:/msys64/ucrt64/include/c++/15.2.0/bits/stl_algobase.h:407: 	*__out = *__in;
	.loc 3 407 9
	movq	16(%rbp), %rdx	 # __first, _48
	movq	32(%rbp), %rax	 # __result, _49
	movsd	(%rdx), %xmm0	 # *_48, _50
	movsd	%xmm0, (%rax)	 # _50, *_49
 # D:/msys64/ucrt64/include/c++/15.2.0/bits/stl_algobase.h:408:     }
	.loc 3 408 5
	nop	
.LBE584:
.LBE583:
 # D:/msys64/ucrt64/include/c++/15.2.0/bits/stl_algobase.h:461:       for (; __first != __last; ++__result, (void)++__first)
	.loc 3 461 7 discriminator 2
	movq	32(%rbp), %rax	 # __result, __result.29_15
	addq	$8, %rax	 #, _16
	movq	%rax, 32(%rbp)	 # _16, __result
 # D:/msys64/ucrt64/include/c++/15.2.0/bits/stl_algobase.h:461:       for (; __first != __last; ++__result, (void)++__first)
	.loc 3 461 45 discriminator 2
	movq	16(%rbp), %rax	 # __first, __first.30_17
	addq	$8, %rax	 #, _18
	movq	%rax, 16(%rbp)	 # _18, __first
.L270:
 # D:/msys64/ucrt64/include/c++/15.2.0/bits/stl_algobase.h:461:       for (; __first != __last; ++__result, (void)++__first)
	.loc 3 461 22 discriminator 1
	movq	16(%rbp), %rax	 # __first, __first.31_19
	cmpq	%rax, 24(%rbp)	 # __first.31_19, __last
	jne	.L271	 #,
 # D:/msys64/ucrt64/include/c++/15.2.0/bits/stl_algobase.h:463:       return __result;
	.loc 3 463 14
	movq	32(%rbp), %rax	 # __result, _20
.L269:
 # D:/msys64/ucrt64/include/c++/15.2.0/bits/stl_algobase.h:464:     }
	.loc 3 464 5
	addq	$80, %rsp	 #,
	popq	%rbp	 #
	.cfi_restore 6
	.cfi_def_cfa 7, 8
	ret	
	.cfi_endproc
.LFE5870:
	.seh_endproc
	.section	.text$_ZSt14__copy_move_a2ILb0EPdS0_S0_ET2_T0_T1_S1_,"x"
	.linkonce discard
	.globl	_ZSt14__copy_move_a2ILb0EPdS0_S0_ET2_T0_T1_S1_
	.def	_ZSt14__copy_move_a2ILb0EPdS0_S0_ET2_T0_T1_S1_;	.scl	2;	.type	32;	.endef
	.seh_proc	_ZSt14__copy_move_a2ILb0EPdS0_S0_ET2_T0_T1_S1_
_ZSt14__copy_move_a2ILb0EPdS0_S0_ET2_T0_T1_S1_:
.LFB5872:
	.loc 3 413 5
	.cfi_startproc
	pushq	%rbp	 #
	.seh_pushreg	%rbp
	.cfi_def_cfa_offset 16
	.cfi_offset 6, -16
	movq	%rsp, %rbp	 #,
	.seh_setframe	%rbp, 0
	.cfi_def_cfa_register 6
	subq	$80, %rsp	 #,
	.seh_stackalloc	80
	.seh_endprologue
	movq	%rcx, 16(%rbp)	 # __first, __first
	movq	%rdx, 24(%rbp)	 # __last, __last
	movq	%r8, 32(%rbp)	 # __result, __result
.LBB585:
.LBB586:
.LBB587:
.LBB588:
.LBB589:
 # D:/msys64/ucrt64/include/c++/15.2.0/x86_64-w64-mingw32/bits/c++config.h:589:     return __builtin_is_constant_evaluated();
	.loc 14 589 44
	movl	$0, %eax	 #, D.107804
.LBE589:
.LBE588:
 # D:/msys64/ucrt64/include/c++/15.2.0/bits/stl_algobase.h:419:       else if (std::__is_constant_evaluated())
	.loc 3 419 12 discriminator 1
	testb	%al, %al	 # D.107804
	jne	.L281	 #,
.LBB590:
.LBB591:
.LBB592:
 # D:/msys64/ucrt64/include/c++/15.2.0/bits/stl_algobase.h:423: 	  ptrdiff_t __n = std::distance(__first, __last);
	.loc 3 423 33
	movq	16(%rbp), %rax	 # __first, __first.38_1
	movq	%rax, -40(%rbp)	 # __first.38_1, __first
	movq	24(%rbp), %rax	 # __last, tmp132
	movq	%rax, -16(%rbp)	 # tmp132, __last
.LBB593:
.LBB594:
.LBB595:
.LBB596:
 # D:/msys64/ucrt64/include/c++/15.2.0/bits/stl_iterator_base_types.h:242:     { return typename iterator_traits<_Iter>::iterator_category(); }
	.loc 19 242 65
	nop	
.LBE596:
.LBE595:
 # D:/msys64/ucrt64/include/c++/15.2.0/bits/stl_iterator_base_funcs.h:153:       return std::__distance(__first, __last,
	.loc 20 153 29
	movq	-40(%rbp), %rax	 # __first, __first.48_38
	movq	%rax, -24(%rbp)	 # __first.48_38, __first
	movq	-16(%rbp), %rax	 # __last, tmp133
	movq	%rax, -32(%rbp)	 # tmp133, __last
.LBB597:
.LBB598:
 # D:/msys64/ucrt64/include/c++/15.2.0/bits/stl_iterator_base_funcs.h:108:       return __last - __first;
	.loc 20 108 21
	movq	-32(%rbp), %rax	 # __last, tmp134
	subq	-24(%rbp), %rax	 # __first, _41
 # D:/msys64/ucrt64/include/c++/15.2.0/bits/stl_iterator_base_funcs.h:108:       return __last - __first;
	.loc 20 108 23
	sarq	$3, %rax	 #, _42
.LBE598:
.LBE597:
 # D:/msys64/ucrt64/include/c++/15.2.0/bits/stl_iterator_base_funcs.h:154: 			     std::__iterator_category(__first));
	.loc 20 154 42
	nop	
.LBE594:
.LBE593:
 # D:/msys64/ucrt64/include/c++/15.2.0/bits/stl_algobase.h:423: 	  ptrdiff_t __n = std::distance(__first, __last);
	.loc 3 423 33 discriminator 1
	movq	%rax, -8(%rbp)	 # D.107815, __n
 # D:/msys64/ucrt64/include/c++/15.2.0/bits/stl_algobase.h:424: 	  if (__builtin_expect(__n > 1, true))
	.loc 3 424 29
	cmpq	$1, -8(%rbp)	 #, __n
	setg	%al	 #, _2
 # D:/msys64/ucrt64/include/c++/15.2.0/bits/stl_algobase.h:424: 	  if (__builtin_expect(__n > 1, true))
	.loc 3 424 24
	movzbl	%al, %eax	 # _2, _3
 # D:/msys64/ucrt64/include/c++/15.2.0/bits/stl_algobase.h:424: 	  if (__builtin_expect(__n > 1, true))
	.loc 3 424 4 discriminator 1
	testl	%eax, %eax	 # _4
	je	.L278	 #,
 # D:/msys64/ucrt64/include/c++/15.2.0/bits/stl_algobase.h:428: 				__n * sizeof(*__first));
	.loc 3 428 5
	movq	-8(%rbp), %rax	 # __n, __n.39_5
 # D:/msys64/ucrt64/include/c++/15.2.0/bits/stl_algobase.h:426: 	      __builtin_memmove(_GLIBCXX_TO_ADDR(__result),
	.loc 3 426 25
	leaq	0(,%rax,8), %rcx	 #, _6
	movq	16(%rbp), %rdx	 # __first, __first.40_7
	movq	32(%rbp), %rax	 # __result, __result.41_8
	movq	%rcx, %r8	 # _6,
	movq	%rax, %rcx	 # __result.41_8,
	call	memmove	 #
 # D:/msys64/ucrt64/include/c++/15.2.0/bits/stl_algobase.h:429: 	      _GLIBCXX_ADVANCE(__result, __n);
	.loc 3 429 17
	movq	32(%rbp), %rax	 # __result, __result.42_9
 # D:/msys64/ucrt64/include/c++/15.2.0/bits/stl_algobase.h:429: 	      _GLIBCXX_ADVANCE(__result, __n);
	.loc 3 429 20
	movq	-8(%rbp), %rdx	 # __n, __n.43_10
 # D:/msys64/ucrt64/include/c++/15.2.0/bits/stl_algobase.h:429: 	      _GLIBCXX_ADVANCE(__result, __n);
	.loc 3 429 17
	salq	$3, %rdx	 #, _11
	addq	%rdx, %rax	 # _11, _12
	movq	%rax, 32(%rbp)	 # _12, __result
	jmp	.L279	 #
.L278:
 # D:/msys64/ucrt64/include/c++/15.2.0/bits/stl_algobase.h:431: 	  else if (__n == 1)
	.loc 3 431 9
	cmpq	$1, -8(%rbp)	 #, __n
	jne	.L279	 #,
.LBB599:
.LBB600:
 # D:/msys64/ucrt64/include/c++/15.2.0/bits/stl_algobase.h:407: 	*__out = *__in;
	.loc 3 407 9
	movq	16(%rbp), %rdx	 # __first, _45
	movq	32(%rbp), %rax	 # __result, _46
	movsd	(%rdx), %xmm0	 # *_45, _47
	movsd	%xmm0, (%rax)	 # _47, *_46
 # D:/msys64/ucrt64/include/c++/15.2.0/bits/stl_algobase.h:408:     }
	.loc 3 408 5
	nop	
.LBE600:
.LBE599:
 # D:/msys64/ucrt64/include/c++/15.2.0/bits/stl_algobase.h:434: 	      ++__result;
	.loc 3 434 8
	movq	32(%rbp), %rax	 # __result, __result.44_13
	addq	$8, %rax	 #, _14
	movq	%rax, 32(%rbp)	 # _14, __result
.L279:
 # D:/msys64/ucrt64/include/c++/15.2.0/bits/stl_algobase.h:436: 	  return __result;
	.loc 3 436 11
	movq	32(%rbp), %rax	 # __result, _20
	jmp	.L280	 #
.L282:
.LBE592:
.LBE591:
.LBE590:
.LBE587:
.LBE586:
.LBE585:
.LBB601:
.LBB602:
 # D:/msys64/ucrt64/include/c++/15.2.0/bits/stl_algobase.h:407: 	*__out = *__in;
	.loc 3 407 9
	movq	16(%rbp), %rdx	 # __first, _48
	movq	32(%rbp), %rax	 # __result, _49
	movsd	(%rdx), %xmm0	 # *_48, _50
	movsd	%xmm0, (%rax)	 # _50, *_49
 # D:/msys64/ucrt64/include/c++/15.2.0/bits/stl_algobase.h:408:     }
	.loc 3 408 5
	nop	
.LBE602:
.LBE601:
 # D:/msys64/ucrt64/include/c++/15.2.0/bits/stl_algobase.h:461:       for (; __first != __last; ++__result, (void)++__first)
	.loc 3 461 7 discriminator 2
	movq	32(%rbp), %rax	 # __result, __result.45_15
	addq	$8, %rax	 #, _16
	movq	%rax, 32(%rbp)	 # _16, __result
 # D:/msys64/ucrt64/include/c++/15.2.0/bits/stl_algobase.h:461:       for (; __first != __last; ++__result, (void)++__first)
	.loc 3 461 45 discriminator 2
	movq	16(%rbp), %rax	 # __first, __first.46_17
	addq	$8, %rax	 #, _18
	movq	%rax, 16(%rbp)	 # _18, __first
.L281:
 # D:/msys64/ucrt64/include/c++/15.2.0/bits/stl_algobase.h:461:       for (; __first != __last; ++__result, (void)++__first)
	.loc 3 461 22 discriminator 1
	movq	16(%rbp), %rax	 # __first, __first.47_19
	cmpq	%rax, 24(%rbp)	 # __first.47_19, __last
	jne	.L282	 #,
 # D:/msys64/ucrt64/include/c++/15.2.0/bits/stl_algobase.h:463:       return __result;
	.loc 3 463 14
	movq	32(%rbp), %rax	 # __result, _20
.L280:
 # D:/msys64/ucrt64/include/c++/15.2.0/bits/stl_algobase.h:464:     }
	.loc 3 464 5
	addq	$80, %rsp	 #,
	popq	%rbp	 #
	.cfi_restore 6
	.cfi_def_cfa 7, 8
	ret	
	.cfi_endproc
.LFE5872:
	.seh_endproc
	.section	.text$_ZSt12construct_atIdJRdEQaant20is_unbounded_array_vIT_ErqXgsnwcvPvLi0E_S1_pispcl7declvalIT0_EEEEEPS1_S4_DpOS3_,"x"
	.linkonce discard
	.globl	_ZSt12construct_atIdJRdEQaant20is_unbounded_array_vIT_ErqXgsnwcvPvLi0E_S1_pispcl7declvalIT0_EEEEEPS1_S4_DpOS3_
	.def	_ZSt12construct_atIdJRdEQaant20is_unbounded_array_vIT_ErqXgsnwcvPvLi0E_S1_pispcl7declvalIT0_EEEEEPS1_S4_DpOS3_;	.scl	2;	.type	32;	.endef
	.seh_proc	_ZSt12construct_atIdJRdEQaant20is_unbounded_array_vIT_ErqXgsnwcvPvLi0E_S1_pispcl7declvalIT0_EEEEEPS1_S4_DpOS3_
_ZSt12construct_atIdJRdEQaant20is_unbounded_array_vIT_ErqXgsnwcvPvLi0E_S1_pispcl7declvalIT0_EEEEEPS1_S4_DpOS3_:
.LFB5874:
	.loc 17 96 5
	.cfi_startproc
	pushq	%rbp	 #
	.seh_pushreg	%rbp
	.cfi_def_cfa_offset 16
	.cfi_offset 6, -16
	pushq	%rsi	 #
	.seh_pushreg	%rsi
	.cfi_def_cfa_offset 24
	.cfi_offset 4, -24
	pushq	%rbx	 #
	.seh_pushreg	%rbx
	.cfi_def_cfa_offset 32
	.cfi_offset 3, -32
	subq	$48, %rsp	 #,
	.seh_stackalloc	48
	.cfi_def_cfa_offset 80
	leaq	48(%rsp), %rbp	 #,
	.seh_setframe	%rbp, 48
	.cfi_def_cfa 6, 32
	.seh_endprologue
	movq	%rcx, 32(%rbp)	 # __location, __location
	movq	%rdx, 40(%rbp)	 # __args#0, __args#0
 # D:/msys64/ucrt64/include/c++/15.2.0/bits/stl_construct.h:99:       void* __loc = __location;
	.loc 17 99 13
	movq	32(%rbp), %rax	 # __location, tmp105
	movq	%rax, -8(%rbp)	 # tmp105, __loc
 # D:/msys64/ucrt64/include/c++/15.2.0/bits/stl_construct.h:110: 	return ::new(__loc) _Tp(std::forward<_Args>(__args)...);
	.loc 17 110 15
	movq	-8(%rbp), %rsi	 # __loc, _6
 # D:/msys64/ucrt64/include/c++/15.2.0/bits/stl_construct.h:110: 	return ::new(__loc) _Tp(std::forward<_Args>(__args)...);
	.loc 17 110 9
	movq	%rsi, %rdx	 # _6,
	movl	$8, %ecx	 #,
	call	_ZnwyPv	 #
	movq	%rax, %rbx	 #, _9
	movq	40(%rbp), %rax	 # __args#0, tmp106
	movq	%rax, -16(%rbp)	 # tmp106, __t
.LBB603:
.LBB604:
 # D:/msys64/ucrt64/include/c++/15.2.0/bits/move.h:73:     { return static_cast<_Tp&&>(__t); }
	.loc 12 73 36
	movq	-16(%rbp), %rax	 # __t, D.107580
.LBE604:
.LBE603:
 # D:/msys64/ucrt64/include/c++/15.2.0/bits/stl_construct.h:110: 	return ::new(__loc) _Tp(std::forward<_Args>(__args)...);
	.loc 17 110 9 discriminator 2
	movsd	(%rax), %xmm0	 # *_1, _2
	movsd	%xmm0, (%rbx)	 # _2, MEM[(double *)_9]
 # D:/msys64/ucrt64/include/c++/15.2.0/bits/stl_construct.h:110: 	return ::new(__loc) _Tp(std::forward<_Args>(__args)...);
	.loc 17 110 56 discriminator 2
	movl	$0, %eax	 #, _13
 # D:/msys64/ucrt64/include/c++/15.2.0/bits/stl_construct.h:110: 	return ::new(__loc) _Tp(std::forward<_Args>(__args)...);
	.loc 17 110 56 is_stmt 0 discriminator 3
	testb	%al, %al	 # _13
	je	.L286	 #,
 # D:/msys64/ucrt64/include/c++/15.2.0/bits/stl_construct.h:110: 	return ::new(__loc) _Tp(std::forward<_Args>(__args)...);
	.loc 17 110 9 is_stmt 1 discriminator 4
	movq	%rsi, %rdx	 # _6,
	movq	%rbx, %rcx	 # _9,
	call	_ZdlPvS_	 #
.L286:
 # D:/msys64/ucrt64/include/c++/15.2.0/bits/stl_construct.h:110: 	return ::new(__loc) _Tp(std::forward<_Args>(__args)...);
	.loc 17 110 56 discriminator 8
	movq	%rbx, %rax	 # _9, <retval>
 # D:/msys64/ucrt64/include/c++/15.2.0/bits/stl_construct.h:111:     }
	.loc 17 111 5
	addq	$48, %rsp	 #,
	popq	%rbx	 #
	.cfi_restore 3
	popq	%rsi	 #
	.cfi_restore 4
	popq	%rbp	 #
	.cfi_restore 6
	.cfi_def_cfa 7, -24
	ret	
	.cfi_endproc
.LFE5874:
	.seh_endproc
	.weak	_ZSt12construct_atIdJRdEEPT_S2_DpOT0_
	.def	_ZSt12construct_atIdJRdEEPT_S2_DpOT0_;	.scl	2;	.type	32;	.endef
	.set	_ZSt12construct_atIdJRdEEPT_S2_DpOT0_,_ZSt12construct_atIdJRdEQaant20is_unbounded_array_vIT_ErqXgsnwcvPvLi0E_S1_pispcl7declvalIT0_EEEEEPS1_S4_DpOS3_
	.section	.text$_ZNSt27__uninitialized_default_n_1ILb0EE18__uninit_default_nIPdyEET_S3_T0_,"x"
	.linkonce discard
	.globl	_ZNSt27__uninitialized_default_n_1ILb0EE18__uninit_default_nIPdyEET_S3_T0_
	.def	_ZNSt27__uninitialized_default_n_1ILb0EE18__uninit_default_nIPdyEET_S3_T0_;	.scl	2;	.type	32;	.endef
	.seh_proc	_ZNSt27__uninitialized_default_n_1ILb0EE18__uninit_default_nIPdyEET_S3_T0_
_ZNSt27__uninitialized_default_n_1ILb0EE18__uninit_default_nIPdyEET_S3_T0_:
.LFB5875:
	.loc 16 872 9
	.cfi_startproc
	pushq	%rbp	 #
	.seh_pushreg	%rbp
	.cfi_def_cfa_offset 16
	.cfi_offset 6, -16
	pushq	%rbx	 #
	.seh_pushreg	%rbx
	.cfi_def_cfa_offset 24
	.cfi_offset 3, -24
	subq	$72, %rsp	 #,
	.seh_stackalloc	72
	.cfi_def_cfa_offset 96
	leaq	64(%rsp), %rbp	 #,
	.seh_setframe	%rbp, 64
	.cfi_def_cfa 6, 32
	.seh_endprologue
	movq	%rcx, 32(%rbp)	 # __first, __first
	movq	%rdx, 40(%rbp)	 # __n, __n
 # D:/msys64/ucrt64/include/c++/15.2.0/bits/stl_uninitialized.h:874: 	  _UninitDestroyGuard<_ForwardIterator> __guard(__first);
	.loc 16 874 42
	leaq	-32(%rbp), %rax	 #, tmp104
	leaq	32(%rbp), %rdx	 #,
	movq	%rax, %rcx	 # tmp104,
	call	_ZNSt19_UninitDestroyGuardIPdvEC1ERS0_	 #
 # D:/msys64/ucrt64/include/c++/15.2.0/bits/stl_uninitialized.h:875: 	  for (; __n > 0; --__n, (void) ++__first)
	.loc 16 875 4
	jmp	.L288	 #
.L290:
 # D:/msys64/ucrt64/include/c++/15.2.0/bits/stl_uninitialized.h:876: 	    std::_Construct(std::__addressof(*__first));
	.loc 16 876 21
	movq	32(%rbp), %rax	 # __first, __first.62_1
	movq	%rax, -8(%rbp)	 # __first.62_1, __r
.LBB605:
.LBB606:
 # D:/msys64/ucrt64/include/c++/15.2.0/bits/move.h:53:     { return __builtin_addressof(__r); }
	.loc 12 53 37
	movq	-8(%rbp), %rax	 # __r, D.107911
.LBE606:
.LBE605:
 # D:/msys64/ucrt64/include/c++/15.2.0/bits/stl_uninitialized.h:876: 	    std::_Construct(std::__addressof(*__first));
	.loc 16 876 21 discriminator 1
	movq	%rax, %rcx	 # D.107911,
	call	_ZSt10_ConstructIdJEEvPT_DpOT0_	 #
 # D:/msys64/ucrt64/include/c++/15.2.0/bits/stl_uninitialized.h:875: 	  for (; __n > 0; --__n, (void) ++__first)
	.loc 16 875 4 discriminator 2
	subq	$1, 40(%rbp)	 #, __n
 # D:/msys64/ucrt64/include/c++/15.2.0/bits/stl_uninitialized.h:875: 	  for (; __n > 0; --__n, (void) ++__first)
	.loc 16 875 27 discriminator 2
	movq	32(%rbp), %rax	 # __first, __first.63_3
	addq	$8, %rax	 #, _4
	movq	%rax, 32(%rbp)	 # _4, __first
.L288:
 # D:/msys64/ucrt64/include/c++/15.2.0/bits/stl_uninitialized.h:875: 	  for (; __n > 0; --__n, (void) ++__first)
	.loc 16 875 15 discriminator 1
	cmpq	$0, 40(%rbp)	 #, __n
	jne	.L290	 #,
 # D:/msys64/ucrt64/include/c++/15.2.0/bits/stl_uninitialized.h:877: 	  __guard.release();
	.loc 16 877 19
	leaq	-32(%rbp), %rax	 #, tmp105
	movq	%rax, %rcx	 # tmp105,
	call	_ZNSt19_UninitDestroyGuardIPdvE7releaseEv	 #
 # D:/msys64/ucrt64/include/c++/15.2.0/bits/stl_uninitialized.h:878: 	  return __first;
	.loc 16 878 11
	movq	32(%rbp), %rbx	 # __first, _11
 # D:/msys64/ucrt64/include/c++/15.2.0/bits/stl_uninitialized.h:879: 	}
	.loc 16 879 2
	leaq	-32(%rbp), %rax	 #, tmp106
	movq	%rax, %rcx	 # tmp106,
	call	_ZNSt19_UninitDestroyGuardIPdvED1Ev	 #
 # D:/msys64/ucrt64/include/c++/15.2.0/bits/stl_uninitialized.h:878: 	  return __first;
	.loc 16 878 11
	movq	%rbx, %rax	 # _11, <retval>
 # D:/msys64/ucrt64/include/c++/15.2.0/bits/stl_uninitialized.h:879: 	}
	.loc 16 879 2
	addq	$72, %rsp	 #,
	popq	%rbx	 #
	.cfi_restore 3
	popq	%rbp	 #
	.cfi_restore 6
	.cfi_def_cfa 7, -56
	ret	
	.cfi_endproc
.LFE5875:
	.seh_endproc
	.section	.text$_ZNSt27__uninitialized_default_n_1ILb1EE18__uninit_default_nIPdyEET_S3_T0_,"x"
	.linkonce discard
	.globl	_ZNSt27__uninitialized_default_n_1ILb1EE18__uninit_default_nIPdyEET_S3_T0_
	.def	_ZNSt27__uninitialized_default_n_1ILb1EE18__uninit_default_nIPdyEET_S3_T0_;	.scl	2;	.type	32;	.endef
	.seh_proc	_ZNSt27__uninitialized_default_n_1ILb1EE18__uninit_default_nIPdyEET_S3_T0_
_ZNSt27__uninitialized_default_n_1ILb1EE18__uninit_default_nIPdyEET_S3_T0_:
.LFB5876:
	.loc 16 888 9
	.cfi_startproc
	pushq	%rbp	 #
	.seh_pushreg	%rbp
	.cfi_def_cfa_offset 16
	.cfi_offset 6, -16
	movq	%rsp, %rbp	 #,
	.seh_setframe	%rbp, 0
	.cfi_def_cfa_register 6
	addq	$-128, %rsp	 #,
	.seh_stackalloc	128
	.seh_endprologue
	movq	%rcx, 16(%rbp)	 # __first, __first
	movq	%rdx, 24(%rbp)	 # __n, __n
.LBB607:
 # D:/msys64/ucrt64/include/c++/15.2.0/bits/stl_uninitialized.h:890: 	  if (__n > 0)
	.loc 16 890 4
	cmpq	$0, 24(%rbp)	 #, __n
	je	.L293	 #,
	movq	16(%rbp), %rax	 # __first, tmp111
	movq	%rax, -80(%rbp)	 # tmp111, __r
.LBB608:
.LBB609:
.LBB610:
 # D:/msys64/ucrt64/include/c++/15.2.0/bits/move.h:53:     { return __builtin_addressof(__r); }
	.loc 12 53 37
	movq	-80(%rbp), %rax	 # __r, D.107954
.LBE610:
.LBE609:
 # D:/msys64/ucrt64/include/c++/15.2.0/bits/stl_uninitialized.h:893: 		= std::__addressof(*__first);
	.loc 16 893 21
	movq	%rax, -8(%rbp)	 # D.107954, __val
 # D:/msys64/ucrt64/include/c++/15.2.0/bits/stl_uninitialized.h:894: 	      std::_Construct(__val);
	.loc 16 894 23
	movq	-8(%rbp), %rax	 # __val, tmp112
	movq	%rax, %rcx	 # tmp112,
	call	_ZSt10_ConstructIdJEEvPT_DpOT0_	 #
 # D:/msys64/ucrt64/include/c++/15.2.0/bits/stl_uninitialized.h:895: 	      ++__first;
	.loc 16 895 8
	addq	$8, 16(%rbp)	 #, __first
 # D:/msys64/ucrt64/include/c++/15.2.0/bits/stl_uninitialized.h:896: 	      __first = std::fill_n(__first, __n - 1, *__val);
	.loc 16 896 29
	movq	24(%rbp), %rax	 # __n, tmp113
	leaq	-1(%rax), %rdx	 #, _1
	movq	16(%rbp), %rax	 # __first, tmp114
	movq	%rax, -88(%rbp)	 # tmp114, __first
	movq	%rdx, -16(%rbp)	 # _1, __n
	movq	-8(%rbp), %rax	 # __val, tmp115
	movq	%rax, -24(%rbp)	 # tmp115, __value
.LBB611:
.LBB612:
.LBB613:
.LBB614:
 # D:/msys64/ucrt64/include/c++/15.2.0/bits/stl_iterator_base_types.h:242:     { return typename iterator_traits<_Iter>::iterator_category(); }
	.loc 19 242 65
	nop	
.LBE614:
.LBE613:
 # D:/msys64/ucrt64/include/c++/15.2.0/bits/stl_algobase.h:1178:       return std::__fill_n_a(__first, std::__size_to_integer(__n), __value,
	.loc 3 1178 29
	movq	-16(%rbp), %rax	 # __n, tmp116
	movq	%rax, %rcx	 # tmp116,
	call	_ZSt17__size_to_integery	 #
 # D:/msys64/ucrt64/include/c++/15.2.0/bits/stl_algobase.h:1178:       return std::__fill_n_a(__first, std::__size_to_integer(__n), __value,
	.loc 3 1178 29 is_stmt 0 discriminator 1
	movq	-88(%rbp), %rdx	 # __first, __first.65_16
	movq	%rdx, -32(%rbp)	 # __first.65_16, __first
	movq	%rax, -40(%rbp)	 # _15, __n
	movq	-24(%rbp), %rax	 # __value, tmp117
	movq	%rax, -48(%rbp)	 # tmp117, __value
.LBB615:
.LBB616:
 # D:/msys64/ucrt64/include/c++/15.2.0/bits/stl_algobase.h:1143:       if (__n <= 0)
	.loc 3 1143 7 is_stmt 1
	cmpq	$0, -40(%rbp)	 #, __n
	jne	.L296	 #,
 # D:/msys64/ucrt64/include/c++/15.2.0/bits/stl_algobase.h:1144: 	return __first;
	.loc 3 1144 9
	movq	-32(%rbp), %rax	 # __first, D.107944
	jmp	.L297	 #
.L296:
 # D:/msys64/ucrt64/include/c++/15.2.0/bits/stl_algobase.h:1148:       std::__fill_a(__first, __first + __n, __value);
	.loc 3 1148 38
	movq	-40(%rbp), %rax	 # __n, tmp118
	leaq	0(,%rax,8), %rdx	 #, _21
 # D:/msys64/ucrt64/include/c++/15.2.0/bits/stl_algobase.h:1148:       std::__fill_a(__first, __first + __n, __value);
	.loc 3 1148 20
	movq	-32(%rbp), %rax	 # __first, tmp119
	addq	%rax, %rdx	 # tmp119, _22
	movq	-32(%rbp), %rax	 # __first, tmp120
	movq	%rax, -56(%rbp)	 # tmp120, __first
	movq	%rdx, -64(%rbp)	 # _22, __last
	movq	-48(%rbp), %rax	 # __value, tmp121
	movq	%rax, -72(%rbp)	 # tmp121, __value
.LBB617:
.LBB618:
 # D:/msys64/ucrt64/include/c++/15.2.0/bits/stl_algobase.h:979:     { std::__fill_a1(__first, __last, __value); }
	.loc 3 979 21
	movq	-72(%rbp), %rcx	 # __value, tmp122
	movq	-64(%rbp), %rdx	 # __last, tmp123
	movq	-56(%rbp), %rax	 # __first, tmp124
	movq	%rcx, %r8	 # tmp122,
	movq	%rax, %rcx	 # tmp124,
	call	_ZSt9__fill_a1IPddEvT_S1_RKT0_	 #
 # D:/msys64/ucrt64/include/c++/15.2.0/bits/stl_algobase.h:979:     { std::__fill_a1(__first, __last, __value); }
	.loc 3 979 49
	nop	
.LBE618:
.LBE617:
 # D:/msys64/ucrt64/include/c++/15.2.0/bits/stl_algobase.h:1149:       return __first + __n;
	.loc 3 1149 22
	movq	-40(%rbp), %rax	 # __n, tmp125
	leaq	0(,%rax,8), %rdx	 #, _26
 # D:/msys64/ucrt64/include/c++/15.2.0/bits/stl_algobase.h:1149:       return __first + __n;
	.loc 3 1149 24
	movq	-32(%rbp), %rax	 # __first, tmp126
	addq	%rdx, %rax	 # _26, D.107944
.L297:
.LBE616:
.LBE615:
 # D:/msys64/ucrt64/include/c++/15.2.0/bits/stl_algobase.h:1179: 			       std::__iterator_category(__first));
	.loc 3 1179 44
	nop	
.LBE612:
.LBE611:
 # D:/msys64/ucrt64/include/c++/15.2.0/bits/stl_uninitialized.h:896: 	      __first = std::fill_n(__first, __n - 1, *__val);
	.loc 16 896 29 discriminator 1
	movq	%rax, 16(%rbp)	 # D.107944, __first
.L293:
.LBE608:
.LBE607:
 # D:/msys64/ucrt64/include/c++/15.2.0/bits/stl_uninitialized.h:898: 	  return __first;
	.loc 16 898 11
	movq	16(%rbp), %rax	 # __first, _12
 # D:/msys64/ucrt64/include/c++/15.2.0/bits/stl_uninitialized.h:899: 	}
	.loc 16 899 2
	subq	$-128, %rsp	 #,
	popq	%rbp	 #
	.cfi_restore 6
	.cfi_def_cfa 7, 8
	ret	
	.cfi_endproc
.LFE5876:
	.seh_endproc
	.section	.text$_ZSt14__relocate_a_1IddENSt9enable_ifIXsrSt24__is_bitwise_relocatableIT_vE5valueEPS2_E4typeES4_S4_S4_RSaIT0_E,"x"
	.linkonce discard
	.globl	_ZSt14__relocate_a_1IddENSt9enable_ifIXsrSt24__is_bitwise_relocatableIT_vE5valueEPS2_E4typeES4_S4_S4_RSaIT0_E
	.def	_ZSt14__relocate_a_1IddENSt9enable_ifIXsrSt24__is_bitwise_relocatableIT_vE5valueEPS2_E4typeES4_S4_S4_RSaIT0_E;	.scl	2;	.type	32;	.endef
	.seh_proc	_ZSt14__relocate_a_1IddENSt9enable_ifIXsrSt24__is_bitwise_relocatableIT_vE5valueEPS2_E4typeES4_S4_S4_RSaIT0_E
_ZSt14__relocate_a_1IddENSt9enable_ifIXsrSt24__is_bitwise_relocatableIT_vE5valueEPS2_E4typeES4_S4_S4_RSaIT0_E:
.LFB5877:
	.loc 16 1326 5
	.cfi_startproc
	pushq	%rbp	 #
	.seh_pushreg	%rbp
	.cfi_def_cfa_offset 16
	.cfi_offset 6, -16
	movq	%rsp, %rbp	 #,
	.seh_setframe	%rbp, 0
	.cfi_def_cfa_register 6
	subq	$48, %rsp	 #,
	.seh_stackalloc	48
	.seh_endprologue
	movq	%rcx, 16(%rbp)	 # __first, __first
	movq	%rdx, 24(%rbp)	 # __last, __last
	movq	%r8, 32(%rbp)	 # __result, __result
	movq	%r9, 40(%rbp)	 # __alloc, __alloc
 # D:/msys64/ucrt64/include/c++/15.2.0/bits/stl_uninitialized.h:1330:       ptrdiff_t __count = __last - __first;
	.loc 16 1330 34
	movq	24(%rbp), %rax	 # __last, tmp110
	subq	16(%rbp), %rax	 # __first, _1
 # D:/msys64/ucrt64/include/c++/15.2.0/bits/stl_uninitialized.h:1330:       ptrdiff_t __count = __last - __first;
	.loc 16 1330 17
	sarq	$3, %rax	 #, __count_14
	movq	%rax, -8(%rbp)	 # __count_14, __count
.LBB619:
 # D:/msys64/ucrt64/include/c++/15.2.0/bits/stl_uninitialized.h:1331:       if (__count > 0)
	.loc 16 1331 7
	cmpq	$0, -8(%rbp)	 #, __count
	jle	.L301	 #,
.LBB620:
.LBB621:
 # D:/msys64/ucrt64/include/c++/15.2.0/bits/stl_uninitialized.h:1334: 	  if (std::is_constant_evaluated())
	.loc 16 1334 34
	call	_ZSt21is_constant_evaluatedv	 #
 # D:/msys64/ucrt64/include/c++/15.2.0/bits/stl_uninitialized.h:1334: 	  if (std::is_constant_evaluated())
	.loc 16 1334 4 discriminator 1
	testb	%al, %al	 # retval.66_17
	je	.L302	 #,
.LBB622:
.LBB623:
.LBB624:
.LBB625:
 # D:/msys64/ucrt64/include/c++/15.2.0/bits/stl_iterator.h:1059:       : _M_current(__i) { }
	.loc 15 1059 9
	movq	32(%rbp), %rax	 # __result, _25
	movq	%rax, -16(%rbp)	 # _25, __out._M_current
.LBE625:
 # D:/msys64/ucrt64/include/c++/15.2.0/bits/stl_iterator.h:1059:       : _M_current(__i) { }
	.loc 15 1059 27
	nop	
.LBE624:
.LBE623:
 # D:/msys64/ucrt64/include/c++/15.2.0/bits/stl_uninitialized.h:1339: 	      __out = std::__relocate_a_1(__first, __last, __out, __alloc);
	.loc 16 1339 35
	movq	40(%rbp), %r8	 # __alloc, tmp112
	movq	-16(%rbp), %rcx	 # __out, tmp113
	movq	24(%rbp), %rdx	 # __last, tmp114
	movq	16(%rbp), %rax	 # __first, tmp115
	movq	%r8, %r9	 # tmp112,
	movq	%rcx, %r8	 # tmp113,
	movq	%rax, %rcx	 # tmp115,
	call	_ZSt14__relocate_a_1IPdN9__gnu_cxx17__normal_iteratorIS0_vEESaIdEET0_T_S6_S5_RT1_	 #
	movq	%rax, -16(%rbp)	 # tmp117, __out
.LBB626:
.LBB627:
 # D:/msys64/ucrt64/include/c++/15.2.0/bits/stl_iterator.h:1166:       { return _M_current; }
	.loc 15 1166 16
	leaq	-16(%rbp), %rax	 #, D.107999
.LBE627:
.LBE626:
 # D:/msys64/ucrt64/include/c++/15.2.0/bits/stl_uninitialized.h:1340: 	      return __out.base();
	.loc 16 1340 26 discriminator 1
	movq	(%rax), %rax	 # *_2, _9
 # D:/msys64/ucrt64/include/c++/15.2.0/bits/stl_uninitialized.h:1340: 	      return __out.base();
	.loc 16 1340 26 is_stmt 0
	jmp	.L304	 #
.L302:
.LBE622:
.LBE621:
 # D:/msys64/ucrt64/include/c++/15.2.0/bits/stl_uninitialized.h:1343: 	  __builtin_memcpy(__result, __first, __count * sizeof(_Tp));
	.loc 16 1343 40 is_stmt 1
	movq	-8(%rbp), %rax	 # __count, __count.67_3
 # D:/msys64/ucrt64/include/c++/15.2.0/bits/stl_uninitialized.h:1343: 	  __builtin_memcpy(__result, __first, __count * sizeof(_Tp));
	.loc 16 1343 20
	leaq	0(,%rax,8), %r8	 #, _4
	movq	32(%rbp), %rdx	 # __result, __result.68_5
	movq	16(%rbp), %rax	 # __first, tmp118
	movq	%rdx, %rcx	 # __result.68_5, tmp119
	movq	%r8, %rdx	 # _4, tmp121
	movq	%rdx, %r8	 # tmp121,
	movq	%rax, %rdx	 # tmp120,
	call	memcpy	 #
.L301:
.LBE620:
.LBE619:
 # D:/msys64/ucrt64/include/c++/15.2.0/bits/stl_uninitialized.h:1345:       return __result + __count;
	.loc 16 1345 23
	movq	32(%rbp), %rax	 # __result, __result.69_6
 # D:/msys64/ucrt64/include/c++/15.2.0/bits/stl_uninitialized.h:1345:       return __result + __count;
	.loc 16 1345 25
	movq	-8(%rbp), %rdx	 # __count, __count.70_7
 # D:/msys64/ucrt64/include/c++/15.2.0/bits/stl_uninitialized.h:1345:       return __result + __count;
	.loc 16 1345 23
	salq	$3, %rdx	 #, _8
 # D:/msys64/ucrt64/include/c++/15.2.0/bits/stl_uninitialized.h:1345:       return __result + __count;
	.loc 16 1345 25
	addq	%rdx, %rax	 # _8, _9
.L304:
 # D:/msys64/ucrt64/include/c++/15.2.0/bits/stl_uninitialized.h:1346:     }
	.loc 16 1346 5
	addq	$48, %rsp	 #,
	popq	%rbp	 #
	.cfi_restore 6
	.cfi_def_cfa 7, 8
	ret	
	.cfi_endproc
.LFE5877:
	.seh_endproc
	.section	.text$_ZSt12construct_atIdJRKdEQaant20is_unbounded_array_vIT_ErqXgsnwcvPvLi0E_S2_pispcl7declvalIT0_EEEEEPS2_S5_DpOS4_,"x"
	.linkonce discard
	.globl	_ZSt12construct_atIdJRKdEQaant20is_unbounded_array_vIT_ErqXgsnwcvPvLi0E_S2_pispcl7declvalIT0_EEEEEPS2_S5_DpOS4_
	.def	_ZSt12construct_atIdJRKdEQaant20is_unbounded_array_vIT_ErqXgsnwcvPvLi0E_S2_pispcl7declvalIT0_EEEEEPS2_S5_DpOS4_;	.scl	2;	.type	32;	.endef
	.seh_proc	_ZSt12construct_atIdJRKdEQaant20is_unbounded_array_vIT_ErqXgsnwcvPvLi0E_S2_pispcl7declvalIT0_EEEEEPS2_S5_DpOS4_
_ZSt12construct_atIdJRKdEQaant20is_unbounded_array_vIT_ErqXgsnwcvPvLi0E_S2_pispcl7declvalIT0_EEEEEPS2_S5_DpOS4_:
.LFB5898:
	.loc 17 96 5
	.cfi_startproc
	pushq	%rbp	 #
	.seh_pushreg	%rbp
	.cfi_def_cfa_offset 16
	.cfi_offset 6, -16
	pushq	%rsi	 #
	.seh_pushreg	%rsi
	.cfi_def_cfa_offset 24
	.cfi_offset 4, -24
	pushq	%rbx	 #
	.seh_pushreg	%rbx
	.cfi_def_cfa_offset 32
	.cfi_offset 3, -32
	subq	$48, %rsp	 #,
	.seh_stackalloc	48
	.cfi_def_cfa_offset 80
	leaq	48(%rsp), %rbp	 #,
	.seh_setframe	%rbp, 48
	.cfi_def_cfa 6, 32
	.seh_endprologue
	movq	%rcx, 32(%rbp)	 # __location, __location
	movq	%rdx, 40(%rbp)	 # __args#0, __args#0
 # D:/msys64/ucrt64/include/c++/15.2.0/bits/stl_construct.h:99:       void* __loc = __location;
	.loc 17 99 13
	movq	32(%rbp), %rax	 # __location, tmp105
	movq	%rax, -8(%rbp)	 # tmp105, __loc
 # D:/msys64/ucrt64/include/c++/15.2.0/bits/stl_construct.h:110: 	return ::new(__loc) _Tp(std::forward<_Args>(__args)...);
	.loc 17 110 15
	movq	-8(%rbp), %rsi	 # __loc, _6
 # D:/msys64/ucrt64/include/c++/15.2.0/bits/stl_construct.h:110: 	return ::new(__loc) _Tp(std::forward<_Args>(__args)...);
	.loc 17 110 9
	movq	%rsi, %rdx	 # _6,
	movl	$8, %ecx	 #,
	call	_ZnwyPv	 #
	movq	%rax, %rbx	 #, _9
	movq	40(%rbp), %rax	 # __args#0, tmp106
	movq	%rax, -16(%rbp)	 # tmp106, __t
.LBB628:
.LBB629:
 # D:/msys64/ucrt64/include/c++/15.2.0/bits/move.h:73:     { return static_cast<_Tp&&>(__t); }
	.loc 12 73 36
	movq	-16(%rbp), %rax	 # __t, D.107607
.LBE629:
.LBE628:
 # D:/msys64/ucrt64/include/c++/15.2.0/bits/stl_construct.h:110: 	return ::new(__loc) _Tp(std::forward<_Args>(__args)...);
	.loc 17 110 9 discriminator 2
	movsd	(%rax), %xmm0	 # *_1, _2
	movsd	%xmm0, (%rbx)	 # _2, MEM[(double *)_9]
 # D:/msys64/ucrt64/include/c++/15.2.0/bits/stl_construct.h:110: 	return ::new(__loc) _Tp(std::forward<_Args>(__args)...);
	.loc 17 110 56 discriminator 2
	movl	$0, %eax	 #, _13
 # D:/msys64/ucrt64/include/c++/15.2.0/bits/stl_construct.h:110: 	return ::new(__loc) _Tp(std::forward<_Args>(__args)...);
	.loc 17 110 56 is_stmt 0 discriminator 3
	testb	%al, %al	 # _13
	je	.L308	 #,
 # D:/msys64/ucrt64/include/c++/15.2.0/bits/stl_construct.h:110: 	return ::new(__loc) _Tp(std::forward<_Args>(__args)...);
	.loc 17 110 9 is_stmt 1 discriminator 4
	movq	%rsi, %rdx	 # _6,
	movq	%rbx, %rcx	 # _9,
	call	_ZdlPvS_	 #
.L308:
 # D:/msys64/ucrt64/include/c++/15.2.0/bits/stl_construct.h:110: 	return ::new(__loc) _Tp(std::forward<_Args>(__args)...);
	.loc 17 110 56 discriminator 8
	movq	%rbx, %rax	 # _9, <retval>
 # D:/msys64/ucrt64/include/c++/15.2.0/bits/stl_construct.h:111:     }
	.loc 17 111 5
	addq	$48, %rsp	 #,
	popq	%rbx	 #
	.cfi_restore 3
	popq	%rsi	 #
	.cfi_restore 4
	popq	%rbp	 #
	.cfi_restore 6
	.cfi_def_cfa 7, -24
	ret	
	.cfi_endproc
.LFE5898:
	.seh_endproc
	.weak	_ZSt12construct_atIdJRKdEEPT_S3_DpOT0_
	.def	_ZSt12construct_atIdJRKdEEPT_S3_DpOT0_;	.scl	2;	.type	32;	.endef
	.set	_ZSt12construct_atIdJRKdEEPT_S3_DpOT0_,_ZSt12construct_atIdJRKdEQaant20is_unbounded_array_vIT_ErqXgsnwcvPvLi0E_S2_pispcl7declvalIT0_EEEEEPS2_S5_DpOS4_
	.section	.text$_ZNSt15__new_allocatorIdE8allocateEyPKv,"x"
	.linkonce discard
	.align 2
	.globl	_ZNSt15__new_allocatorIdE8allocateEyPKv
	.def	_ZNSt15__new_allocatorIdE8allocateEyPKv;	.scl	2;	.type	32;	.endef
	.seh_proc	_ZNSt15__new_allocatorIdE8allocateEyPKv
_ZNSt15__new_allocatorIdE8allocateEyPKv:
.LFB5899:
	.loc 8 126 7
	.cfi_startproc
	pushq	%rbp	 #
	.seh_pushreg	%rbp
	.cfi_def_cfa_offset 16
	.cfi_offset 6, -16
	movq	%rsp, %rbp	 #,
	.seh_setframe	%rbp, 0
	.cfi_def_cfa_register 6
	subq	$48, %rsp	 #,
	.seh_stackalloc	48
	.seh_endprologue
	movq	%rcx, 16(%rbp)	 # this, this
	movq	%rdx, 24(%rbp)	 # __n, __n
	movq	%r8, 32(%rbp)	 # D.106237, D.106237
	movq	16(%rbp), %rax	 # this, tmp106
	movq	%rax, -8(%rbp)	 # tmp106, this
.LBB630:
.LBB631:
 # D:/msys64/ucrt64/include/c++/15.2.0/bits/new_allocator.h:233: 	return std::size_t(__PTRDIFF_MAX__) / sizeof(_Tp);
	.loc 8 233 55
	movabsq	$1152921504606846975, %rax	 #, D.107655
.LBE631:
.LBE630:
 # D:/msys64/ucrt64/include/c++/15.2.0/bits/new_allocator.h:134: 	if (__builtin_expect(__n > this->_M_max_size(), false))
	.loc 8 134 27 discriminator 1
	cmpq	24(%rbp), %rax	 # __n, D.107655
	setb	%al	 #, _2
 # D:/msys64/ucrt64/include/c++/15.2.0/bits/new_allocator.h:134: 	if (__builtin_expect(__n > this->_M_max_size(), false))
	.loc 8 134 22 discriminator 1
	movzbl	%al, %eax	 # _2, _3
 # D:/msys64/ucrt64/include/c++/15.2.0/bits/new_allocator.h:134: 	if (__builtin_expect(__n > this->_M_max_size(), false))
	.loc 8 134 22 is_stmt 0 discriminator 2
	testl	%eax, %eax	 # _4
	setne	%al	 #, retval.11_9
 # D:/msys64/ucrt64/include/c++/15.2.0/bits/new_allocator.h:134: 	if (__builtin_expect(__n > this->_M_max_size(), false))
	.loc 8 134 2 is_stmt 1 discriminator 2
	testb	%al, %al	 # retval.11_9
	je	.L311	 #,
 # D:/msys64/ucrt64/include/c++/15.2.0/bits/new_allocator.h:138: 	    if (__n > (std::size_t(-1) / sizeof(_Tp)))
	.loc 8 138 6
	movabsq	$2305843009213693951, %rax	 #, tmp107
	cmpq	24(%rbp), %rax	 # __n, tmp107
	jnb	.L312	 #,
 # D:/msys64/ucrt64/include/c++/15.2.0/bits/new_allocator.h:139: 	      std::__throw_bad_array_new_length();
	.loc 8 139 41
	call	_ZSt28__throw_bad_array_new_lengthv	 #
.L312:
 # D:/msys64/ucrt64/include/c++/15.2.0/bits/new_allocator.h:140: 	    std::__throw_bad_alloc();
	.loc 8 140 28
	call	_ZSt17__throw_bad_allocv	 #
.L311:
 # D:/msys64/ucrt64/include/c++/15.2.0/bits/new_allocator.h:151: 	return static_cast<_Tp*>(_GLIBCXX_OPERATOR_NEW(__n * sizeof(_Tp)));
	.loc 8 151 67
	movq	24(%rbp), %rax	 # __n, tmp108
	salq	$3, %rax	 #, _6
	movq	%rax, %rcx	 # _6,
	call	_Znwy	 #
 # D:/msys64/ucrt64/include/c++/15.2.0/bits/new_allocator.h:151: 	return static_cast<_Tp*>(_GLIBCXX_OPERATOR_NEW(__n * sizeof(_Tp)));
	.loc 8 151 68
	nop	
 # D:/msys64/ucrt64/include/c++/15.2.0/bits/new_allocator.h:152:       }
	.loc 8 152 7
	addq	$48, %rsp	 #,
	popq	%rbp	 #
	.cfi_restore 6
	.cfi_def_cfa 7, 8
	ret	
	.cfi_endproc
.LFE5899:
	.seh_endproc
	.section	.text$_ZSt10_ConstructIdJEEvPT_DpOT0_,"x"
	.linkonce discard
	.globl	_ZSt10_ConstructIdJEEvPT_DpOT0_
	.def	_ZSt10_ConstructIdJEEvPT_DpOT0_;	.scl	2;	.type	32;	.endef
	.seh_proc	_ZSt10_ConstructIdJEEvPT_DpOT0_
_ZSt10_ConstructIdJEEvPT_DpOT0_:
.LFB5904:
	.loc 17 123 5
	.cfi_startproc
	pushq	%rbp	 #
	.seh_pushreg	%rbp
	.cfi_def_cfa_offset 16
	.cfi_offset 6, -16
	pushq	%rbx	 #
	.seh_pushreg	%rbx
	.cfi_def_cfa_offset 24
	.cfi_offset 3, -24
	subq	$40, %rsp	 #,
	.seh_stackalloc	40
	.cfi_def_cfa_offset 64
	leaq	32(%rsp), %rbp	 #,
	.seh_setframe	%rbp, 32
	.cfi_def_cfa 6, 32
	.seh_endprologue
	movq	%rcx, 32(%rbp)	 # __p, __p
.LBB632:
.LBB633:
 # D:/msys64/ucrt64/include/c++/15.2.0/x86_64-w64-mingw32/bits/c++config.h:589:     return __builtin_is_constant_evaluated();
	.loc 14 589 44
	movl	$0, %eax	 #, D.107907
.LBE633:
.LBE632:
 # D:/msys64/ucrt64/include/c++/15.2.0/bits/stl_construct.h:126:       if (std::__is_constant_evaluated())
	.loc 17 126 7 discriminator 1
	testb	%al, %al	 # D.107907
	je	.L316	 #,
 # D:/msys64/ucrt64/include/c++/15.2.0/bits/stl_construct.h:129: 	  std::construct_at(__p, std::forward<_Args>(__args)...);
	.loc 17 129 21
	movq	32(%rbp), %rax	 # __p, tmp103
	movq	%rax, %rcx	 # tmp103,
	call	_ZSt12construct_atIdJEQaant20is_unbounded_array_vIT_ErqXgsnwcvPvLi0E_S0_pispcl7declvalIT0_EEEEEPS0_S3_DpOS2_	 #
 # D:/msys64/ucrt64/include/c++/15.2.0/bits/stl_construct.h:130: 	  return;
	.loc 17 130 4
	jmp	.L314	 #
.L316:
 # D:/msys64/ucrt64/include/c++/15.2.0/bits/stl_construct.h:133:       ::new(static_cast<void*>(__p)) _Tp(std::forward<_Args>(__args)...);
	.loc 17 133 13
	movq	32(%rbp), %rbx	 # __p, _5
 # D:/msys64/ucrt64/include/c++/15.2.0/bits/stl_construct.h:133:       ::new(static_cast<void*>(__p)) _Tp(std::forward<_Args>(__args)...);
	.loc 17 133 7
	movq	%rbx, %rdx	 # _5,
	movl	$8, %ecx	 #,
	call	_ZnwyPv	 #
 # D:/msys64/ucrt64/include/c++/15.2.0/bits/stl_construct.h:133:       ::new(static_cast<void*>(__p)) _Tp(std::forward<_Args>(__args)...);
	.loc 17 133 7 is_stmt 0 discriminator 1
	pxor	%xmm0, %xmm0	 # tmp104
	movsd	%xmm0, (%rax)	 # tmp104, MEM[(double *)_7]
	movl	$0, %edx	 #, _10
	testb	%dl, %dl	 # _10
	je	.L314	 #,
 # D:/msys64/ucrt64/include/c++/15.2.0/bits/stl_construct.h:133:       ::new(static_cast<void*>(__p)) _Tp(std::forward<_Args>(__args)...);
	.loc 17 133 7 discriminator 2
	movq	%rbx, %rdx	 # _5,
	movq	%rax, %rcx	 # _7,
	call	_ZdlPvS_	 #
	nop	
.L314:
 # D:/msys64/ucrt64/include/c++/15.2.0/bits/stl_construct.h:134:     }
	.loc 17 134 5 is_stmt 1
	addq	$40, %rsp	 #,
	popq	%rbx	 #
	.cfi_restore 3
	popq	%rbp	 #
	.cfi_restore 6
	.cfi_def_cfa 7, -24
	ret	
	.cfi_endproc
.LFE5904:
	.seh_endproc
	.section	.text$_ZSt14__relocate_a_1IPdN9__gnu_cxx17__normal_iteratorIS0_vEESaIdEET0_T_S6_S5_RT1_,"x"
	.linkonce discard
	.globl	_ZSt14__relocate_a_1IPdN9__gnu_cxx17__normal_iteratorIS0_vEESaIdEET0_T_S6_S5_RT1_
	.def	_ZSt14__relocate_a_1IPdN9__gnu_cxx17__normal_iteratorIS0_vEESaIdEET0_T_S6_S5_RT1_;	.scl	2;	.type	32;	.endef
	.seh_proc	_ZSt14__relocate_a_1IPdN9__gnu_cxx17__normal_iteratorIS0_vEESaIdEET0_T_S6_S5_RT1_
_ZSt14__relocate_a_1IPdN9__gnu_cxx17__normal_iteratorIS0_vEESaIdEET0_T_S6_S5_RT1_:
.LFB5906:
	.loc 16 1303 5
	.cfi_startproc
	pushq	%rbp	 #
	.seh_pushreg	%rbp
	.cfi_def_cfa_offset 16
	.cfi_offset 6, -16
	movq	%rsp, %rbp	 #,
	.seh_setframe	%rbp, 0
	.cfi_def_cfa_register 6
	subq	$64, %rsp	 #,
	.seh_stackalloc	64
	.seh_endprologue
	movq	%rcx, 16(%rbp)	 # __first, __first
	movq	%rdx, 24(%rbp)	 # __last, __last
	movq	%r8, 32(%rbp)	 # __result, __result
	movq	%r9, 40(%rbp)	 # __alloc, __alloc
 # D:/msys64/ucrt64/include/c++/15.2.0/bits/stl_uninitialized.h:1315:       _ForwardIterator __cur = __result;
	.loc 16 1315 24
	movq	32(%rbp), %rax	 # __result, tmp106
	movq	%rax, -24(%rbp)	 # tmp106, __cur
 # D:/msys64/ucrt64/include/c++/15.2.0/bits/stl_uninitialized.h:1316:       for (; __first != __last; ++__first, (void)++__cur)
	.loc 16 1316 7
	jmp	.L319	 #
.L324:
	movq	16(%rbp), %rax	 # __first, tmp107
	movq	%rax, -16(%rbp)	 # tmp107, __r
.LBB634:
.LBB635:
 # D:/msys64/ucrt64/include/c++/15.2.0/bits/move.h:53:     { return __builtin_addressof(__r); }
	.loc 12 53 37
	movq	-16(%rbp), %rdx	 # __r, D.107995
.LBE635:
.LBE634:
.LBB636:
.LBB637:
 # D:/msys64/ucrt64/include/c++/15.2.0/bits/stl_iterator.h:1090:       { return *_M_current; }
	.loc 15 1090 17
	movq	-24(%rbp), %rax	 # __cur._M_current, D.107991
	movq	%rax, -8(%rbp)	 # D.107991, __r
.LBE637:
.LBE636:
.LBB638:
.LBB639:
 # D:/msys64/ucrt64/include/c++/15.2.0/bits/move.h:53:     { return __builtin_addressof(__r); }
	.loc 12 53 37
	movq	-8(%rbp), %rax	 # __r, D.107987
.LBE639:
.LBE638:
 # D:/msys64/ucrt64/include/c++/15.2.0/bits/stl_uninitialized.h:1317: 	std::__relocate_object_a(std::__addressof(*__cur),
	.loc 16 1317 26 discriminator 3
	movq	40(%rbp), %rcx	 # __alloc, tmp108
	movq	%rcx, %r8	 # tmp108,
	movq	%rax, %rcx	 # D.107987,
	call	_ZSt19__relocate_object_aIddSaIdEEvPT_PT0_RT1_	 #
 # D:/msys64/ucrt64/include/c++/15.2.0/bits/stl_uninitialized.h:1316:       for (; __first != __last; ++__first, (void)++__cur)
	.loc 16 1316 7 discriminator 3
	addq	$8, 16(%rbp)	 #, __first
.LBB640:
.LBB641:
 # D:/msys64/ucrt64/include/c++/15.2.0/bits/stl_iterator.h:1103: 	++_M_current;
	.loc 15 1103 4
	movq	-24(%rbp), %rax	 # __cur._M_current, _15
 # D:/msys64/ucrt64/include/c++/15.2.0/bits/stl_iterator.h:1103: 	++_M_current;
	.loc 15 1103 2
	addq	$8, %rax	 #, _16
	movq	%rax, -24(%rbp)	 # _16, __cur._M_current
 # D:/msys64/ucrt64/include/c++/15.2.0/bits/stl_iterator.h:1104: 	return *this;
	.loc 15 1104 10
	nop	
.L319:
.LBE641:
.LBE640:
 # D:/msys64/ucrt64/include/c++/15.2.0/bits/stl_uninitialized.h:1316:       for (; __first != __last; ++__first, (void)++__cur)
	.loc 16 1316 22 discriminator 2
	movq	16(%rbp), %rax	 # __first, tmp109
	cmpq	24(%rbp), %rax	 # __last, tmp109
	jne	.L324	 #,
 # D:/msys64/ucrt64/include/c++/15.2.0/bits/stl_uninitialized.h:1319:       return __cur;
	.loc 16 1319 14
	movq	-24(%rbp), %rax	 # __cur, D.107098
 # D:/msys64/ucrt64/include/c++/15.2.0/bits/stl_uninitialized.h:1320:     }
	.loc 16 1320 5
	addq	$64, %rsp	 #,
	popq	%rbp	 #
	.cfi_restore 6
	.cfi_def_cfa 7, 8
	ret	
	.cfi_endproc
.LFE5906:
	.seh_endproc
	.section	.text$_ZSt12construct_atIdJEQaant20is_unbounded_array_vIT_ErqXgsnwcvPvLi0E_S0_pispcl7declvalIT0_EEEEEPS0_S3_DpOS2_,"x"
	.linkonce discard
	.globl	_ZSt12construct_atIdJEQaant20is_unbounded_array_vIT_ErqXgsnwcvPvLi0E_S0_pispcl7declvalIT0_EEEEEPS0_S3_DpOS2_
	.def	_ZSt12construct_atIdJEQaant20is_unbounded_array_vIT_ErqXgsnwcvPvLi0E_S0_pispcl7declvalIT0_EEEEEPS0_S3_DpOS2_;	.scl	2;	.type	32;	.endef
	.seh_proc	_ZSt12construct_atIdJEQaant20is_unbounded_array_vIT_ErqXgsnwcvPvLi0E_S0_pispcl7declvalIT0_EEEEEPS0_S3_DpOS2_
_ZSt12construct_atIdJEQaant20is_unbounded_array_vIT_ErqXgsnwcvPvLi0E_S0_pispcl7declvalIT0_EEEEEPS0_S3_DpOS2_:
.LFB5922:
	.loc 17 96 5
	.cfi_startproc
	pushq	%rbp	 #
	.seh_pushreg	%rbp
	.cfi_def_cfa_offset 16
	.cfi_offset 6, -16
	pushq	%rsi	 #
	.seh_pushreg	%rsi
	.cfi_def_cfa_offset 24
	.cfi_offset 4, -24
	pushq	%rbx	 #
	.seh_pushreg	%rbx
	.cfi_def_cfa_offset 32
	.cfi_offset 3, -32
	subq	$48, %rsp	 #,
	.seh_stackalloc	48
	.cfi_def_cfa_offset 80
	leaq	48(%rsp), %rbp	 #,
	.seh_setframe	%rbp, 48
	.cfi_def_cfa 6, 32
	.seh_endprologue
	movq	%rcx, 32(%rbp)	 # __location, __location
 # D:/msys64/ucrt64/include/c++/15.2.0/bits/stl_construct.h:99:       void* __loc = __location;
	.loc 17 99 13
	movq	32(%rbp), %rax	 # __location, tmp103
	movq	%rax, -8(%rbp)	 # tmp103, __loc
 # D:/msys64/ucrt64/include/c++/15.2.0/bits/stl_construct.h:110: 	return ::new(__loc) _Tp(std::forward<_Args>(__args)...);
	.loc 17 110 15
	movq	-8(%rbp), %rsi	 # __loc, _4
 # D:/msys64/ucrt64/include/c++/15.2.0/bits/stl_construct.h:110: 	return ::new(__loc) _Tp(std::forward<_Args>(__args)...);
	.loc 17 110 9
	movq	%rsi, %rdx	 # _4,
	movl	$8, %ecx	 #,
	call	_ZnwyPv	 #
	movq	%rax, %rbx	 #, _7
 # D:/msys64/ucrt64/include/c++/15.2.0/bits/stl_construct.h:110: 	return ::new(__loc) _Tp(std::forward<_Args>(__args)...);
	.loc 17 110 9 is_stmt 0 discriminator 1
	pxor	%xmm0, %xmm0	 # tmp104
	movsd	%xmm0, (%rbx)	 # tmp104, MEM[(double *)_7]
 # D:/msys64/ucrt64/include/c++/15.2.0/bits/stl_construct.h:110: 	return ::new(__loc) _Tp(std::forward<_Args>(__args)...);
	.loc 17 110 56 is_stmt 1 discriminator 1
	movl	$0, %eax	 #, _10
 # D:/msys64/ucrt64/include/c++/15.2.0/bits/stl_construct.h:110: 	return ::new(__loc) _Tp(std::forward<_Args>(__args)...);
	.loc 17 110 56 is_stmt 0 discriminator 2
	testb	%al, %al	 # _10
	je	.L328	 #,
 # D:/msys64/ucrt64/include/c++/15.2.0/bits/stl_construct.h:110: 	return ::new(__loc) _Tp(std::forward<_Args>(__args)...);
	.loc 17 110 9 is_stmt 1 discriminator 3
	movq	%rsi, %rdx	 # _4,
	movq	%rbx, %rcx	 # _7,
	call	_ZdlPvS_	 #
.L328:
 # D:/msys64/ucrt64/include/c++/15.2.0/bits/stl_construct.h:110: 	return ::new(__loc) _Tp(std::forward<_Args>(__args)...);
	.loc 17 110 56 discriminator 7
	movq	%rbx, %rax	 # _7, <retval>
 # D:/msys64/ucrt64/include/c++/15.2.0/bits/stl_construct.h:111:     }
	.loc 17 111 5
	addq	$48, %rsp	 #,
	popq	%rbx	 #
	.cfi_restore 3
	popq	%rsi	 #
	.cfi_restore 4
	popq	%rbp	 #
	.cfi_restore 6
	.cfi_def_cfa 7, -24
	ret	
	.cfi_endproc
.LFE5922:
	.seh_endproc
	.weak	_ZSt12construct_atIdJEEPT_S1_DpOT0_
	.def	_ZSt12construct_atIdJEEPT_S1_DpOT0_;	.scl	2;	.type	32;	.endef
	.set	_ZSt12construct_atIdJEEPT_S1_DpOT0_,_ZSt12construct_atIdJEQaant20is_unbounded_array_vIT_ErqXgsnwcvPvLi0E_S0_pispcl7declvalIT0_EEEEEPS0_S3_DpOS2_
	.section	.text$_ZSt19__relocate_object_aIddSaIdEEvPT_PT0_RT1_,"x"
	.linkonce discard
	.globl	_ZSt19__relocate_object_aIddSaIdEEvPT_PT0_RT1_
	.def	_ZSt19__relocate_object_aIddSaIdEEvPT_PT0_RT1_;	.scl	2;	.type	32;	.endef
	.seh_proc	_ZSt19__relocate_object_aIddSaIdEEvPT_PT0_RT1_
_ZSt19__relocate_object_aIddSaIdEEvPT_PT0_RT1_:
.LFB5926:
	.loc 16 1280 5
	.cfi_startproc
	pushq	%rbp	 #
	.seh_pushreg	%rbp
	.cfi_def_cfa_offset 16
	.cfi_offset 6, -16
	movq	%rsp, %rbp	 #,
	.seh_setframe	%rbp, 0
	.cfi_def_cfa_register 6
	subq	$96, %rsp	 #,
	.seh_stackalloc	96
	.seh_endprologue
	movq	%rcx, 16(%rbp)	 # __dest, __dest
	movq	%rdx, 24(%rbp)	 # __orig, __orig
	movq	%r8, 32(%rbp)	 # __alloc, __alloc
	movq	24(%rbp), %rax	 # __orig, tmp101
	movq	%rax, -64(%rbp)	 # tmp101, __t
.LBB642:
.LBB643:
 # D:/msys64/ucrt64/include/c++/15.2.0/bits/move.h:139:     { return static_cast<typename std::remove_reference<_Tp>::type&&>(__t); }
	.loc 12 139 74
	movq	-64(%rbp), %rax	 # __t, D.107979
	movq	16(%rbp), %rdx	 # __dest, tmp102
	movq	%rdx, -32(%rbp)	 # tmp102, __p
	movq	%rax, -40(%rbp)	 # D.107979, __args#0
	movq	32(%rbp), %rax	 # __alloc, tmp103
	movq	%rax, -48(%rbp)	 # tmp103, __a
	movq	-40(%rbp), %rax	 # __args#0, tmp104
	movq	%rax, -56(%rbp)	 # tmp104, __t
.LBE643:
.LBE642:
.LBB644:
.LBB645:
.LBB646:
.LBB647:
 # D:/msys64/ucrt64/include/c++/15.2.0/bits/move.h:73:     { return static_cast<_Tp&&>(__t); }
	.loc 12 73 36
	movq	-56(%rbp), %rdx	 # __t, _15
.LBE647:
.LBE646:
 # D:/msys64/ucrt64/include/c++/15.2.0/bits/alloc_traits.h:676: 	  std::construct_at(__p, std::forward<_Args>(__args)...);
	.loc 10 676 21 discriminator 1
	movq	-32(%rbp), %rax	 # __p, tmp105
	movq	%rax, %rcx	 # tmp105,
	call	_ZSt12construct_atIdJdEQaant20is_unbounded_array_vIT_ErqXgsnwcvPvLi0E_S0_pispcl7declvalIT0_EEEEEPS0_S3_DpOS2_	 #
 # D:/msys64/ucrt64/include/c++/15.2.0/bits/alloc_traits.h:680: 	}
	.loc 10 680 2
	nop	
	movq	24(%rbp), %rax	 # __orig, tmp106
	movq	%rax, -24(%rbp)	 # tmp106, __r
.LBE645:
.LBE644:
.LBB648:
.LBB649:
 # D:/msys64/ucrt64/include/c++/15.2.0/bits/move.h:53:     { return __builtin_addressof(__r); }
	.loc 12 53 37
	movq	-24(%rbp), %rax	 # __r, D.107968
	movq	%rax, -8(%rbp)	 # D.107968, __p
	movq	32(%rbp), %rax	 # __alloc, tmp107
	movq	%rax, -16(%rbp)	 # tmp107, __a
.LBE649:
.LBE648:
.LBB650:
.LBB651:
 # D:/msys64/ucrt64/include/c++/15.2.0/bits/alloc_traits.h:698: 	  std::destroy_at(__p);
	.loc 10 698 19
	movq	-8(%rbp), %rax	 # __p, tmp108
	movq	%rax, %rcx	 # tmp108,
	call	_ZSt10destroy_atIdEvPT_	 #
 # D:/msys64/ucrt64/include/c++/15.2.0/bits/alloc_traits.h:700: 	}
	.loc 10 700 2
	nop	
.LBE651:
.LBE650:
 # D:/msys64/ucrt64/include/c++/15.2.0/bits/stl_uninitialized.h:1290:     }
	.loc 16 1290 5
	nop	
	addq	$96, %rsp	 #,
	popq	%rbp	 #
	.cfi_restore 6
	.cfi_def_cfa 7, 8
	ret	
	.cfi_endproc
.LFE5926:
	.seh_endproc
	.section	.text$_ZSt9__fill_a1IPddEvT_S1_RKT0_,"x"
	.linkonce discard
	.globl	_ZSt9__fill_a1IPddEvT_S1_RKT0_
	.def	_ZSt9__fill_a1IPddEvT_S1_RKT0_;	.scl	2;	.type	32;	.endef
	.seh_proc	_ZSt9__fill_a1IPddEvT_S1_RKT0_
_ZSt9__fill_a1IPddEvT_S1_RKT0_:
.LFB5936:
	.loc 3 897 5
	.cfi_startproc
	pushq	%rbp	 #
	.seh_pushreg	%rbp
	.cfi_def_cfa_offset 16
	.cfi_offset 6, -16
	movq	%rsp, %rbp	 #,
	.seh_setframe	%rbp, 0
	.cfi_def_cfa_register 6
	subq	$16, %rsp	 #,
	.seh_stackalloc	16
	.seh_endprologue
	movq	%rcx, 16(%rbp)	 # __first, __first
	movq	%rdx, 24(%rbp)	 # __last, __last
	movq	%r8, 32(%rbp)	 # __value, __value
 # D:/msys64/ucrt64/include/c++/15.2.0/bits/stl_algobase.h:906:       const bool __load_outside_loop =
	.loc 3 906 18
	movb	$1, -1(%rbp)	 #, __load_outside_loop
 # D:/msys64/ucrt64/include/c++/15.2.0/bits/stl_algobase.h:923:       _Up __val(__value);
	.loc 3 923 11
	movq	32(%rbp), %rax	 # __value, tmp98
	movsd	(%rax), %xmm0	 # *__value_5(D), tmp99
	movsd	%xmm0, -16(%rbp)	 # tmp99, __val
 # D:/msys64/ucrt64/include/c++/15.2.0/bits/stl_algobase.h:924:       for (; __first != __last; ++__first)
	.loc 3 924 7
	jmp	.L334	 #
.L335:
 # D:/msys64/ucrt64/include/c++/15.2.0/bits/stl_algobase.h:925: 	*__first = __val;
	.loc 3 925 11
	movq	16(%rbp), %rax	 # __first, tmp100
	movsd	-16(%rbp), %xmm0	 # __val, tmp101
	movsd	%xmm0, (%rax)	 # tmp101, *__first_1
 # D:/msys64/ucrt64/include/c++/15.2.0/bits/stl_algobase.h:924:       for (; __first != __last; ++__first)
	.loc 3 924 7 discriminator 2
	addq	$8, 16(%rbp)	 #, __first
.L334:
 # D:/msys64/ucrt64/include/c++/15.2.0/bits/stl_algobase.h:924:       for (; __first != __last; ++__first)
	.loc 3 924 22 discriminator 1
	movq	16(%rbp), %rax	 # __first, tmp102
	cmpq	24(%rbp), %rax	 # __last, tmp102
	jne	.L335	 #,
 # D:/msys64/ucrt64/include/c++/15.2.0/bits/stl_algobase.h:926:     }
	.loc 3 926 5
	nop	
	nop	
	addq	$16, %rsp	 #,
	popq	%rbp	 #
	.cfi_restore 6
	.cfi_def_cfa 7, 8
	ret	
	.cfi_endproc
.LFE5936:
	.seh_endproc
	.section	.text$_ZSt12construct_atIdJdEQaant20is_unbounded_array_vIT_ErqXgsnwcvPvLi0E_S0_pispcl7declvalIT0_EEEEEPS0_S3_DpOS2_,"x"
	.linkonce discard
	.globl	_ZSt12construct_atIdJdEQaant20is_unbounded_array_vIT_ErqXgsnwcvPvLi0E_S0_pispcl7declvalIT0_EEEEEPS0_S3_DpOS2_
	.def	_ZSt12construct_atIdJdEQaant20is_unbounded_array_vIT_ErqXgsnwcvPvLi0E_S0_pispcl7declvalIT0_EEEEEPS0_S3_DpOS2_;	.scl	2;	.type	32;	.endef
	.seh_proc	_ZSt12construct_atIdJdEQaant20is_unbounded_array_vIT_ErqXgsnwcvPvLi0E_S0_pispcl7declvalIT0_EEEEEPS0_S3_DpOS2_
_ZSt12construct_atIdJdEQaant20is_unbounded_array_vIT_ErqXgsnwcvPvLi0E_S0_pispcl7declvalIT0_EEEEEPS0_S3_DpOS2_:
.LFB5938:
	.loc 17 96 5
	.cfi_startproc
	pushq	%rbp	 #
	.seh_pushreg	%rbp
	.cfi_def_cfa_offset 16
	.cfi_offset 6, -16
	pushq	%rsi	 #
	.seh_pushreg	%rsi
	.cfi_def_cfa_offset 24
	.cfi_offset 4, -24
	pushq	%rbx	 #
	.seh_pushreg	%rbx
	.cfi_def_cfa_offset 32
	.cfi_offset 3, -32
	subq	$48, %rsp	 #,
	.seh_stackalloc	48
	.cfi_def_cfa_offset 80
	leaq	48(%rsp), %rbp	 #,
	.seh_setframe	%rbp, 48
	.cfi_def_cfa 6, 32
	.seh_endprologue
	movq	%rcx, 32(%rbp)	 # __location, __location
	movq	%rdx, 40(%rbp)	 # __args#0, __args#0
 # D:/msys64/ucrt64/include/c++/15.2.0/bits/stl_construct.h:99:       void* __loc = __location;
	.loc 17 99 13
	movq	32(%rbp), %rax	 # __location, tmp105
	movq	%rax, -8(%rbp)	 # tmp105, __loc
 # D:/msys64/ucrt64/include/c++/15.2.0/bits/stl_construct.h:110: 	return ::new(__loc) _Tp(std::forward<_Args>(__args)...);
	.loc 17 110 15
	movq	-8(%rbp), %rsi	 # __loc, _6
 # D:/msys64/ucrt64/include/c++/15.2.0/bits/stl_construct.h:110: 	return ::new(__loc) _Tp(std::forward<_Args>(__args)...);
	.loc 17 110 9
	movq	%rsi, %rdx	 # _6,
	movl	$8, %ecx	 #,
	call	_ZnwyPv	 #
	movq	%rax, %rbx	 #, _9
	movq	40(%rbp), %rax	 # __args#0, tmp106
	movq	%rax, -16(%rbp)	 # tmp106, __t
.LBB652:
.LBB653:
 # D:/msys64/ucrt64/include/c++/15.2.0/bits/move.h:73:     { return static_cast<_Tp&&>(__t); }
	.loc 12 73 36
	movq	-16(%rbp), %rax	 # __t, D.107958
.LBE653:
.LBE652:
 # D:/msys64/ucrt64/include/c++/15.2.0/bits/stl_construct.h:110: 	return ::new(__loc) _Tp(std::forward<_Args>(__args)...);
	.loc 17 110 9 discriminator 2
	movsd	(%rax), %xmm0	 # *_1, _2
	movsd	%xmm0, (%rbx)	 # _2, MEM[(double *)_9]
 # D:/msys64/ucrt64/include/c++/15.2.0/bits/stl_construct.h:110: 	return ::new(__loc) _Tp(std::forward<_Args>(__args)...);
	.loc 17 110 56 discriminator 2
	movl	$0, %eax	 #, _13
 # D:/msys64/ucrt64/include/c++/15.2.0/bits/stl_construct.h:110: 	return ::new(__loc) _Tp(std::forward<_Args>(__args)...);
	.loc 17 110 56 is_stmt 0 discriminator 3
	testb	%al, %al	 # _13
	je	.L339	 #,
 # D:/msys64/ucrt64/include/c++/15.2.0/bits/stl_construct.h:110: 	return ::new(__loc) _Tp(std::forward<_Args>(__args)...);
	.loc 17 110 9 is_stmt 1 discriminator 4
	movq	%rsi, %rdx	 # _6,
	movq	%rbx, %rcx	 # _9,
	call	_ZdlPvS_	 #
.L339:
 # D:/msys64/ucrt64/include/c++/15.2.0/bits/stl_construct.h:110: 	return ::new(__loc) _Tp(std::forward<_Args>(__args)...);
	.loc 17 110 56 discriminator 8
	movq	%rbx, %rax	 # _9, <retval>
 # D:/msys64/ucrt64/include/c++/15.2.0/bits/stl_construct.h:111:     }
	.loc 17 111 5
	addq	$48, %rsp	 #,
	popq	%rbx	 #
	.cfi_restore 3
	popq	%rsi	 #
	.cfi_restore 4
	popq	%rbp	 #
	.cfi_restore 6
	.cfi_def_cfa 7, -24
	ret	
	.cfi_endproc
.LFE5938:
	.seh_endproc
	.weak	_ZSt12construct_atIdJdEEPT_S1_DpOT0_
	.def	_ZSt12construct_atIdJdEEPT_S1_DpOT0_;	.scl	2;	.type	32;	.endef
	.set	_ZSt12construct_atIdJdEEPT_S1_DpOT0_,_ZSt12construct_atIdJdEQaant20is_unbounded_array_vIT_ErqXgsnwcvPvLi0E_S0_pispcl7declvalIT0_EEEEEPS0_S3_DpOS2_
	.section .rdata,"dr"
	.align 8
.LC1:
	.long	0
	.long	1072693248
	.align 16
.LC2:
	.long	0
	.long	-2147483648
	.long	0
	.long	0
	.text
.Letext0:
	.file 21 "D:/msys64/ucrt64/include/c++/15.2.0/bits/utility.h"
	.file 22 "D:/msys64/ucrt64/include/c++/15.2.0/concepts"
	.file 23 "D:/msys64/ucrt64/include/c++/15.2.0/bits/iterator_concepts.h"
	.file 24 "D:/msys64/ucrt64/include/c++/15.2.0/compare"
	.file 25 "D:/msys64/ucrt64/include/c++/15.2.0/debug/debug.h"
	.file 26 "D:/msys64/ucrt64/include/c++/15.2.0/numbers"
	.file 27 "D:/msys64/ucrt64/include/c++/15.2.0/bits/memory_resource.h"
	.file 28 "D:/msys64/ucrt64/include/c++/15.2.0/bits/exception_ptr.h"
	.file 29 "D:/msys64/ucrt64/include/c++/15.2.0/cstddef"
	.file 30 "D:/msys64/ucrt64/include/c++/15.2.0/cwchar"
	.file 31 "D:/msys64/ucrt64/include/c++/15.2.0/clocale"
	.file 32 "D:/msys64/ucrt64/include/c++/15.2.0/cstdlib"
	.file 33 "D:/msys64/ucrt64/include/c++/15.2.0/cstdio"
	.file 34 "D:/msys64/ucrt64/include/c++/15.2.0/system_error"
	.file 35 "D:/msys64/ucrt64/include/c++/15.2.0/cwctype"
	.file 36 "D:/msys64/ucrt64/include/c++/15.2.0/initializer_list"
	.file 37 "D:/msys64/ucrt64/include/c++/15.2.0/bits/shared_ptr_base.h"
	.file 38 "D:/msys64/ucrt64/include/c++/15.2.0/cstdint"
	.file 39 "D:/msys64/ucrt64/include/c++/15.2.0/cmath"
	.file 40 "D:/msys64/ucrt64/include/c++/15.2.0/bits/functexcept.h"
	.file 41 "D:/msys64/ucrt64/include/c++/15.2.0/bits/predefined_ops.h"
	.file 42 "D:/msys64/ucrt64/include/c++/15.2.0/ext/type_traits.h"
	.file 43 "D:/msys64/ucrt64/include/c++/15.2.0/bits/ptr_traits.h"
	.file 44 "D:/msys64/ucrt64/include/corecrt.h"
	.file 45 "D:/msys64/ucrt64/include/stddef.h"
	.file 46 "D:/msys64/ucrt64/include/wchar.h"
	.file 47 "D:/msys64/ucrt64/include/swprintf.inl"
	.file 48 "D:/msys64/ucrt64/include/stdio.h"
	.file 49 "D:/msys64/ucrt64/include/locale.h"
	.file 50 "D:/msys64/ucrt64/include/stdlib.h"
	.file 51 "D:/msys64/ucrt64/include/wctype.h"
	.file 52 "D:/msys64/ucrt64/include/corecrt_wctype.h"
	.file 53 "D:/msys64/ucrt64/include/stdint.h"
	.file 54 "D:/msys64/ucrt64/include/c++/15.2.0/pstl/execution_defs.h"
	.file 55 "E:/Projects/Simulation_Projects/cva_cpp/includes_hpp/instruments/instrument.hpp"
	.file 56 "D:/msys64/ucrt64/include/math.h"
	.file 57 "D:/msys64/ucrt64/include/c++/15.2.0/ext/concurrence.h"