	.file	"random.cpp"
 # GNU C++20 (Rev8, Built by MSYS2 project) version 15.2.0 (x86_64-w64-mingw32)
 #	compiled by GNU C version 15.2.0, GMP version 6.3.0, MPFR version 4.2.2, MPC version 1.3.1, isl version isl-0.27-GMP

 # GGC heuristics: --param ggc-min-expand=100 --param ggc-min-heapsize=131072
 # options passed: -mtune=generic -march=nocona -g -std=c++20
	.text
.Ltext0:
	.cfi_sections	.debug_frame
	.file 0 "E://Projects//Simulation_Projects//cva_cpp//build" "E:/Projects/Simulation_Projects/cva_cpp/src_cpp/math/random.cpp"
	.section	.text$_ZSt3loge,"x"
	.linkonce discard
	.globl	_ZSt3loge
	.def	_ZSt3loge;	.scl	2;	.type	32;	.endef
	.seh_proc	_ZSt3loge
_ZSt3loge:
.LFB89:
	.file 1 "D:/msys64/ucrt64/include/c++/15.2.0/cmath"
	.loc 1 338 3
	.cfi_startproc
	pushq	%rbp	 #
	.seh_pushreg	%rbp
	.cfi_def_cfa_offset 16
	.cfi_offset 6, -16
	pushq	%rbx	 #
	.seh_pushreg	%rbx
	.cfi_def_cfa_offset 24
	.cfi_offset 3, -24
	subq	$88, %rsp	 #,
	.seh_stackalloc	88
	.cfi_def_cfa_offset 112
	leaq	80(%rsp), %rbp	 #,
	.seh_setframe	%rbp, 80
	.cfi_def_cfa 6, 32
	.seh_endprologue
	movq	%rcx, 32(%rbp)	 # .result_ptr, .result_ptr
	movq	%rdx, %rbx	 #, tmp99
	fldt	(%rbx)	 # __x
	fstpt	-16(%rbp)	 # __x
 # D:/msys64/ucrt64/include/c++/15.2.0/cmath:338:   { return __builtin_logl(__x); }
	.loc 1 338 26
	leaq	-32(%rbp), %rax	 #, tmp101
	fldt	-16(%rbp)	 # __x
	fstpt	-48(%rbp)	 #
	leaq	-48(%rbp), %rdx	 #, tmp103
	movq	%rax, %rcx	 # tmp101,
	call	logl	 #
	fldt	-32(%rbp)	 #
 # D:/msys64/ucrt64/include/c++/15.2.0/cmath:338:   { return __builtin_logl(__x); }
	.loc 1 338 30 discriminator 1
	movq	32(%rbp), %rax	 # .result_ptr, tmp104
	fstpt	(%rax)	 # <retval>
 # D:/msys64/ucrt64/include/c++/15.2.0/cmath:338:   { return __builtin_logl(__x); }
	.loc 1 338 33
	movq	32(%rbp), %rax	 # .result_ptr,
	addq	$88, %rsp	 #,
	popq	%rbx	 #
	.cfi_restore 3
	popq	%rbp	 #
	.cfi_restore 6
	.cfi_def_cfa 7, -72
	ret	
	.cfi_endproc
.LFE89:
	.seh_endproc
	.section	.text$_ZNK3cva4math6Matrix4rowsEv,"x"
	.linkonce discard
	.align 2
	.globl	_ZNK3cva4math6Matrix4rowsEv
	.def	_ZNK3cva4math6Matrix4rowsEv;	.scl	2;	.type	32;	.endef
	.seh_proc	_ZNK3cva4math6Matrix4rowsEv
_ZNK3cva4math6Matrix4rowsEv:
.LFB4830:
	.file 2 "E:/Projects/Simulation_Projects/cva_cpp/includes_hpp/math/matrix.hpp"
	.loc 2 18 30
	.cfi_startproc
	pushq	%rbp	 #
	.seh_pushreg	%rbp
	.cfi_def_cfa_offset 16
	.cfi_offset 6, -16
	movq	%rsp, %rbp	 #,
	.seh_setframe	%rbp, 0
	.cfi_def_cfa_register 6
	.seh_endprologue
	movq	%rcx, 16(%rbp)	 # this, this
 # E:/Projects/Simulation_Projects/cva_cpp/includes_hpp/math/matrix.hpp:18:         [[nodiscard]] size_t rows() const { return rows_; }
	.loc 2 18 52
	movq	16(%rbp), %rax	 # this, tmp100
	movq	(%rax), %rax	 # this_2(D)->rows_, _3
 # E:/Projects/Simulation_Projects/cva_cpp/includes_hpp/math/matrix.hpp:18:         [[nodiscard]] size_t rows() const { return rows_; }
	.loc 2 18 59
	popq	%rbp	 #
	.cfi_restore 6
	.cfi_def_cfa 7, 8
	ret	
	.cfi_endproc
.LFE4830:
	.seh_endproc
	.section	.text$_ZNK3cva4math6Matrix4colsEv,"x"
	.linkonce discard
	.align 2
	.globl	_ZNK3cva4math6Matrix4colsEv
	.def	_ZNK3cva4math6Matrix4colsEv;	.scl	2;	.type	32;	.endef
	.seh_proc	_ZNK3cva4math6Matrix4colsEv
_ZNK3cva4math6Matrix4colsEv:
.LFB4831:
	.loc 2 19 30
	.cfi_startproc
	pushq	%rbp	 #
	.seh_pushreg	%rbp
	.cfi_def_cfa_offset 16
	.cfi_offset 6, -16
	movq	%rsp, %rbp	 #,
	.seh_setframe	%rbp, 0
	.cfi_def_cfa_register 6
	.seh_endprologue
	movq	%rcx, 16(%rbp)	 # this, this
 # E:/Projects/Simulation_Projects/cva_cpp/includes_hpp/math/matrix.hpp:19:         [[nodiscard]] size_t cols() const { return cols_; }
	.loc 2 19 52
	movq	16(%rbp), %rax	 # this, tmp100
	movq	8(%rax), %rax	 # this_2(D)->cols_, _3
 # E:/Projects/Simulation_Projects/cva_cpp/includes_hpp/math/matrix.hpp:19:         [[nodiscard]] size_t cols() const { return cols_; }
	.loc 2 19 59
	popq	%rbp	 #
	.cfi_restore 6
	.cfi_def_cfa 7, 8
	ret	
	.cfi_endproc
.LFE4831:
	.seh_endproc
	.section	.text$_ZN3cva4math6Matrix4dataEv,"x"
	.linkonce discard
	.align 2
	.globl	_ZN3cva4math6Matrix4dataEv
	.def	_ZN3cva4math6Matrix4dataEv;	.scl	2;	.type	32;	.endef
	.seh_proc	_ZN3cva4math6Matrix4dataEv
_ZN3cva4math6Matrix4dataEv:
.LFB4834:
	.loc 2 31 17
	.cfi_startproc
	pushq	%rbp	 #
	.seh_pushreg	%rbp
	.cfi_def_cfa_offset 16
	.cfi_offset 6, -16
	movq	%rsp, %rbp	 #,
	.seh_setframe	%rbp, 0
	.cfi_def_cfa_register 6
	subq	$32, %rsp	 #,
	.seh_stackalloc	32
	.seh_endprologue
	movq	%rcx, 16(%rbp)	 # this, this
 # E:/Projects/Simulation_Projects/cva_cpp/includes_hpp/math/matrix.hpp:31:         double* data() { return data_.data(); }
	.loc 2 31 43
	movq	16(%rbp), %rax	 # this, tmp101
	addq	$16, %rax	 #, _1
	movq	%rax, %rcx	 # _1,
	call	_ZNSt6vectorIdSaIdEE4dataEv	 #
 # E:/Projects/Simulation_Projects/cva_cpp/includes_hpp/math/matrix.hpp:31:         double* data() { return data_.data(); }
	.loc 2 31 47
	addq	$32, %rsp	 #,
	popq	%rbp	 #
	.cfi_restore 6
	.cfi_def_cfa 7, 8
	ret	
	.cfi_endproc
.LFE4834:
	.seh_endproc
	.text
	.align 2
	.globl	_ZN3cva4math15RandomGeneratorC2Em
	.def	_ZN3cva4math15RandomGeneratorC2Em;	.scl	2;	.type	32;	.endef
	.seh_proc	_ZN3cva4math15RandomGeneratorC2Em
_ZN3cva4math15RandomGeneratorC2Em:
.LFB4838:
	.file 3 "E:/Projects/Simulation_Projects/cva_cpp/src_cpp/math/random.cpp"
	.loc 3 5 5
	.cfi_startproc
	pushq	%rbp	 #
	.seh_pushreg	%rbp
	.cfi_def_cfa_offset 16
	.cfi_offset 6, -16
	movq	%rsp, %rbp	 #,
	.seh_setframe	%rbp, 0
	.cfi_def_cfa_register 6
	subq	$32, %rsp	 #,
	.seh_stackalloc	32
	.seh_endprologue
	movq	%rcx, 16(%rbp)	 # this, this
	movl	%edx, 24(%rbp)	 # seed, seed
.LBB25:
 # E:\Projects\Simulation_Projects\cva_cpp\src_cpp\math\random.cpp:6:         : engine_(seed), normal_dist_(0.0, 1.0) {}
	.loc 3 6 11
	movq	16(%rbp), %rax	 # this, _1
	movl	24(%rbp), %edx	 # seed, _2
	movq	%rax, %rcx	 # _1,
	call	_ZNSt23mersenne_twister_engineIyLy64ELy312ELy156ELy31ELy13043109905998158313ELy29ELy6148914691236517205ELy17ELy8202884508482404352ELy37ELy18444473444759240704ELy43ELy6364136223846793005EEC1Ey	 #
 # E:\Projects\Simulation_Projects\cva_cpp\src_cpp\math\random.cpp:6:         : engine_(seed), normal_dist_(0.0, 1.0) {}
	.loc 3 6 26 discriminator 1
	movq	16(%rbp), %rax	 # this, tmp101
	addq	$2504, %rax	 #, _3
	movsd	.LC1(%rip), %xmm0	 #, tmp102
	movapd	%xmm0, %xmm2	 # tmp102,
	pxor	%xmm1, %xmm1	 #
	movq	%rax, %rcx	 # _3,
	call	_ZNSt19normal_distributionIdEC1Edd	 #
.LBE25:
 # E:\Projects\Simulation_Projects\cva_cpp\src_cpp\math\random.cpp:6:         : engine_(seed), normal_dist_(0.0, 1.0) {}
	.loc 3 6 50
	nop	
	addq	$32, %rsp	 #,
	popq	%rbp	 #
	.cfi_restore 6
	.cfi_def_cfa 7, 8
	ret	
	.cfi_endproc
.LFE4838:
	.seh_endproc
	.globl	_ZN3cva4math15RandomGeneratorC1Em
	.def	_ZN3cva4math15RandomGeneratorC1Em;	.scl	2;	.type	32;	.endef
	.set	_ZN3cva4math15RandomGeneratorC1Em,_ZN3cva4math15RandomGeneratorC2Em
	.align 2
	.globl	_ZN3cva4math15RandomGenerator24generate_standard_normalERNS0_6MatrixE
	.def	_ZN3cva4math15RandomGenerator24generate_standard_normalERNS0_6MatrixE;	.scl	2;	.type	32;	.endef
	.seh_proc	_ZN3cva4math15RandomGenerator24generate_standard_normalERNS0_6MatrixE
_ZN3cva4math15RandomGenerator24generate_standard_normalERNS0_6MatrixE:
.LFB4840:
	.loc 3 8 68
	.cfi_startproc
	pushq	%rbp	 #
	.seh_pushreg	%rbp
	.cfi_def_cfa_offset 16
	.cfi_offset 6, -16
	pushq	%rbx	 #
	.seh_pushreg	%rbx
	.cfi_def_cfa_offset 24
	.cfi_offset 3, -24
	subq	$72, %rsp	 #,
	.seh_stackalloc	72
	.cfi_def_cfa_offset 96
	leaq	64(%rsp), %rbp	 #,
	.seh_setframe	%rbp, 64
	.cfi_def_cfa 6, 32
	.seh_endprologue
	movq	%rcx, 32(%rbp)	 # this, this
	movq	%rdx, 40(%rbp)	 # matrix, matrix
 # E:\Projects\Simulation_Projects\cva_cpp\src_cpp\math\random.cpp:9:         size_t total_size = matrix.rows() * matrix.cols();
	.loc 3 9 40
	movq	40(%rbp), %rax	 # matrix, tmp105
	movq	%rax, %rcx	 # tmp105,
	call	_ZNK3cva4math6Matrix4rowsEv	 #
	movq	%rax, %rbx	 #, _1
 # E:\Projects\Simulation_Projects\cva_cpp\src_cpp\math\random.cpp:9:         size_t total_size = matrix.rows() * matrix.cols();
	.loc 3 9 56 discriminator 1
	movq	40(%rbp), %rax	 # matrix, tmp106
	movq	%rax, %rcx	 # tmp106,
	call	_ZNK3cva4math6Matrix4colsEv	 #
 # E:\Projects\Simulation_Projects\cva_cpp\src_cpp\math\random.cpp:9:         size_t total_size = matrix.rows() * matrix.cols();
	.loc 3 9 57 discriminator 2
	imulq	%rbx, %rax	 # _1, total_size_14
	movq	%rax, -16(%rbp)	 # total_size_14, total_size
 # E:\Projects\Simulation_Projects\cva_cpp\src_cpp\math\random.cpp:12:         double* ptr = matrix.data();
	.loc 3 12 34
	movq	40(%rbp), %rax	 # matrix, tmp108
	movq	%rax, %rcx	 # tmp108,
	call	_ZN3cva4math6Matrix4dataEv	 #
	movq	%rax, -24(%rbp)	 # tmp109, ptr
.LBB26:
 # E:\Projects\Simulation_Projects\cva_cpp\src_cpp\math\random.cpp:13:         for (size_t i = 0; i < total_size; ++i) {
	.loc 3 13 21
	movq	$0, -8(%rbp)	 #, i
 # E:\Projects\Simulation_Projects\cva_cpp\src_cpp\math\random.cpp:13:         for (size_t i = 0; i < total_size; ++i) {
	.loc 3 13 9
	jmp	.L11	 #
.L12:
 # E:\Projects\Simulation_Projects\cva_cpp\src_cpp\math\random.cpp:14:             ptr[i] = normal_dist_(engine_);
	.loc 3 14 34
	movq	32(%rbp), %rax	 # this, tmp110
	leaq	2504(%rax), %rcx	 #, _3
 # E:\Projects\Simulation_Projects\cva_cpp\src_cpp\math\random.cpp:14:             ptr[i] = normal_dist_(engine_);
	.loc 3 14 35
	movq	32(%rbp), %rax	 # this, _4
 # E:\Projects\Simulation_Projects\cva_cpp\src_cpp\math\random.cpp:14:             ptr[i] = normal_dist_(engine_);
	.loc 3 14 18
	movq	-8(%rbp), %rdx	 # i, tmp111
	leaq	0(,%rdx,8), %r8	 #, _5
	movq	-24(%rbp), %rdx	 # ptr, tmp112
	leaq	(%r8,%rdx), %rbx	 #, _6
 # E:\Projects\Simulation_Projects\cva_cpp\src_cpp\math\random.cpp:14:             ptr[i] = normal_dist_(engine_);
	.loc 3 14 34
	movq	%rax, %rdx	 # _4,
	call	_ZNSt19normal_distributionIdEclISt23mersenne_twister_engineIyLy64ELy312ELy156ELy31ELy13043109905998158313ELy29ELy6148914691236517205ELy17ELy8202884508482404352ELy37ELy18444473444759240704ELy43ELy6364136223846793005EEEEdRT_	 #
	movq	%xmm0, %rax	 #, _7
 # E:\Projects\Simulation_Projects\cva_cpp\src_cpp\math\random.cpp:14:             ptr[i] = normal_dist_(engine_);
	.loc 3 14 20 discriminator 1
	movq	%rax, (%rbx)	 # _7, *_6
 # E:\Projects\Simulation_Projects\cva_cpp\src_cpp\math\random.cpp:13:         for (size_t i = 0; i < total_size; ++i) {
	.loc 3 13 9 discriminator 3
	addq	$1, -8(%rbp)	 #, i
.L11:
 # E:\Projects\Simulation_Projects\cva_cpp\src_cpp\math\random.cpp:13:         for (size_t i = 0; i < total_size; ++i) {
	.loc 3 13 30 discriminator 1
	movq	-8(%rbp), %rax	 # i, tmp113
	cmpq	-16(%rbp), %rax	 # total_size, tmp113
	jb	.L12	 #,
.LBE26:
 # E:\Projects\Simulation_Projects\cva_cpp\src_cpp\math\random.cpp:16:     }
	.loc 3 16 5
	nop	
	nop	
	addq	$72, %rsp	 #,
	popq	%rbx	 #
	.cfi_restore 3
	popq	%rbp	 #
	.cfi_restore 6
	.cfi_def_cfa 7, -56
	ret	
	.cfi_endproc
.LFE4840:
	.seh_endproc
	.align 2
	.globl	_ZN3cva4math15RandomGenerator24generate_standard_normalESt4spanIdLy18446744073709551615EE
	.def	_ZN3cva4math15RandomGenerator24generate_standard_normalESt4spanIdLy18446744073709551615EE;	.scl	2;	.type	32;	.endef
	.seh_proc	_ZN3cva4math15RandomGenerator24generate_standard_normalESt4spanIdLy18446744073709551615EE
_ZN3cva4math15RandomGenerator24generate_standard_normalESt4spanIdLy18446744073709551615EE:
.LFB4841:
	.loc 3 18 76
	.cfi_startproc
	pushq	%rbp	 #
	.seh_pushreg	%rbp
	.cfi_def_cfa_offset 16
	.cfi_offset 6, -16
	pushq	%rbx	 #
	.seh_pushreg	%rbx
	.cfi_def_cfa_offset 24
	.cfi_offset 3, -24
	subq	$104, %rsp	 #,
	.seh_stackalloc	104
	.cfi_def_cfa_offset 128
	leaq	96(%rsp), %rbp	 #,
	.seh_setframe	%rbp, 96
	.cfi_def_cfa 6, 32
	.seh_endprologue
	movq	%rcx, 32(%rbp)	 # this, this
	movq	%rdx, %rbx	 #, tmp111
	movq	(%rbx), %rax	 # data, tmp112
	movq	8(%rbx), %rdx	 # data,
	movq	%rax, -64(%rbp)	 # tmp112, data
	movq	%rdx, -56(%rbp)	 #, data
.LBB27:
 # E:\Projects\Simulation_Projects\cva_cpp\src_cpp\math\random.cpp:19:          for (auto& val : data) {
	.loc 3 19 27
	leaq	-64(%rbp), %rax	 #, tmp113
	movq	%rax, -8(%rbp)	 # tmp113, __for_range
	movq	-8(%rbp), %rax	 # __for_range, tmp114
	movq	%rax, %rcx	 # tmp114,
	call	_ZNKSt4spanIdLy18446744073709551615EE5beginEv	 #
	movq	%rax, -40(%rbp)	 # tmp116, __for_begin
 # E:\Projects\Simulation_Projects\cva_cpp\src_cpp\math\random.cpp:19:          for (auto& val : data) {
	.loc 3 19 27 is_stmt 0 discriminator 1
	movq	-8(%rbp), %rax	 # __for_range, tmp117
	movq	%rax, %rcx	 # tmp117,
	call	_ZNKSt4spanIdLy18446744073709551615EE3endEv	 #
	movq	%rax, -48(%rbp)	 # tmp119, __for_end
 # E:\Projects\Simulation_Projects\cva_cpp\src_cpp\math\random.cpp:19:          for (auto& val : data) {
	.loc 3 19 10 is_stmt 1
	jmp	.L14	 #
.L20:
.LBB28:
.LBB29:
 # D:/msys64/ucrt64/include/c++/15.2.0/bits/stl_iterator.h:1090:       { return *_M_current; }
	.file 4 "D:/msys64/ucrt64/include/c++/15.2.0/bits/stl_iterator.h"
	.loc 4 1090 17
	movq	-40(%rbp), %rax	 # __for_begin._M_current, D.96140
.LBE29:
.LBE28:
 # E:\Projects\Simulation_Projects\cva_cpp\src_cpp\math\random.cpp:19:          for (auto& val : data) {
	.loc 3 19 27 discriminator 8
	movq	%rax, -16(%rbp)	 # D.96140, val
 # E:\Projects\Simulation_Projects\cva_cpp\src_cpp\math\random.cpp:20:              val = normal_dist_(engine_);
	.loc 3 20 32
	movq	32(%rbp), %rax	 # this, tmp120
	leaq	2504(%rax), %rcx	 #, _1
 # E:\Projects\Simulation_Projects\cva_cpp\src_cpp\math\random.cpp:20:              val = normal_dist_(engine_);
	.loc 3 20 33
	movq	32(%rbp), %rax	 # this, _2
 # E:\Projects\Simulation_Projects\cva_cpp\src_cpp\math\random.cpp:20:              val = normal_dist_(engine_);
	.loc 3 20 32
	movq	%rax, %rdx	 # _2,
	call	_ZNSt19normal_distributionIdEclISt23mersenne_twister_engineIyLy64ELy312ELy156ELy31ELy13043109905998158313ELy29ELy6148914691236517205ELy17ELy8202884508482404352ELy37ELy18444473444759240704ELy43ELy6364136223846793005EEEEdRT_	 #
	movq	%xmm0, %rax	 #, _3
 # E:\Projects\Simulation_Projects\cva_cpp\src_cpp\math\random.cpp:20:              val = normal_dist_(engine_);
	.loc 3 20 18 discriminator 2
	movq	-16(%rbp), %rdx	 # val, tmp121
	movq	%rax, (%rdx)	 # _3, *val_13
.LBB30:
.LBB31:
 # D:/msys64/ucrt64/include/c++/15.2.0/bits/stl_iterator.h:1103: 	++_M_current;
	.loc 4 1103 4
	movq	-40(%rbp), %rax	 # __for_begin._M_current, _21
 # D:/msys64/ucrt64/include/c++/15.2.0/bits/stl_iterator.h:1103: 	++_M_current;
	.loc 4 1103 2
	addq	$8, %rax	 #, _22
	movq	%rax, -40(%rbp)	 # _22, __for_begin._M_current
 # D:/msys64/ucrt64/include/c++/15.2.0/bits/stl_iterator.h:1104: 	return *this;
	.loc 4 1104 10
	nop	
.L14:
	leaq	-40(%rbp), %rax	 #, tmp122
	movq	%rax, -24(%rbp)	 # tmp122, this
.LBE31:
.LBE30:
.LBB32:
.LBB33:
.LBB34:
.LBB35:
 # D:/msys64/ucrt64/include/c++/15.2.0/bits/stl_iterator.h:1166:       { return _M_current; }
	.loc 4 1166 16
	movq	-24(%rbp), %rax	 # this, _25
.LBE35:
.LBE34:
 # D:/msys64/ucrt64/include/c++/15.2.0/bits/stl_iterator.h:1206:     { return __lhs.base() == __rhs.base(); }
	.loc 4 1206 27 discriminator 1
	movq	(%rax), %rdx	 # *_27, _28
	leaq	-48(%rbp), %rax	 #, tmp123
	movq	%rax, -32(%rbp)	 # tmp123, this
.LBB36:
.LBB37:
 # D:/msys64/ucrt64/include/c++/15.2.0/bits/stl_iterator.h:1166:       { return _M_current; }
	.loc 4 1166 16
	movq	-32(%rbp), %rax	 # this, _30
.LBE37:
.LBE36:
 # D:/msys64/ucrt64/include/c++/15.2.0/bits/stl_iterator.h:1206:     { return __lhs.base() == __rhs.base(); }
	.loc 4 1206 27 discriminator 2
	movq	(%rax), %rax	 # *_32, _33
 # D:/msys64/ucrt64/include/c++/15.2.0/bits/stl_iterator.h:1206:     { return __lhs.base() == __rhs.base(); }
	.loc 4 1206 41 discriminator 2
	cmpq	%rax, %rdx	 # _33, _28
	sete	%al	 #, D.96153
.LBE33:
.LBE32:
 # E:\Projects\Simulation_Projects\cva_cpp\src_cpp\math\random.cpp:19:          for (auto& val : data) {
	.loc 3 19 27 discriminator 7
	xorl	$1, %eax	 #, retval.3_10
	testb	%al, %al	 # retval.3_10
	jne	.L20	 #,
.LBE27:
 # E:\Projects\Simulation_Projects\cva_cpp\src_cpp\math\random.cpp:22:     }
	.loc 3 22 5
	nop	
	nop	
	addq	$104, %rsp	 #,
	popq	%rbx	 #
	.cfi_restore 3
	popq	%rbp	 #
	.cfi_restore 6
	.cfi_def_cfa 7, -88
	ret	
	.cfi_endproc
.LFE4841:
	.seh_endproc
	.section	.text$_ZNSt6vectorIdSaIdEE4dataEv,"x"
	.linkonce discard
	.align 2
	.globl	_ZNSt6vectorIdSaIdEE4dataEv
	.def	_ZNSt6vectorIdSaIdEE4dataEv;	.scl	2;	.type	32;	.endef
	.seh_proc	_ZNSt6vectorIdSaIdEE4dataEv
_ZNSt6vectorIdSaIdEE4dataEv:
.LFB5224:
	.file 5 "D:/msys64/ucrt64/include/c++/15.2.0/bits/stl_vector.h"
	.loc 5 1395 7
	.cfi_startproc
	pushq	%rbp	 #
	.seh_pushreg	%rbp
	.cfi_def_cfa_offset 16
	.cfi_offset 6, -16
	movq	%rsp, %rbp	 #,
	.seh_setframe	%rbp, 0
	.cfi_def_cfa_register 6
	subq	$32, %rsp	 #,
	.seh_stackalloc	32
	.seh_endprologue
	movq	%rcx, 16(%rbp)	 # this, this
 # D:/msys64/ucrt64/include/c++/15.2.0/bits/stl_vector.h:1396:       { return _M_data_ptr(this->_M_impl._M_start); }
	.loc 5 1396 42
	movq	16(%rbp), %rax	 # this, tmp101
	movq	(%rax), %rdx	 # this_3(D)->D.64562._M_impl.D.63868._M_start, _1
 # D:/msys64/ucrt64/include/c++/15.2.0/bits/stl_vector.h:1396:       { return _M_data_ptr(this->_M_impl._M_start); }
	.loc 5 1396 27
	movq	16(%rbp), %rax	 # this, tmp102
	movq	%rax, %rcx	 # tmp102,
	call	_ZNKSt6vectorIdSaIdEE11_M_data_ptrIdEEPT_S4_	 #
 # D:/msys64/ucrt64/include/c++/15.2.0/bits/stl_vector.h:1396:       { return _M_data_ptr(this->_M_impl._M_start); }
	.loc 5 1396 53
	addq	$32, %rsp	 #,
	popq	%rbp	 #
	.cfi_restore 6
	.cfi_def_cfa 7, 8
	ret	
	.cfi_endproc
.LFE5224:
	.seh_endproc
	.section	.text$_ZNSt23mersenne_twister_engineIyLy64ELy312ELy156ELy31ELy13043109905998158313ELy29ELy6148914691236517205ELy17ELy8202884508482404352ELy37ELy18444473444759240704ELy43ELy6364136223846793005EEC1Ey,"x"
	.linkonce discard
	.align 2
	.globl	_ZNSt23mersenne_twister_engineIyLy64ELy312ELy156ELy31ELy13043109905998158313ELy29ELy6148914691236517205ELy17ELy8202884508482404352ELy37ELy18444473444759240704ELy43ELy6364136223846793005EEC1Ey
	.def	_ZNSt23mersenne_twister_engineIyLy64ELy312ELy156ELy31ELy13043109905998158313ELy29ELy6148914691236517205ELy17ELy8202884508482404352ELy37ELy18444473444759240704ELy43ELy6364136223846793005EEC1Ey;	.scl	2;	.type	32;	.endef
	.seh_proc	_ZNSt23mersenne_twister_engineIyLy64ELy312ELy156ELy31ELy13043109905998158313ELy29ELy6148914691236517205ELy17ELy8202884508482404352ELy37ELy18444473444759240704ELy43ELy6364136223846793005EEC1Ey
_ZNSt23mersenne_twister_engineIyLy64ELy312ELy156ELy31ELy13043109905998158313ELy29ELy6148914691236517205ELy17ELy8202884508482404352ELy37ELy18444473444759240704ELy43ELy6364136223846793005EEC1Ey:
.LFB5229:
	.file 6 "D:/msys64/ucrt64/include/c++/15.2.0/bits/random.h"
	.loc 6 647 7
	.cfi_startproc
	pushq	%rbp	 #
	.seh_pushreg	%rbp
	.cfi_def_cfa_offset 16
	.cfi_offset 6, -16
	movq	%rsp, %rbp	 #,
	.seh_setframe	%rbp, 0
	.cfi_def_cfa_register 6
	subq	$32, %rsp	 #,
	.seh_stackalloc	32
	.seh_endprologue
	movq	%rcx, 16(%rbp)	 # this, this
	movq	%rdx, 24(%rbp)	 # __sd, __sd
.LBB38:
 # D:/msys64/ucrt64/include/c++/15.2.0/bits/random.h:648:       { seed(__sd); }
	.loc 6 648 13
	movq	24(%rbp), %rdx	 # __sd, tmp98
	movq	16(%rbp), %rax	 # this, tmp99
	movq	%rax, %rcx	 # tmp99,
	call	_ZNSt23mersenne_twister_engineIyLy64ELy312ELy156ELy31ELy13043109905998158313ELy29ELy6148914691236517205ELy17ELy8202884508482404352ELy37ELy18444473444759240704ELy43ELy6364136223846793005EE4seedEy	 #
.LBE38:
 # D:/msys64/ucrt64/include/c++/15.2.0/bits/random.h:648:       { seed(__sd); }
	.loc 6 648 21
	nop	
	addq	$32, %rsp	 #,
	popq	%rbp	 #
	.cfi_restore 6
	.cfi_def_cfa 7, 8
	ret	
	.cfi_endproc
.LFE5229:
	.seh_endproc
	.section	.text$_ZNSt19normal_distributionIdEC1Edd,"x"
	.linkonce discard
	.align 2
	.globl	_ZNSt19normal_distributionIdEC1Edd
	.def	_ZNSt19normal_distributionIdEC1Edd;	.scl	2;	.type	32;	.endef
	.seh_proc	_ZNSt19normal_distributionIdEC1Edd
_ZNSt19normal_distributionIdEC1Edd:
.LFB5232:
	.loc 6 2173 7
	.cfi_startproc
	pushq	%rbp	 #
	.seh_pushreg	%rbp
	.cfi_def_cfa_offset 16
	.cfi_offset 6, -16
	movq	%rsp, %rbp	 #,
	.seh_setframe	%rbp, 0
	.cfi_def_cfa_register 6
	subq	$32, %rsp	 #,
	.seh_stackalloc	32
	.seh_endprologue
	movq	%rcx, 16(%rbp)	 # this, this
	movsd	%xmm1, 24(%rbp)	 # __mean, __mean
	movsd	%xmm2, 32(%rbp)	 # __stddev, __stddev
.LBB39:
 # D:/msys64/ucrt64/include/c++/15.2.0/bits/random.h:2175:       : _M_param(__mean, __stddev)
	.loc 6 2175 9
	movq	16(%rbp), %rax	 # this, _1
	movsd	32(%rbp), %xmm1	 # __stddev, tmp99
	movsd	24(%rbp), %xmm0	 # __mean, tmp100
	movapd	%xmm1, %xmm2	 # tmp99,
	movapd	%xmm0, %xmm1	 # tmp100,
	movq	%rax, %rcx	 # _1,
	call	_ZNSt19normal_distributionIdE10param_typeC1Edd	 #
 # D:/msys64/ucrt64/include/c++/15.2.0/bits/random.h:2175:       : _M_param(__mean, __stddev)
	.loc 6 2175 34 discriminator 1
	movq	16(%rbp), %rax	 # this, tmp101
	pxor	%xmm0, %xmm0	 # tmp102
	movsd	%xmm0, 16(%rax)	 # tmp102, this_3(D)->_M_saved
	movq	16(%rbp), %rax	 # this, tmp103
	movb	$0, 24(%rax)	 #, this_3(D)->_M_saved_available
.LBE39:
 # D:/msys64/ucrt64/include/c++/15.2.0/bits/random.h:2176:       { }
	.loc 6 2176 9
	nop	
	addq	$32, %rsp	 #,
	popq	%rbp	 #
	.cfi_restore 6
	.cfi_def_cfa 7, 8
	ret	
	.cfi_endproc
.LFE5232:
	.seh_endproc
	.section	.text$_ZNSt19normal_distributionIdEclISt23mersenne_twister_engineIyLy64ELy312ELy156ELy31ELy13043109905998158313ELy29ELy6148914691236517205ELy17ELy8202884508482404352ELy37ELy18444473444759240704ELy43ELy6364136223846793005EEEEdRT_,"x"
	.linkonce discard
	.align 2
	.globl	_ZNSt19normal_distributionIdEclISt23mersenne_twister_engineIyLy64ELy312ELy156ELy31ELy13043109905998158313ELy29ELy6148914691236517205ELy17ELy8202884508482404352ELy37ELy18444473444759240704ELy43ELy6364136223846793005EEEEdRT_
	.def	_ZNSt19normal_distributionIdEclISt23mersenne_twister_engineIyLy64ELy312ELy156ELy31ELy13043109905998158313ELy29ELy6148914691236517205ELy17ELy8202884508482404352ELy37ELy18444473444759240704ELy43ELy6364136223846793005EEEEdRT_;	.scl	2;	.type	32;	.endef
	.seh_proc	_ZNSt19normal_distributionIdEclISt23mersenne_twister_engineIyLy64ELy312ELy156ELy31ELy13043109905998158313ELy29ELy6148914691236517205ELy17ELy8202884508482404352ELy37ELy18444473444759240704ELy43ELy6364136223846793005EEEEdRT_
_ZNSt19normal_distributionIdEclISt23mersenne_twister_engineIyLy64ELy312ELy156ELy31ELy13043109905998158313ELy29ELy6148914691236517205ELy17ELy8202884508482404352ELy37ELy18444473444759240704ELy43ELy6364136223846793005EEEEdRT_:
.LFB5233:
	.loc 6 2238 2
	.cfi_startproc
	pushq	%rbp	 #
	.seh_pushreg	%rbp
	.cfi_def_cfa_offset 16
	.cfi_offset 6, -16
	movq	%rsp, %rbp	 #,
	.seh_setframe	%rbp, 0
	.cfi_def_cfa_register 6
	subq	$32, %rsp	 #,
	.seh_stackalloc	32
	.seh_endprologue
	movq	%rcx, 16(%rbp)	 # this, this
	movq	%rdx, 24(%rbp)	 # __urng, __urng
 # D:/msys64/ucrt64/include/c++/15.2.0/bits/random.h:2239: 	{ return this->operator()(__urng, _M_param); }
	.loc 6 2239 36
	movq	16(%rbp), %rcx	 # this, _1
 # D:/msys64/ucrt64/include/c++/15.2.0/bits/random.h:2239: 	{ return this->operator()(__urng, _M_param); }
	.loc 6 2239 27
	movq	24(%rbp), %rdx	 # __urng, tmp101
	movq	16(%rbp), %rax	 # this, tmp102
	movq	%rcx, %r8	 # _1,
	movq	%rax, %rcx	 # tmp102,
	call	_ZNSt19normal_distributionIdEclISt23mersenne_twister_engineIyLy64ELy312ELy156ELy31ELy13043109905998158313ELy29ELy6148914691236517205ELy17ELy8202884508482404352ELy37ELy18444473444759240704ELy43ELy6364136223846793005EEEEdRT_RKNS0_10param_typeE	 #
 # D:/msys64/ucrt64/include/c++/15.2.0/bits/random.h:2239: 	{ return this->operator()(__urng, _M_param); }
	.loc 6 2239 47
	addq	$32, %rsp	 #,
	popq	%rbp	 #
	.cfi_restore 6
	.cfi_def_cfa 7, 8
	ret	
	.cfi_endproc
.LFE5233:
	.seh_endproc
	.section	.text$_ZNKSt4spanIdLy18446744073709551615EE5beginEv,"x"
	.linkonce discard
	.align 2
	.globl	_ZNKSt4spanIdLy18446744073709551615EE5beginEv
	.def	_ZNKSt4spanIdLy18446744073709551615EE5beginEv;	.scl	2;	.type	32;	.endef
	.seh_proc	_ZNKSt4spanIdLy18446744073709551615EE5beginEv
_ZNKSt4spanIdLy18446744073709551615EE5beginEv:
.LFB5234:
	.file 7 "D:/msys64/ucrt64/include/c++/15.2.0/span"
	.loc 7 327 7
	.cfi_startproc
	pushq	%rbp	 #
	.seh_pushreg	%rbp
	.cfi_def_cfa_offset 16
	.cfi_offset 6, -16
	movq	%rsp, %rbp	 #,
	.seh_setframe	%rbp, 0
	.cfi_def_cfa_register 6
	subq	$16, %rsp	 #,
	.seh_stackalloc	16
	.seh_endprologue
	movq	%rcx, 16(%rbp)	 # this, this
 # D:/msys64/ucrt64/include/c++/15.2.0/span:328:       { return iterator(this->_M_ptr); }
	.loc 7 328 31
	movq	16(%rbp), %rax	 # this, _1
	movq	%rax, -8(%rbp)	 # _1, __i
.LBB40:
.LBB41:
.LBB42:
 # D:/msys64/ucrt64/include/c++/15.2.0/bits/stl_iterator.h:1059:       : _M_current(__i) { }
	.loc 4 1059 9
	movq	-8(%rbp), %rax	 # __i, tmp102
	movq	(%rax), %rax	 # *__i_6, _7
	movq	%rax, -16(%rbp)	 # _7, D.90594._M_current
.LBE42:
 # D:/msys64/ucrt64/include/c++/15.2.0/bits/stl_iterator.h:1059:       : _M_current(__i) { }
	.loc 4 1059 27
	nop	
.LBE41:
.LBE40:
 # D:/msys64/ucrt64/include/c++/15.2.0/span:328:       { return iterator(this->_M_ptr); }
	.loc 7 328 37 discriminator 1
	movq	-16(%rbp), %rax	 # D.90594, D.96030
 # D:/msys64/ucrt64/include/c++/15.2.0/span:328:       { return iterator(this->_M_ptr); }
	.loc 7 328 40
	addq	$16, %rsp	 #,
	popq	%rbp	 #
	.cfi_restore 6
	.cfi_def_cfa 7, 8
	ret	
	.cfi_endproc
.LFE5234:
	.seh_endproc
	.section	.text$_ZNKSt4spanIdLy18446744073709551615EE3endEv,"x"
	.linkonce discard
	.align 2
	.globl	_ZNKSt4spanIdLy18446744073709551615EE3endEv
	.def	_ZNKSt4spanIdLy18446744073709551615EE3endEv;	.scl	2;	.type	32;	.endef
	.seh_proc	_ZNKSt4spanIdLy18446744073709551615EE3endEv
_ZNKSt4spanIdLy18446744073709551615EE3endEv:
.LFB5235:
	.loc 7 332 7
	.cfi_startproc
	pushq	%rbp	 #
	.seh_pushreg	%rbp
	.cfi_def_cfa_offset 16
	.cfi_offset 6, -16
	pushq	%rbx	 #
	.seh_pushreg	%rbx
	.cfi_def_cfa_offset 24
	.cfi_offset 3, -24
	subq	$56, %rsp	 #,
	.seh_stackalloc	56
	.cfi_def_cfa_offset 80
	leaq	48(%rsp), %rbp	 #,
	.seh_setframe	%rbp, 48
	.cfi_def_cfa 6, 32
	.seh_endprologue
	movq	%rcx, 32(%rbp)	 # this, this
 # D:/msys64/ucrt64/include/c++/15.2.0/span:333:       { return iterator(this->_M_ptr + this->size()); }
	.loc 7 333 31
	movq	32(%rbp), %rax	 # this, tmp105
	movq	(%rax), %rbx	 # this_6(D)->_M_ptr, _1
 # D:/msys64/ucrt64/include/c++/15.2.0/span:333:       { return iterator(this->_M_ptr + this->size()); }
	.loc 7 333 50
	movq	32(%rbp), %rax	 # this, tmp106
	movq	%rax, %rcx	 # tmp106,
	call	_ZNKSt4spanIdLy18446744073709551615EE4sizeEv	 #
 # D:/msys64/ucrt64/include/c++/15.2.0/span:333:       { return iterator(this->_M_ptr + this->size()); }
	.loc 7 333 38 discriminator 1
	salq	$3, %rax	 #, _3
	addq	%rbx, %rax	 # _1, _4
	movq	%rax, -8(%rbp)	 # _4, D.90599
.LBB43:
.LBB44:
.LBB45:
 # D:/msys64/ucrt64/include/c++/15.2.0/bits/stl_iterator.h:1059:       : _M_current(__i) { }
	.loc 4 1059 9
	movq	-8(%rbp), %rax	 # D.90599, _12
	movq	%rax, -16(%rbp)	 # _12, D.90600._M_current
.LBE45:
 # D:/msys64/ucrt64/include/c++/15.2.0/bits/stl_iterator.h:1059:       : _M_current(__i) { }
	.loc 4 1059 27
	nop	
.LBE44:
.LBE43:
 # D:/msys64/ucrt64/include/c++/15.2.0/span:333:       { return iterator(this->_M_ptr + this->size()); }
	.loc 7 333 52 discriminator 2
	movq	-16(%rbp), %rax	 # D.90600, D.96033
 # D:/msys64/ucrt64/include/c++/15.2.0/span:333:       { return iterator(this->_M_ptr + this->size()); }
	.loc 7 333 55
	addq	$56, %rsp	 #,
	popq	%rbx	 #
	.cfi_restore 3
	popq	%rbp	 #
	.cfi_restore 6
	.cfi_def_cfa 7, -40
	ret	
	.cfi_endproc
.LFE5235:
	.seh_endproc
	.section	.text$_ZNKSt6vectorIdSaIdEE11_M_data_ptrIdEEPT_S4_,"x"
	.linkonce discard
	.align 2
	.globl	_ZNKSt6vectorIdSaIdEE11_M_data_ptrIdEEPT_S4_
	.def	_ZNKSt6vectorIdSaIdEE11_M_data_ptrIdEEPT_S4_;	.scl	2;	.type	32;	.endef
	.seh_proc	_ZNKSt6vectorIdSaIdEE11_M_data_ptrIdEEPT_S4_
_ZNKSt6vectorIdSaIdEE11_M_data_ptrIdEEPT_S4_:
.LFB5419:
	.loc 5 2291 2
	.cfi_startproc
	pushq	%rbp	 #
	.seh_pushreg	%rbp
	.cfi_def_cfa_offset 16
	.cfi_offset 6, -16
	movq	%rsp, %rbp	 #,
	.seh_setframe	%rbp, 0
	.cfi_def_cfa_register 6
	.seh_endprologue
	movq	%rcx, 16(%rbp)	 # this, this
	movq	%rdx, 24(%rbp)	 # __ptr, __ptr
 # D:/msys64/ucrt64/include/c++/15.2.0/bits/stl_vector.h:2292: 	{ return __ptr; }
	.loc 5 2292 11
	movq	24(%rbp), %rax	 # __ptr, _2
 # D:/msys64/ucrt64/include/c++/15.2.0/bits/stl_vector.h:2292: 	{ return __ptr; }
	.loc 5 2292 18
	popq	%rbp	 #
	.cfi_restore 6
	.cfi_def_cfa 7, 8
	ret	
	.cfi_endproc
.LFE5419:
	.seh_endproc
	.section	.text$_ZNSt23mersenne_twister_engineIyLy64ELy312ELy156ELy31ELy13043109905998158313ELy29ELy6148914691236517205ELy17ELy8202884508482404352ELy37ELy18444473444759240704ELy43ELy6364136223846793005EE4seedEy,"x"
	.linkonce discard
	.align 2
	.globl	_ZNSt23mersenne_twister_engineIyLy64ELy312ELy156ELy31ELy13043109905998158313ELy29ELy6148914691236517205ELy17ELy8202884508482404352ELy37ELy18444473444759240704ELy43ELy6364136223846793005EE4seedEy
	.def	_ZNSt23mersenne_twister_engineIyLy64ELy312ELy156ELy31ELy13043109905998158313ELy29ELy6148914691236517205ELy17ELy8202884508482404352ELy37ELy18444473444759240704ELy43ELy6364136223846793005EE4seedEy;	.scl	2;	.type	32;	.endef
	.seh_proc	_ZNSt23mersenne_twister_engineIyLy64ELy312ELy156ELy31ELy13043109905998158313ELy29ELy6148914691236517205ELy17ELy8202884508482404352ELy37ELy18444473444759240704ELy43ELy6364136223846793005EE4seedEy
_ZNSt23mersenne_twister_engineIyLy64ELy312ELy156ELy31ELy13043109905998158313ELy29ELy6148914691236517205ELy17ELy8202884508482404352ELy37ELy18444473444759240704ELy43ELy6364136223846793005EE4seedEy:
.LFB5420:
	.file 8 "D:/msys64/ucrt64/include/c++/15.2.0/bits/random.tcc"
	.loc 8 326 5
	.cfi_startproc
	pushq	%rbp	 #
	.seh_pushreg	%rbp
	.cfi_def_cfa_offset 16
	.cfi_offset 6, -16
	movq	%rsp, %rbp	 #,
	.seh_setframe	%rbp, 0
	.cfi_def_cfa_register 6
	subq	$48, %rsp	 #,
	.seh_stackalloc	48
	.seh_endprologue
	movq	%rcx, 16(%rbp)	 # this, this
	movq	%rdx, 24(%rbp)	 # __sd, __sd
 # D:/msys64/ucrt64/include/c++/15.2.0/bits/random.tcc:331: 	__detail::_Shift<_UIntType, __w>::__value>(__sd);
	.loc 8 331 44
	movq	24(%rbp), %rax	 # __sd, tmp103
	movq	%rax, %rcx	 # tmp103,
	call	_ZNSt8__detail5__modIyLy0ELy1ELy0EEET_S1_	 #
 # D:/msys64/ucrt64/include/c++/15.2.0/bits/random.tcc:330:       _M_x[0] = __detail::__mod<_UIntType,
	.loc 8 330 15
	movq	16(%rbp), %rdx	 # this, tmp104
	movq	%rax, (%rdx)	 # _1, this_11(D)->_M_x[0]
.LBB46:
 # D:/msys64/ucrt64/include/c++/15.2.0/bits/random.tcc:333:       for (size_t __i = 1; __i < state_size; ++__i)
	.loc 8 333 19
	movq	$1, -8(%rbp)	 #, __i
 # D:/msys64/ucrt64/include/c++/15.2.0/bits/random.tcc:333:       for (size_t __i = 1; __i < state_size; ++__i)
	.loc 8 333 7
	jmp	.L34	 #
.L35:
.LBB47:
 # D:/msys64/ucrt64/include/c++/15.2.0/bits/random.tcc:335: 	  _UIntType __x = _M_x[__i - 1];
	.loc 8 335 29
	movq	-8(%rbp), %rax	 # __i, tmp105
	leaq	-1(%rax), %rdx	 #, _2
 # D:/msys64/ucrt64/include/c++/15.2.0/bits/random.tcc:335: 	  _UIntType __x = _M_x[__i - 1];
	.loc 8 335 14
	movq	16(%rbp), %rax	 # this, tmp106
	movq	(%rax,%rdx,8), %rax	 # this_11(D)->_M_x[_2], tmp107
	movq	%rax, -16(%rbp)	 # tmp107, __x
 # D:/msys64/ucrt64/include/c++/15.2.0/bits/random.tcc:336: 	  __x ^= __x >> (__w - 2);
	.loc 8 336 15
	movq	-16(%rbp), %rax	 # __x, tmp108
	shrq	$62, %rax	 #, _3
 # D:/msys64/ucrt64/include/c++/15.2.0/bits/random.tcc:336: 	  __x ^= __x >> (__w - 2);
	.loc 8 336 8
	xorq	%rax, -16(%rbp)	 # _3, __x
 # D:/msys64/ucrt64/include/c++/15.2.0/bits/random.tcc:337: 	  __x *= __f;
	.loc 8 337 8
	movq	-16(%rbp), %rax	 # __x, tmp110
	movabsq	$6364136223846793005, %rdx	 #, tmp111
	imulq	%rdx, %rax	 # tmp111, __x_17
	movq	%rax, -16(%rbp)	 # __x_17, __x
 # D:/msys64/ucrt64/include/c++/15.2.0/bits/random.tcc:338: 	  __x += __detail::__mod<_UIntType, __n>(__i);
	.loc 8 338 42
	movq	-8(%rbp), %rax	 # __i, tmp112
	movq	%rax, %rcx	 # tmp112,
	call	_ZNSt8__detail5__modIyLy312ELy1ELy0EEET_S1_	 #
 # D:/msys64/ucrt64/include/c++/15.2.0/bits/random.tcc:338: 	  __x += __detail::__mod<_UIntType, __n>(__i);
	.loc 8 338 8 discriminator 1
	addq	%rax, -16(%rbp)	 # _19, __x
 # D:/msys64/ucrt64/include/c++/15.2.0/bits/random.tcc:340: 	    __detail::_Shift<_UIntType, __w>::__value>(__x);
	.loc 8 340 48
	movq	-16(%rbp), %rax	 # __x, tmp113
	movq	%rax, %rcx	 # tmp113,
	call	_ZNSt8__detail5__modIyLy0ELy1ELy0EEET_S1_	 #
 # D:/msys64/ucrt64/include/c++/15.2.0/bits/random.tcc:339: 	  _M_x[__i] = __detail::__mod<_UIntType,
	.loc 8 339 14
	movq	16(%rbp), %rdx	 # this, tmp114
	movq	-8(%rbp), %rcx	 # __i, tmp115
	movq	%rax, (%rdx,%rcx,8)	 # _4, this_11(D)->_M_x[__i_5]
.LBE47:
 # D:/msys64/ucrt64/include/c++/15.2.0/bits/random.tcc:333:       for (size_t __i = 1; __i < state_size; ++__i)
	.loc 8 333 7 discriminator 3
	addq	$1, -8(%rbp)	 #, __i
.L34:
 # D:/msys64/ucrt64/include/c++/15.2.0/bits/random.tcc:333:       for (size_t __i = 1; __i < state_size; ++__i)
	.loc 8 333 32 discriminator 1
	cmpq	$311, -8(%rbp)	 #, __i
	jbe	.L35	 #,
.LBE46:
 # D:/msys64/ucrt64/include/c++/15.2.0/bits/random.tcc:342:       _M_p = state_size;
	.loc 8 342 12
	movq	16(%rbp), %rax	 # this, tmp116
	movq	$312, 2496(%rax)	 #, this_11(D)->_M_p
 # D:/msys64/ucrt64/include/c++/15.2.0/bits/random.tcc:343:     }
	.loc 8 343 5
	nop	
	addq	$48, %rsp	 #,
	popq	%rbp	 #
	.cfi_restore 6
	.cfi_def_cfa 7, 8
	ret	
	.cfi_endproc
.LFE5420:
	.seh_endproc
	.section .rdata,"dr"
.LC3:
	.ascii "_M_stddev > _RealType(0)\0"
	.align 8
.LC4:
	.ascii "std::normal_distribution<_RealType>::param_type::param_type(_RealType, _RealType) [with _RealType = double]\0"
	.align 8
.LC5:
	.ascii "D:/msys64/ucrt64/include/c++/15.2.0/bits/random.h\0"
	.section	.text$_ZNSt19normal_distributionIdE10param_typeC1Edd,"x"
	.linkonce discard
	.align 2
	.globl	_ZNSt19normal_distributionIdE10param_typeC1Edd
	.def	_ZNSt19normal_distributionIdE10param_typeC1Edd;	.scl	2;	.type	32;	.endef
	.seh_proc	_ZNSt19normal_distributionIdE10param_typeC1Edd
_ZNSt19normal_distributionIdE10param_typeC1Edd:
.LFB5423:
	.loc 6 2135 2
	.cfi_startproc
	pushq	%rbp	 #
	.seh_pushreg	%rbp
	.cfi_def_cfa_offset 16
	.cfi_offset 6, -16
	movq	%rsp, %rbp	 #,
	.seh_setframe	%rbp, 0
	.cfi_def_cfa_register 6
	subq	$32, %rsp	 #,
	.seh_stackalloc	32
	.seh_endprologue
	movq	%rcx, 16(%rbp)	 # this, this
	movsd	%xmm1, 24(%rbp)	 # __mean, __mean
	movsd	%xmm2, 32(%rbp)	 # __stddev, __stddev
.LBB48:
 # D:/msys64/ucrt64/include/c++/15.2.0/bits/random.h:2136: 	: _M_mean(__mean), _M_stddev(__stddev)
	.loc 6 2136 4
	movq	16(%rbp), %rax	 # this, tmp103
	movsd	24(%rbp), %xmm0	 # __mean, tmp104
	movsd	%xmm0, (%rax)	 # tmp104, this_7(D)->_M_mean
 # D:/msys64/ucrt64/include/c++/15.2.0/bits/random.h:2136: 	: _M_mean(__mean), _M_stddev(__stddev)
	.loc 6 2136 21
	movq	16(%rbp), %rax	 # this, tmp105
	movsd	32(%rbp), %xmm0	 # __stddev, tmp106
	movsd	%xmm0, 8(%rax)	 # tmp106, this_7(D)->_M_stddev
 # D:/msys64/ucrt64/include/c++/15.2.0/bits/random.h:2138: 	  __glibcxx_assert(_M_stddev > _RealType(0));
	.loc 6 2138 36
	movq	16(%rbp), %rax	 # this, tmp107
	movsd	8(%rax), %xmm0	 # this_7(D)->_M_stddev, _1
 # D:/msys64/ucrt64/include/c++/15.2.0/bits/random.h:2138: 	  __glibcxx_assert(_M_stddev > _RealType(0));
	.loc 6 2138 46
	pxor	%xmm1, %xmm1	 # tmp108
	comisd	%xmm1, %xmm0	 # tmp108, _1
	seta	%al	 #, _2
 # D:/msys64/ucrt64/include/c++/15.2.0/bits/random.h:2138: 	  __glibcxx_assert(_M_stddev > _RealType(0));
	.loc 6 2138 31
	xorl	$1, %eax	 #, _3
 # D:/msys64/ucrt64/include/c++/15.2.0/bits/random.h:2138: 	  __glibcxx_assert(_M_stddev > _RealType(0));
	.loc 6 2138 29
	movzbl	%al, %eax	 # _3, _4
 # D:/msys64/ucrt64/include/c++/15.2.0/bits/random.h:2138: 	  __glibcxx_assert(_M_stddev > _RealType(0));
	.loc 6 2138 9 discriminator 1
	testl	%eax, %eax	 # _5
	je	.L38	 #,
 # D:/msys64/ucrt64/include/c++/15.2.0/bits/random.h:2138: 	  __glibcxx_assert(_M_stddev > _RealType(0));
	.loc 6 2138 97 discriminator 2
	leaq	.LC3(%rip), %rcx	 #, tmp109
	leaq	.LC4(%rip), %rdx	 #, tmp110
	leaq	.LC5(%rip), %rax	 #, tmp111
	movq	%rcx, %r9	 # tmp109,
	movq	%rdx, %r8	 # tmp110,
	movl	$2138, %edx	 #,
	movq	%rax, %rcx	 # tmp111,
	call	_ZSt21__glibcxx_assert_failPKciS0_S0_	 #
.L38:
.LBE48:
 # D:/msys64/ucrt64/include/c++/15.2.0/bits/random.h:2139: 	}
	.loc 6 2139 2
	nop	
	addq	$32, %rsp	 #,
	popq	%rbp	 #
	.cfi_restore 6
	.cfi_def_cfa 7, 8
	ret	
	.cfi_endproc
.LFE5423:
	.seh_endproc
	.section	.text$_ZNSt19normal_distributionIdEclISt23mersenne_twister_engineIyLy64ELy312ELy156ELy31ELy13043109905998158313ELy29ELy6148914691236517205ELy17ELy8202884508482404352ELy37ELy18444473444759240704ELy43ELy6364136223846793005EEEEdRT_RKNS0_10param_typeE,"x"
	.linkonce discard
	.align 2
	.globl	_ZNSt19normal_distributionIdEclISt23mersenne_twister_engineIyLy64ELy312ELy156ELy31ELy13043109905998158313ELy29ELy6148914691236517205ELy17ELy8202884508482404352ELy37ELy18444473444759240704ELy43ELy6364136223846793005EEEEdRT_RKNS0_10param_typeE
	.def	_ZNSt19normal_distributionIdEclISt23mersenne_twister_engineIyLy64ELy312ELy156ELy31ELy13043109905998158313ELy29ELy6148914691236517205ELy17ELy8202884508482404352ELy37ELy18444473444759240704ELy43ELy6364136223846793005EEEEdRT_RKNS0_10param_typeE;	.scl	2;	.type	32;	.endef
	.seh_proc	_ZNSt19normal_distributionIdEclISt23mersenne_twister_engineIyLy64ELy312ELy156ELy31ELy13043109905998158313ELy29ELy6148914691236517205ELy17ELy8202884508482404352ELy37ELy18444473444759240704ELy43ELy6364136223846793005EEEEdRT_RKNS0_10param_typeE
_ZNSt19normal_distributionIdEclISt23mersenne_twister_engineIyLy64ELy312ELy156ELy31ELy13043109905998158313ELy29ELy6148914691236517205ELy17ELy8202884508482404352ELy37ELy18444473444759240704ELy43ELy6364136223846793005EEEEdRT_RKNS0_10param_typeE:
.LFB5424:
	.loc 8 1812 7
	.cfi_startproc
	pushq	%rbp	 #
	.seh_pushreg	%rbp
	.cfi_def_cfa_offset 16
	.cfi_offset 6, -16
	subq	$96, %rsp	 #,
	.seh_stackalloc	96
	.cfi_def_cfa_offset 112
	leaq	80(%rsp), %rbp	 #,
	.seh_setframe	%rbp, 80
	.cfi_def_cfa 6, 32
	movups	%xmm6, 0(%rbp)	 #,
	.seh_savexmm	%xmm6, 80
	.cfi_offset 23, -32
	.seh_endprologue
	movq	%rcx, 32(%rbp)	 # this, this
	movq	%rdx, 40(%rbp)	 # __urng, __urng
	movq	%r8, 48(%rbp)	 # __param, __param
 # D:/msys64/ucrt64/include/c++/15.2.0/bits/random.tcc:1818: 	  __aurng(__urng);
	.loc 8 1818 4
	movq	40(%rbp), %rdx	 # __urng, tmp114
	leaq	-48(%rbp), %rax	 #, tmp115
	movq	%rax, %rcx	 # tmp115,
	call	_ZNSt8__detail8_AdaptorISt23mersenne_twister_engineIyLy64ELy312ELy156ELy31ELy13043109905998158313ELy29ELy6148914691236517205ELy17ELy8202884508482404352ELy37ELy18444473444759240704ELy43ELy6364136223846793005EEdEC1ERS2_	 #
.LBB49:
 # D:/msys64/ucrt64/include/c++/15.2.0/bits/random.tcc:1820: 	if (_M_saved_available)
	.loc 8 1820 6
	movq	32(%rbp), %rax	 # this, tmp116
	movzbl	24(%rax), %eax	 # this_22(D)->_M_saved_available, _1
 # D:/msys64/ucrt64/include/c++/15.2.0/bits/random.tcc:1820: 	if (_M_saved_available)
	.loc 8 1820 2
	testb	%al, %al	 # _1
	je	.L40	 #,
 # D:/msys64/ucrt64/include/c++/15.2.0/bits/random.tcc:1822: 	    _M_saved_available = false;
	.loc 8 1822 25
	movq	32(%rbp), %rax	 # this, tmp117
	movb	$0, 24(%rax)	 #, this_22(D)->_M_saved_available
 # D:/msys64/ucrt64/include/c++/15.2.0/bits/random.tcc:1823: 	    __ret = _M_saved;
	.loc 8 1823 12
	movq	32(%rbp), %rax	 # this, tmp118
	movsd	16(%rax), %xmm0	 # this_22(D)->_M_saved, tmp119
	movsd	%xmm0, -8(%rbp)	 # tmp119, __ret
	jmp	.L41	 #
.L40:
.LBB50:
 # D:/msys64/ucrt64/include/c++/15.2.0/bits/random.tcc:1830: 		__x = result_type(2.0) * __aurng() - 1.0;
	.loc 8 1830 35
	leaq	-48(%rbp), %rax	 #, tmp120
	movq	%rax, %rcx	 # tmp120,
	call	_ZNSt8__detail8_AdaptorISt23mersenne_twister_engineIyLy64ELy312ELy156ELy31ELy13043109905998158313ELy29ELy6148914691236517205ELy17ELy8202884508482404352ELy37ELy18444473444759240704ELy43ELy6364136223846793005EEdEclEv	 #
 # D:/msys64/ucrt64/include/c++/15.2.0/bits/random.tcc:1830: 		__x = result_type(2.0) * __aurng() - 1.0;
	.loc 8 1830 26 discriminator 2
	addsd	%xmm0, %xmm0	 # _2, _3
 # D:/msys64/ucrt64/include/c++/15.2.0/bits/random.tcc:1830: 		__x = result_type(2.0) * __aurng() - 1.0;
	.loc 8 1830 7 discriminator 2
	movsd	.LC1(%rip), %xmm1	 #, tmp122
	subsd	%xmm1, %xmm0	 # tmp122, __x_25
	movsd	%xmm0, -16(%rbp)	 # __x_25, __x
 # D:/msys64/ucrt64/include/c++/15.2.0/bits/random.tcc:1831: 		__y = result_type(2.0) * __aurng() - 1.0;
	.loc 8 1831 35
	leaq	-48(%rbp), %rax	 #, tmp123
	movq	%rax, %rcx	 # tmp123,
	call	_ZNSt8__detail8_AdaptorISt23mersenne_twister_engineIyLy64ELy312ELy156ELy31ELy13043109905998158313ELy29ELy6148914691236517205ELy17ELy8202884508482404352ELy37ELy18444473444759240704ELy43ELy6364136223846793005EEdEclEv	 #
 # D:/msys64/ucrt64/include/c++/15.2.0/bits/random.tcc:1831: 		__y = result_type(2.0) * __aurng() - 1.0;
	.loc 8 1831 26 discriminator 2
	addsd	%xmm0, %xmm0	 # _4, _5
 # D:/msys64/ucrt64/include/c++/15.2.0/bits/random.tcc:1831: 		__y = result_type(2.0) * __aurng() - 1.0;
	.loc 8 1831 7 discriminator 2
	movsd	.LC1(%rip), %xmm1	 #, tmp125
	subsd	%xmm1, %xmm0	 # tmp125, __y_28
	movsd	%xmm0, -24(%rbp)	 # __y_28, __y
 # D:/msys64/ucrt64/include/c++/15.2.0/bits/random.tcc:1832: 		__r2 = __x * __x + __y * __y;
	.loc 8 1832 14
	movsd	-16(%rbp), %xmm0	 # __x, tmp126
	movapd	%xmm0, %xmm1	 # tmp126, tmp126
	mulsd	%xmm0, %xmm1	 # tmp126, tmp126
 # D:/msys64/ucrt64/include/c++/15.2.0/bits/random.tcc:1832: 		__r2 = __x * __x + __y * __y;
	.loc 8 1832 26
	movsd	-24(%rbp), %xmm0	 # __y, tmp127
	mulsd	%xmm0, %xmm0	 # tmp127, _7
 # D:/msys64/ucrt64/include/c++/15.2.0/bits/random.tcc:1832: 		__r2 = __x * __x + __y * __y;
	.loc 8 1832 8
	addsd	%xmm1, %xmm0	 # _6, __r2_29
	movsd	%xmm0, -32(%rbp)	 # __r2_29, __r2
 # D:/msys64/ucrt64/include/c++/15.2.0/bits/random.tcc:1834: 	    while (__r2 > 1.0 || __r2 == 0.0);
	.loc 8 1834 24
	movsd	-32(%rbp), %xmm0	 # __r2, tmp129
	movsd	.LC1(%rip), %xmm1	 #, tmp130
	comisd	%xmm1, %xmm0	 # tmp130, tmp129
	ja	.L40	 #,
 # D:/msys64/ucrt64/include/c++/15.2.0/bits/random.tcc:1834: 	    while (__r2 > 1.0 || __r2 == 0.0);
	.loc 8 1834 24 is_stmt 0 discriminator 1
	pxor	%xmm0, %xmm0	 # tmp131
	ucomisd	-32(%rbp), %xmm0	 # __r2, tmp131
	jp	.L45	 #,
	pxor	%xmm0, %xmm0	 # tmp132
	ucomisd	-32(%rbp), %xmm0	 # __r2, tmp132
	je	.L40	 #,
.L45:
 # D:/msys64/ucrt64/include/c++/15.2.0/bits/random.tcc:1836: 	    const result_type __mult = std::sqrt(-2 * std::log(__r2) / __r2);
	.loc 8 1836 56 is_stmt 1
	movq	-32(%rbp), %rax	 # __r2, tmp133
	movq	%rax, %xmm0	 # tmp133,
	call	log	 #
 # D:/msys64/ucrt64/include/c++/15.2.0/bits/random.tcc:1836: 	    const result_type __mult = std::sqrt(-2 * std::log(__r2) / __r2);
	.loc 8 1836 46 discriminator 1
	movsd	.LC6(%rip), %xmm1	 #, tmp134
	mulsd	%xmm1, %xmm0	 # tmp134, _9
 # D:/msys64/ucrt64/include/c++/15.2.0/bits/random.tcc:1836: 	    const result_type __mult = std::sqrt(-2 * std::log(__r2) / __r2);
	.loc 8 1836 42 discriminator 1
	divsd	-32(%rbp), %xmm0	 # __r2, _9
	movq	%xmm0, %rax	 # _9, _10
	movq	%rax, %xmm0	 # _10,
	call	sqrt	 #
	movq	%xmm0, %rax	 #, tmp135
	movq	%rax, -40(%rbp)	 # tmp135, __mult
 # D:/msys64/ucrt64/include/c++/15.2.0/bits/random.tcc:1837: 	    _M_saved = __x * __mult;
	.loc 8 1837 21
	movsd	-16(%rbp), %xmm0	 # __x, tmp136
	mulsd	-40(%rbp), %xmm0	 # __mult, _11
 # D:/msys64/ucrt64/include/c++/15.2.0/bits/random.tcc:1837: 	    _M_saved = __x * __mult;
	.loc 8 1837 15
	movq	32(%rbp), %rax	 # this, tmp137
	movsd	%xmm0, 16(%rax)	 # _11, this_22(D)->_M_saved
 # D:/msys64/ucrt64/include/c++/15.2.0/bits/random.tcc:1838: 	    _M_saved_available = true;
	.loc 8 1838 25
	movq	32(%rbp), %rax	 # this, tmp138
	movb	$1, 24(%rax)	 #, this_22(D)->_M_saved_available
 # D:/msys64/ucrt64/include/c++/15.2.0/bits/random.tcc:1839: 	    __ret = __y * __mult;
	.loc 8 1839 12
	movsd	-24(%rbp), %xmm0	 # __y, tmp140
	mulsd	-40(%rbp), %xmm0	 # __mult, __ret_35
	movsd	%xmm0, -8(%rbp)	 # __ret_35, __ret
.L41:
.LBE50:
.LBE49:
 # D:/msys64/ucrt64/include/c++/15.2.0/bits/random.tcc:1842: 	__ret = __ret * __param.stddev() + __param.mean();
	.loc 8 1842 32
	movq	48(%rbp), %rax	 # __param, tmp141
	movq	%rax, %rcx	 # tmp141,
	call	_ZNKSt19normal_distributionIdE10param_type6stddevEv	 #
	movq	%xmm0, %rax	 #, _12
 # D:/msys64/ucrt64/include/c++/15.2.0/bits/random.tcc:1842: 	__ret = __ret * __param.stddev() + __param.mean();
	.loc 8 1842 16 discriminator 1
	movq	%rax, %xmm6	 # _12, _12
	mulsd	-8(%rbp), %xmm6	 # __ret, _12
 # D:/msys64/ucrt64/include/c++/15.2.0/bits/random.tcc:1842: 	__ret = __ret * __param.stddev() + __param.mean();
	.loc 8 1842 49 discriminator 1
	movq	48(%rbp), %rax	 # __param, tmp142
	movq	%rax, %rcx	 # tmp142,
	call	_ZNKSt19normal_distributionIdE10param_type4meanEv	 #
 # D:/msys64/ucrt64/include/c++/15.2.0/bits/random.tcc:1842: 	__ret = __ret * __param.stddev() + __param.mean();
	.loc 8 1842 8 discriminator 2
	addsd	%xmm6, %xmm0	 # _13, __ret_42
	movsd	%xmm0, -8(%rbp)	 # __ret_42, __ret
 # D:/msys64/ucrt64/include/c++/15.2.0/bits/random.tcc:1843: 	return __ret;
	.loc 8 1843 9
	movsd	-8(%rbp), %xmm0	 # __ret, _43
 # D:/msys64/ucrt64/include/c++/15.2.0/bits/random.tcc:1844:       }
	.loc 8 1844 7
	movups	0(%rbp), %xmm6	 #,
	addq	$96, %rsp	 #,
	.cfi_restore 23
	popq	%rbp	 #
	.cfi_restore 6
	.cfi_def_cfa 7, -88
	ret	
	.cfi_endproc
.LFE5424:
	.seh_endproc
	.section	.text$_ZNKSt4spanIdLy18446744073709551615EE4sizeEv,"x"
	.linkonce discard
	.align 2
	.globl	_ZNKSt4spanIdLy18446744073709551615EE4sizeEv
	.def	_ZNKSt4spanIdLy18446744073709551615EE4sizeEv;	.scl	2;	.type	32;	.endef
	.seh_proc	_ZNKSt4spanIdLy18446744073709551615EE4sizeEv
_ZNKSt4spanIdLy18446744073709551615EE4sizeEv:
.LFB5428:
	.loc 7 267 7
	.cfi_startproc
	pushq	%rbp	 #
	.seh_pushreg	%rbp
	.cfi_def_cfa_offset 16
	.cfi_offset 6, -16
	movq	%rsp, %rbp	 #,
	.seh_setframe	%rbp, 0
	.cfi_def_cfa_register 6
	subq	$16, %rsp	 #,
	.seh_stackalloc	16
	.seh_endprologue
	movq	%rcx, 16(%rbp)	 # this, this
 # D:/msys64/ucrt64/include/c++/15.2.0/span:268:       { return this->_M_extent._M_extent(); }
	.loc 7 268 41
	movq	16(%rbp), %rax	 # this, tmp101
	addq	$8, %rax	 #, _1
	movq	%rax, -8(%rbp)	 # _1, this
.LBB51:
.LBB52:
 # D:/msys64/ucrt64/include/c++/15.2.0/span:113: 	{ return this->_M_extent_value; }
	.loc 7 113 17
	movq	-8(%rbp), %rax	 # this, tmp102
	movq	(%rax), %rax	 # this_5->_M_extent_value, D.96134
.LBE52:
.LBE51:
 # D:/msys64/ucrt64/include/c++/15.2.0/span:268:       { return this->_M_extent._M_extent(); }
	.loc 7 268 45
	addq	$16, %rsp	 #,
	popq	%rbp	 #
	.cfi_restore 6
	.cfi_def_cfa 7, 8
	ret	
	.cfi_endproc
.LFE5428:
	.seh_endproc
	.section	.text$_ZNSt8__detail5__modIyLy0ELy1ELy0EEET_S1_,"x"
	.linkonce discard
	.globl	_ZNSt8__detail5__modIyLy0ELy1ELy0EEET_S1_
	.def	_ZNSt8__detail5__modIyLy0ELy1ELy0EEET_S1_;	.scl	2;	.type	32;	.endef
	.seh_proc	_ZNSt8__detail5__modIyLy0ELy1ELy0EEET_S1_
_ZNSt8__detail5__modIyLy0ELy1ELy0EEET_S1_:
.LFB5547:
	.loc 6 255 7
	.cfi_startproc
	pushq	%rbp	 #
	.seh_pushreg	%rbp
	.cfi_def_cfa_offset 16
	.cfi_offset 6, -16
	movq	%rsp, %rbp	 #,
	.seh_setframe	%rbp, 0
	.cfi_def_cfa_register 6
	subq	$32, %rsp	 #,
	.seh_stackalloc	32
	.seh_endprologue
	movq	%rcx, 16(%rbp)	 # __x, __x
 # D:/msys64/ucrt64/include/c++/15.2.0/bits/random.h:260: 	  return _Mod<_Tp, __m, __a, __c>::__calc(__x);
	.loc 6 260 43
	movq	16(%rbp), %rax	 # __x, tmp100
	movq	%rax, %rcx	 # tmp100,
	call	_ZNSt8__detail4_ModIyLy0ELy1ELy0ELb1ELb0EE6__calcEy	 #
 # D:/msys64/ucrt64/include/c++/15.2.0/bits/random.h:261:       }
	.loc 6 261 7
	addq	$32, %rsp	 #,
	popq	%rbp	 #
	.cfi_restore 6
	.cfi_def_cfa 7, 8
	ret	
	.cfi_endproc
.LFE5547:
	.seh_endproc
	.section	.text$_ZNSt8__detail5__modIyLy312ELy1ELy0EEET_S1_,"x"
	.linkonce discard
	.globl	_ZNSt8__detail5__modIyLy312ELy1ELy0EEET_S1_
	.def	_ZNSt8__detail5__modIyLy312ELy1ELy0EEET_S1_;	.scl	2;	.type	32;	.endef
	.seh_proc	_ZNSt8__detail5__modIyLy312ELy1ELy0EEET_S1_
_ZNSt8__detail5__modIyLy312ELy1ELy0EEET_S1_:
.LFB5548:
	.loc 6 255 7
	.cfi_startproc
	pushq	%rbp	 #
	.seh_pushreg	%rbp
	.cfi_def_cfa_offset 16
	.cfi_offset 6, -16
	movq	%rsp, %rbp	 #,
	.seh_setframe	%rbp, 0
	.cfi_def_cfa_register 6
	subq	$32, %rsp	 #,
	.seh_stackalloc	32
	.seh_endprologue
	movq	%rcx, 16(%rbp)	 # __x, __x
 # D:/msys64/ucrt64/include/c++/15.2.0/bits/random.h:260: 	  return _Mod<_Tp, __m, __a, __c>::__calc(__x);
	.loc 6 260 43
	movq	16(%rbp), %rax	 # __x, tmp100
	movq	%rax, %rcx	 # tmp100,
	call	_ZNSt8__detail4_ModIyLy312ELy1ELy0ELb1ELb1EE6__calcEy	 #
 # D:/msys64/ucrt64/include/c++/15.2.0/bits/random.h:261:       }
	.loc 6 261 7
	addq	$32, %rsp	 #,
	popq	%rbp	 #
	.cfi_restore 6
	.cfi_def_cfa 7, 8
	ret	
	.cfi_endproc
.LFE5548:
	.seh_endproc
	.section	.text$_ZNSt8__detail8_AdaptorISt23mersenne_twister_engineIyLy64ELy312ELy156ELy31ELy13043109905998158313ELy29ELy6148914691236517205ELy17ELy8202884508482404352ELy37ELy18444473444759240704ELy43ELy6364136223846793005EEdEC1ERS2_,"x"
	.linkonce discard
	.align 2
	.globl	_ZNSt8__detail8_AdaptorISt23mersenne_twister_engineIyLy64ELy312ELy156ELy31ELy13043109905998158313ELy29ELy6148914691236517205ELy17ELy8202884508482404352ELy37ELy18444473444759240704ELy43ELy6364136223846793005EEdEC1ERS2_
	.def	_ZNSt8__detail8_AdaptorISt23mersenne_twister_engineIyLy64ELy312ELy156ELy31ELy13043109905998158313ELy29ELy6148914691236517205ELy17ELy8202884508482404352ELy37ELy18444473444759240704ELy43ELy6364136223846793005EEdEC1ERS2_;	.scl	2;	.type	32;	.endef
	.seh_proc	_ZNSt8__detail8_AdaptorISt23mersenne_twister_engineIyLy64ELy312ELy156ELy31ELy13043109905998158313ELy29ELy6148914691236517205ELy17ELy8202884508482404352ELy37ELy18444473444759240704ELy43ELy6364136223846793005EEdEC1ERS2_
_ZNSt8__detail8_AdaptorISt23mersenne_twister_engineIyLy64ELy312ELy156ELy31ELy13043109905998158313ELy29ELy6148914691236517205ELy17ELy8202884508482404352ELy37ELy18444473444759240704ELy43ELy6364136223846793005EEdEC1ERS2_:
.LFB5551:
	.loc 6 274 2
	.cfi_startproc
	pushq	%rbp	 #
	.seh_pushreg	%rbp
	.cfi_def_cfa_offset 16
	.cfi_offset 6, -16
	movq	%rsp, %rbp	 #,
	.seh_setframe	%rbp, 0
	.cfi_def_cfa_register 6
	.seh_endprologue
	movq	%rcx, 16(%rbp)	 # this, this
	movq	%rdx, 24(%rbp)	 # __g, __g
.LBB53:
 # D:/msys64/ucrt64/include/c++/15.2.0/bits/random.h:275: 	: _M_g(__g) { }
	.loc 6 275 4
	movq	16(%rbp), %rax	 # this, tmp98
	movq	24(%rbp), %rdx	 # __g, tmp99
	movq	%rdx, (%rax)	 # tmp99, this_2(D)->_M_g
.LBE53:
 # D:/msys64/ucrt64/include/c++/15.2.0/bits/random.h:275: 	: _M_g(__g) { }
	.loc 6 275 16
	nop	
	popq	%rbp	 #
	.cfi_restore 6
	.cfi_def_cfa 7, 8
	ret	
	.cfi_endproc
.LFE5551:
	.seh_endproc
	.section	.text$_ZNSt8__detail8_AdaptorISt23mersenne_twister_engineIyLy64ELy312ELy156ELy31ELy13043109905998158313ELy29ELy6148914691236517205ELy17ELy8202884508482404352ELy37ELy18444473444759240704ELy43ELy6364136223846793005EEdEclEv,"x"
	.linkonce discard
	.align 2
	.globl	_ZNSt8__detail8_AdaptorISt23mersenne_twister_engineIyLy64ELy312ELy156ELy31ELy13043109905998158313ELy29ELy6148914691236517205ELy17ELy8202884508482404352ELy37ELy18444473444759240704ELy43ELy6364136223846793005EEdEclEv
	.def	_ZNSt8__detail8_AdaptorISt23mersenne_twister_engineIyLy64ELy312ELy156ELy31ELy13043109905998158313ELy29ELy6148914691236517205ELy17ELy8202884508482404352ELy37ELy18444473444759240704ELy43ELy6364136223846793005EEdEclEv;	.scl	2;	.type	32;	.endef
	.seh_proc	_ZNSt8__detail8_AdaptorISt23mersenne_twister_engineIyLy64ELy312ELy156ELy31ELy13043109905998158313ELy29ELy6148914691236517205ELy17ELy8202884508482404352ELy37ELy18444473444759240704ELy43ELy6364136223846793005EEdEclEv
_ZNSt8__detail8_AdaptorISt23mersenne_twister_engineIyLy64ELy312ELy156ELy31ELy13043109905998158313ELy29ELy6148914691236517205ELy17ELy8202884508482404352ELy37ELy18444473444759240704ELy43ELy6364136223846793005EEdEclEv:
.LFB5552:
	.loc 6 291 2
	.cfi_startproc
	pushq	%rbp	 #
	.seh_pushreg	%rbp
	.cfi_def_cfa_offset 16
	.cfi_offset 6, -16
	movq	%rsp, %rbp	 #,
	.seh_setframe	%rbp, 0
	.cfi_def_cfa_register 6
	subq	$32, %rsp	 #,
	.seh_stackalloc	32
	.seh_endprologue
	movq	%rcx, 16(%rbp)	 # this, this
 # D:/msys64/ucrt64/include/c++/15.2.0/bits/random.h:295: 	                            _Engine>(_M_g);
	.loc 6 295 38
	movq	16(%rbp), %rax	 # this, tmp101
	movq	(%rax), %rax	 # this_3(D)->_M_g, _1
	movq	%rax, %rcx	 # _1,
	call	_ZSt18generate_canonicalIdLy53ESt23mersenne_twister_engineIyLy64ELy312ELy156ELy31ELy13043109905998158313ELy29ELy6148914691236517205ELy17ELy8202884508482404352ELy37ELy18444473444759240704ELy43ELy6364136223846793005EEET_RT1_	 #
 # D:/msys64/ucrt64/include/c++/15.2.0/bits/random.h:296: 	}
	.loc 6 296 2
	addq	$32, %rsp	 #,
	popq	%rbp	 #
	.cfi_restore 6
	.cfi_def_cfa 7, 8
	ret	
	.cfi_endproc
.LFE5552:
	.seh_endproc
	.section	.text$_ZNKSt19normal_distributionIdE10param_type6stddevEv,"x"
	.linkonce discard
	.align 2
	.globl	_ZNKSt19normal_distributionIdE10param_type6stddevEv
	.def	_ZNKSt19normal_distributionIdE10param_type6stddevEv;	.scl	2;	.type	32;	.endef
	.seh_proc	_ZNKSt19normal_distributionIdE10param_type6stddevEv
_ZNKSt19normal_distributionIdE10param_type6stddevEv:
.LFB5553:
	.loc 6 2146 2
	.cfi_startproc
	pushq	%rbp	 #
	.seh_pushreg	%rbp
	.cfi_def_cfa_offset 16
	.cfi_offset 6, -16
	movq	%rsp, %rbp	 #,
	.seh_setframe	%rbp, 0
	.cfi_def_cfa_register 6
	.seh_endprologue
	movq	%rcx, 16(%rbp)	 # this, this
 # D:/msys64/ucrt64/include/c++/15.2.0/bits/random.h:2147: 	{ return _M_stddev; }
	.loc 6 2147 11
	movq	16(%rbp), %rax	 # this, tmp100
	movsd	8(%rax), %xmm0	 # this_2(D)->_M_stddev, _3
 # D:/msys64/ucrt64/include/c++/15.2.0/bits/random.h:2147: 	{ return _M_stddev; }
	.loc 6 2147 22
	popq	%rbp	 #
	.cfi_restore 6
	.cfi_def_cfa 7, 8
	ret	
	.cfi_endproc
.LFE5553:
	.seh_endproc
	.section	.text$_ZNKSt19normal_distributionIdE10param_type4meanEv,"x"
	.linkonce discard
	.align 2
	.globl	_ZNKSt19normal_distributionIdE10param_type4meanEv
	.def	_ZNKSt19normal_distributionIdE10param_type4meanEv;	.scl	2;	.type	32;	.endef
	.seh_proc	_ZNKSt19normal_distributionIdE10param_type4meanEv
_ZNKSt19normal_distributionIdE10param_type4meanEv:
.LFB5554:
	.loc 6 2142 2
	.cfi_startproc
	pushq	%rbp	 #
	.seh_pushreg	%rbp
	.cfi_def_cfa_offset 16
	.cfi_offset 6, -16
	movq	%rsp, %rbp	 #,
	.seh_setframe	%rbp, 0
	.cfi_def_cfa_register 6
	.seh_endprologue
	movq	%rcx, 16(%rbp)	 # this, this
 # D:/msys64/ucrt64/include/c++/15.2.0/bits/random.h:2143: 	{ return _M_mean; }
	.loc 6 2143 11
	movq	16(%rbp), %rax	 # this, tmp100
	movsd	(%rax), %xmm0	 # this_2(D)->_M_mean, _3
 # D:/msys64/ucrt64/include/c++/15.2.0/bits/random.h:2143: 	{ return _M_mean; }
	.loc 6 2143 20
	popq	%rbp	 #
	.cfi_restore 6
	.cfi_def_cfa 7, 8
	ret	
	.cfi_endproc
.LFE5554:
	.seh_endproc
	.section	.text$_ZNSt8__detail4_ModIyLy0ELy1ELy0ELb1ELb0EE6__calcEy,"x"
	.linkonce discard
	.globl	_ZNSt8__detail4_ModIyLy0ELy1ELy0ELb1ELb0EE6__calcEy
	.def	_ZNSt8__detail4_ModIyLy0ELy1ELy0ELb1ELb0EE6__calcEy;	.scl	2;	.type	32;	.endef
	.seh_proc	_ZNSt8__detail4_ModIyLy0ELy1ELy0ELb1ELb0EE6__calcEy
_ZNSt8__detail4_ModIyLy0ELy1ELy0ELb1ELb0EE6__calcEy:
.LFB5653:
	.loc 6 244 2
	.cfi_startproc
	pushq	%rbp	 #
	.seh_pushreg	%rbp
	.cfi_def_cfa_offset 16
	.cfi_offset 6, -16
	movq	%rsp, %rbp	 #,
	.seh_setframe	%rbp, 0
	.cfi_def_cfa_register 6
	subq	$16, %rsp	 #,
	.seh_stackalloc	16
	.seh_endprologue
	movq	%rcx, 16(%rbp)	 # __x, __x
 # D:/msys64/ucrt64/include/c++/15.2.0/bits/random.h:246: 	  _Tp __res = __a * __x + __c;
	.loc 6 246 8
	movq	16(%rbp), %rax	 # __x, tmp100
	movq	%rax, -8(%rbp)	 # tmp100, __res
 # D:/msys64/ucrt64/include/c++/15.2.0/bits/random.h:249: 	  return __res;
	.loc 6 249 11
	movq	-8(%rbp), %rax	 # __res, _3
 # D:/msys64/ucrt64/include/c++/15.2.0/bits/random.h:250: 	}
	.loc 6 250 2
	addq	$16, %rsp	 #,
	popq	%rbp	 #
	.cfi_restore 6
	.cfi_def_cfa 7, 8
	ret	
	.cfi_endproc
.LFE5653:
	.seh_endproc
	.section	.text$_ZNSt8__detail4_ModIyLy312ELy1ELy0ELb1ELb1EE6__calcEy,"x"
	.linkonce discard
	.globl	_ZNSt8__detail4_ModIyLy312ELy1ELy0ELb1ELb1EE6__calcEy
	.def	_ZNSt8__detail4_ModIyLy312ELy1ELy0ELb1ELb1EE6__calcEy;	.scl	2;	.type	32;	.endef
	.seh_proc	_ZNSt8__detail4_ModIyLy312ELy1ELy0ELb1ELb1EE6__calcEy
_ZNSt8__detail4_ModIyLy312ELy1ELy0ELb1ELb1EE6__calcEy:
.LFB5654:
	.loc 6 244 2
	.cfi_startproc
	pushq	%rbp	 #
	.seh_pushreg	%rbp
	.cfi_def_cfa_offset 16
	.cfi_offset 6, -16
	movq	%rsp, %rbp	 #,
	.seh_setframe	%rbp, 0
	.cfi_def_cfa_register 6
	subq	$16, %rsp	 #,
	.seh_stackalloc	16
	.seh_endprologue
	movq	%rcx, 16(%rbp)	 # __x, __x
 # D:/msys64/ucrt64/include/c++/15.2.0/bits/random.h:246: 	  _Tp __res = __a * __x + __c;
	.loc 6 246 8
	movq	16(%rbp), %rax	 # __x, tmp100
	movq	%rax, -8(%rbp)	 # tmp100, __res
 # D:/msys64/ucrt64/include/c++/15.2.0/bits/random.h:248: 	    __res %= __m;
	.loc 6 248 12
	movq	-8(%rbp), %rcx	 # __res, tmp102
	movq	%rcx, %rax	 # tmp102, tmp103
	shrq	$3, %rax	 #, tmp103
	movabsq	$945986875574848801, %rdx	 #, tmp105
	mulq	%rdx	 # tmp105
	movq	%rdx, %rax	 # tmp104, tmp104
	shrq	%rax	 # tmp104
	imulq	$312, %rax, %rax	 #, tmp101, tmp106
	subq	%rax, %rcx	 # tmp106, tmp102
	movq	%rcx, %rdx	 # tmp102, __res_3
	movq	%rdx, -8(%rbp)	 # __res_3, __res
 # D:/msys64/ucrt64/include/c++/15.2.0/bits/random.h:249: 	  return __res;
	.loc 6 249 11
	movq	-8(%rbp), %rax	 # __res, _4
 # D:/msys64/ucrt64/include/c++/15.2.0/bits/random.h:250: 	}
	.loc 6 250 2
	addq	$16, %rsp	 #,
	popq	%rbp	 #
	.cfi_restore 6
	.cfi_def_cfa 7, 8
	ret	
	.cfi_endproc
.LFE5654:
	.seh_endproc
	.section	.text$_ZNSt23mersenne_twister_engineIyLy64ELy312ELy156ELy31ELy13043109905998158313ELy29ELy6148914691236517205ELy17ELy8202884508482404352ELy37ELy18444473444759240704ELy43ELy6364136223846793005EE3minEv,"x"
	.linkonce discard
	.globl	_ZNSt23mersenne_twister_engineIyLy64ELy312ELy156ELy31ELy13043109905998158313ELy29ELy6148914691236517205ELy17ELy8202884508482404352ELy37ELy18444473444759240704ELy43ELy6364136223846793005EE3minEv
	.def	_ZNSt23mersenne_twister_engineIyLy64ELy312ELy156ELy31ELy13043109905998158313ELy29ELy6148914691236517205ELy17ELy8202884508482404352ELy37ELy18444473444759240704ELy43ELy6364136223846793005EE3minEv;	.scl	2;	.type	32;	.endef
	.seh_proc	_ZNSt23mersenne_twister_engineIyLy64ELy312ELy156ELy31ELy13043109905998158313ELy29ELy6148914691236517205ELy17ELy8202884508482404352ELy37ELy18444473444759240704ELy43ELy6364136223846793005EE3minEv
_ZNSt23mersenne_twister_engineIyLy64ELy312ELy156ELy31ELy13043109905998158313ELy29ELy6148914691236517205ELy17ELy8202884508482404352ELy37ELy18444473444759240704ELy43ELy6364136223846793005EE3minEv:
.LFB5657:
	.loc 6 672 7
	.cfi_startproc
	pushq	%rbp	 #
	.seh_pushreg	%rbp
	.cfi_def_cfa_offset 16
	.cfi_offset 6, -16
	movq	%rsp, %rbp	 #,
	.seh_setframe	%rbp, 0
	.cfi_def_cfa_register 6
	.seh_endprologue
 # D:/msys64/ucrt64/include/c++/15.2.0/bits/random.h:673:       { return 0; }
	.loc 6 673 16
	movl	$0, %eax	 #, _1
 # D:/msys64/ucrt64/include/c++/15.2.0/bits/random.h:673:       { return 0; }
	.loc 6 673 19
	popq	%rbp	 #
	.cfi_restore 6
	.cfi_def_cfa 7, 8
	ret	
	.cfi_endproc
.LFE5657:
	.seh_endproc
	.section	.text$_ZSt3maxIyERKT_S2_S2_,"x"
	.linkonce discard
	.globl	_ZSt3maxIyERKT_S2_S2_
	.def	_ZSt3maxIyERKT_S2_S2_;	.scl	2;	.type	32;	.endef
	.seh_proc	_ZSt3maxIyERKT_S2_S2_
_ZSt3maxIyERKT_S2_S2_:
.LFB5658:
	.file 9 "D:/msys64/ucrt64/include/c++/15.2.0/bits/stl_algobase.h"
	.loc 9 258 5
	.cfi_startproc
	pushq	%rbp	 #
	.seh_pushreg	%rbp
	.cfi_def_cfa_offset 16
	.cfi_offset 6, -16
	movq	%rsp, %rbp	 #,
	.seh_setframe	%rbp, 0
	.cfi_def_cfa_register 6
	.seh_endprologue
	movq	%rcx, 16(%rbp)	 # __a, __a
	movq	%rdx, 24(%rbp)	 # __b, __b
 # D:/msys64/ucrt64/include/c++/15.2.0/bits/stl_algobase.h:263:       if (__a < __b)
	.loc 9 263 15
	movq	16(%rbp), %rax	 # __a, tmp102
	movq	(%rax), %rdx	 # *__a_5(D), _1
	movq	24(%rbp), %rax	 # __b, tmp103
	movq	(%rax), %rax	 # *__b_6(D), _2
 # D:/msys64/ucrt64/include/c++/15.2.0/bits/stl_algobase.h:263:       if (__a < __b)
	.loc 9 263 7
	cmpq	%rax, %rdx	 # _2, _1
	jnb	.L67	 #,
 # D:/msys64/ucrt64/include/c++/15.2.0/bits/stl_algobase.h:264: 	return __b;
	.loc 9 264 9
	movq	24(%rbp), %rax	 # __b, _3
	jmp	.L68	 #
.L67:
 # D:/msys64/ucrt64/include/c++/15.2.0/bits/stl_algobase.h:265:       return __a;
	.loc 9 265 14
	movq	16(%rbp), %rax	 # __a, _3
.L68:
 # D:/msys64/ucrt64/include/c++/15.2.0/bits/stl_algobase.h:266:     }
	.loc 9 266 5
	popq	%rbp	 #
	.cfi_restore 6
	.cfi_def_cfa 7, 8
	ret	
	.cfi_endproc
.LFE5658:
	.seh_endproc
	.section	.text$_ZSt18generate_canonicalIdLy53ESt23mersenne_twister_engineIyLy64ELy312ELy156ELy31ELy13043109905998158313ELy29ELy6148914691236517205ELy17ELy8202884508482404352ELy37ELy18444473444759240704ELy43ELy6364136223846793005EEET_RT1_,"x"
	.linkonce discard
	.globl	_ZSt18generate_canonicalIdLy53ESt23mersenne_twister_engineIyLy64ELy312ELy156ELy31ELy13043109905998158313ELy29ELy6148914691236517205ELy17ELy8202884508482404352ELy37ELy18444473444759240704ELy43ELy6364136223846793005EEET_RT1_
	.def	_ZSt18generate_canonicalIdLy53ESt23mersenne_twister_engineIyLy64ELy312ELy156ELy31ELy13043109905998158313ELy29ELy6148914691236517205ELy17ELy8202884508482404352ELy37ELy18444473444759240704ELy43ELy6364136223846793005EEET_RT1_;	.scl	2;	.type	32;	.endef
	.seh_proc	_ZSt18generate_canonicalIdLy53ESt23mersenne_twister_engineIyLy64ELy312ELy156ELy31ELy13043109905998158313ELy29ELy6148914691236517205ELy17ELy8202884508482404352ELy37ELy18444473444759240704ELy43ELy6364136223846793005EEET_RT1_
_ZSt18generate_canonicalIdLy53ESt23mersenne_twister_engineIyLy64ELy312ELy156ELy31ELy13043109905998158313ELy29ELy6148914691236517205ELy17ELy8202884508482404352ELy37ELy18444473444759240704ELy43ELy6364136223846793005EEET_RT1_:
.LFB5655:
	.loc 8 3349 5
	.cfi_startproc
	pushq	%rbp	 #
	.seh_pushreg	%rbp
	.cfi_def_cfa_offset 16
	.cfi_offset 6, -16
	pushq	%rbx	 #
	.seh_pushreg	%rbx
	.cfi_def_cfa_offset 24
	.cfi_offset 3, -24
	subq	$184, %rsp	 #,
	.seh_stackalloc	184
	.cfi_def_cfa_offset 208
	leaq	176(%rsp), %rbp	 #,
	.seh_setframe	%rbp, 176
	.cfi_def_cfa 6, 32
	.seh_endprologue
	movq	%rcx, 32(%rbp)	 # __urng, __urng
 # D:/msys64/ucrt64/include/c++/15.2.0/bits/random.tcc:3354:       const size_t __b
	.loc 8 3354 20
	movq	$53, -40(%rbp)	 #, __b
 # D:/msys64/ucrt64/include/c++/15.2.0/bits/random.tcc:3357:       const long double __r = static_cast<long double>(__urng.max())
	.loc 8 3357 25
	fldt	.LC7(%rip)	 #
	fstpt	-64(%rbp)	 # __r
 # D:/msys64/ucrt64/include/c++/15.2.0/bits/random.tcc:3359:       const size_t __log2r = std::log(__r) / std::log(2.0L);
	.loc 8 3359 38
	leaq	-112(%rbp), %rax	 #, tmp117
	fldt	.LC7(%rip)	 #
	fstpt	-128(%rbp)	 #
	leaq	-128(%rbp), %rdx	 #, tmp119
	movq	%rax, %rcx	 # tmp117,
	call	_ZSt3loge	 #
	fldt	-112(%rbp)	 #
	fstpt	-144(%rbp)	 # %sfp
 # D:/msys64/ucrt64/include/c++/15.2.0/bits/random.tcc:3359:       const size_t __log2r = std::log(__r) / std::log(2.0L);
	.loc 8 3359 54 discriminator 1
	leaq	-112(%rbp), %rax	 #, tmp120
	fldt	.LC8(%rip)	 #
	fstpt	-128(%rbp)	 #
	leaq	-128(%rbp), %rdx	 #, tmp122
	movq	%rax, %rcx	 # tmp120,
	call	_ZSt3loge	 #
	fldt	-112(%rbp)	 #
 # D:/msys64/ucrt64/include/c++/15.2.0/bits/random.tcc:3359:       const size_t __log2r = std::log(__r) / std::log(2.0L);
	.loc 8 3359 44 discriminator 2
	fldt	-144(%rbp)	 # %sfp
	fdivp	%st, %st(1)	 #,
 # D:/msys64/ucrt64/include/c++/15.2.0/bits/random.tcc:3359:       const size_t __log2r = std::log(__r) / std::log(2.0L);
	.loc 8 3359 20 discriminator 2
	fldt	.LC9(%rip)	 #
	fxch	%st(1)		 #
	fcomi	%st(1), %st	 #,
	fstp	%st(1)		 #
	jnb	.L70	 #,
	fisttpq	-72(%rbp)	 # __log2r
	jmp	.L71	 #
.L70:
	fldt	.LC9(%rip)	 #
	fsubrp	%st, %st(1)	 #,
	fisttpq	-72(%rbp)	 # __log2r
	movabsq	$-9223372036854775808, %rax	 #, tmp126
	xorq	%rax, -72(%rbp)	 # tmp126, __log2r
.L71:
	movq	-72(%rbp), %rax	 # __log2r, tmp127
	movq	%rax, -72(%rbp)	 # tmp127, __log2r
 # D:/msys64/ucrt64/include/c++/15.2.0/bits/random.tcc:3361: 					  (__b + __log2r - 1UL) / __log2r);
	.loc 8 3361 23
	movq	-72(%rbp), %rax	 # __log2r, tmp128
	addq	$52, %rax	 #, _4
 # D:/msys64/ucrt64/include/c++/15.2.0/bits/random.tcc:3361: 					  (__b + __log2r - 1UL) / __log2r);
	.loc 8 3361 30
	movl	$0, %edx	 #, tmp130
	divq	-72(%rbp)	 # __log2r
	movq	%rax, -96(%rbp)	 # _5, D.95406
 # D:/msys64/ucrt64/include/c++/15.2.0/bits/random.tcc:3360:       const size_t __m = std::max<size_t>(1UL,
	.loc 8 3360 43
	movq	$1, -88(%rbp)	 #, D.95405
 # D:/msys64/ucrt64/include/c++/15.2.0/bits/random.tcc:3360:       const size_t __m = std::max<size_t>(1UL,
	.loc 8 3360 42
	leaq	-96(%rbp), %rdx	 #, tmp131
	leaq	-88(%rbp), %rax	 #, tmp132
	movq	%rax, %rcx	 # tmp132,
	call	_ZSt3maxIyERKT_S2_S2_	 #
 # D:/msys64/ucrt64/include/c++/15.2.0/bits/random.tcc:3360:       const size_t __m = std::max<size_t>(1UL,
	.loc 8 3360 20 discriminator 1
	movq	(%rax), %rax	 # *_6, tmp133
	movq	%rax, -80(%rbp)	 # tmp133, __m
 # D:/msys64/ucrt64/include/c++/15.2.0/bits/random.tcc:3363:       _RealType __sum = _RealType(0);
	.loc 8 3363 17
	pxor	%xmm0, %xmm0	 # tmp134
	movsd	%xmm0, -16(%rbp)	 # tmp134, __sum
 # D:/msys64/ucrt64/include/c++/15.2.0/bits/random.tcc:3364:       _RealType __tmp = _RealType(1);
	.loc 8 3364 17
	movsd	.LC1(%rip), %xmm0	 #, tmp135
	movsd	%xmm0, -24(%rbp)	 # tmp135, __tmp
.LBB54:
 # D:/msys64/ucrt64/include/c++/15.2.0/bits/random.tcc:3365:       for (size_t __k = __m; __k != 0; --__k)
	.loc 8 3365 19
	movq	-80(%rbp), %rax	 # __m, tmp136
	movq	%rax, -32(%rbp)	 # tmp136, __k
 # D:/msys64/ucrt64/include/c++/15.2.0/bits/random.tcc:3365:       for (size_t __k = __m; __k != 0; --__k)
	.loc 8 3365 7
	jmp	.L72	 #
.L75:
 # D:/msys64/ucrt64/include/c++/15.2.0/bits/random.tcc:3367: 	  __sum += _RealType(__urng() - __urng.min()) * __tmp;
	.loc 8 3367 29
	movq	32(%rbp), %rax	 # __urng, tmp137
	movq	%rax, %rcx	 # tmp137,
	call	_ZNSt23mersenne_twister_engineIyLy64ELy312ELy156ELy31ELy13043109905998158313ELy29ELy6148914691236517205ELy17ELy8202884508482404352ELy37ELy18444473444759240704ELy43ELy6364136223846793005EEclEv	 #
	movq	%rax, %rbx	 #, _7
 # D:/msys64/ucrt64/include/c++/15.2.0/bits/random.tcc:3367: 	  __sum += _RealType(__urng() - __urng.min()) * __tmp;
	.loc 8 3367 44 discriminator 1
	call	_ZNSt23mersenne_twister_engineIyLy64ELy312ELy156ELy31ELy13043109905998158313ELy29ELy6148914691236517205ELy17ELy8202884508482404352ELy37ELy18444473444759240704ELy43ELy6364136223846793005EE3minEv	 #
	movq	%rax, %rdx	 #, _8
 # D:/msys64/ucrt64/include/c++/15.2.0/bits/random.tcc:3367: 	  __sum += _RealType(__urng() - __urng.min()) * __tmp;
	.loc 8 3367 32 discriminator 2
	movq	%rbx, %rax	 # _7, _7
	subq	%rdx, %rax	 # _8, _7
 # D:/msys64/ucrt64/include/c++/15.2.0/bits/random.tcc:3367: 	  __sum += _RealType(__urng() - __urng.min()) * __tmp;
	.loc 8 3367 13 discriminator 2
	testq	%rax, %rax	 # _9
	js	.L73	 #,
	pxor	%xmm0, %xmm0	 # _10
	cvtsi2sdq	%rax, %xmm0	 # _9, _10
	jmp	.L74	 #
.L73:
	movq	%rax, %rdx	 # _9, tmp139
	shrq	%rdx	 # tmp139
	andl	$1, %eax	 #, tmp140
	orq	%rax, %rdx	 # tmp140, tmp139
	pxor	%xmm0, %xmm0	 # tmp138
	cvtsi2sdq	%rdx, %xmm0	 # tmp139, tmp138
	addsd	%xmm0, %xmm0	 # tmp138, _10
.L74:
 # D:/msys64/ucrt64/include/c++/15.2.0/bits/random.tcc:3367: 	  __sum += _RealType(__urng() - __urng.min()) * __tmp;
	.loc 8 3367 48 discriminator 2
	mulsd	-24(%rbp), %xmm0	 # __tmp, _43
 # D:/msys64/ucrt64/include/c++/15.2.0/bits/random.tcc:3367: 	  __sum += _RealType(__urng() - __urng.min()) * __tmp;
	.loc 8 3367 10 discriminator 2
	movsd	-16(%rbp), %xmm1	 # __sum, tmp142
	addsd	%xmm1, %xmm0	 # tmp142, __sum_44
	movsd	%xmm0, -16(%rbp)	 # __sum_44, __sum
 # D:/msys64/ucrt64/include/c++/15.2.0/bits/random.tcc:3368: 	  __tmp *= __r;
	.loc 8 3368 10
	fldl	-24(%rbp)	 # __tmp
	fldt	.LC7(%rip)	 #
	fmulp	%st, %st(1)	 #,
	fstpl	-24(%rbp)	 # __tmp
 # D:/msys64/ucrt64/include/c++/15.2.0/bits/random.tcc:3365:       for (size_t __k = __m; __k != 0; --__k)
	.loc 8 3365 7 discriminator 3
	subq	$1, -32(%rbp)	 #, __k
.L72:
 # D:/msys64/ucrt64/include/c++/15.2.0/bits/random.tcc:3365:       for (size_t __k = __m; __k != 0; --__k)
	.loc 8 3365 34 discriminator 1
	cmpq	$0, -32(%rbp)	 #, __k
	jne	.L75	 #,
.LBE54:
 # D:/msys64/ucrt64/include/c++/15.2.0/bits/random.tcc:3370:       __ret = __sum / __tmp;
	.loc 8 3370 13
	movsd	-16(%rbp), %xmm0	 # __sum, tmp145
	divsd	-24(%rbp), %xmm0	 # __tmp, __ret_36
	movsd	%xmm0, -8(%rbp)	 # __ret_36, __ret
 # D:/msys64/ucrt64/include/c++/15.2.0/bits/random.tcc:3371:       if (__builtin_expect(__ret >= _RealType(1), 0))
	.loc 8 3371 34
	movsd	-8(%rbp), %xmm0	 # __ret, tmp146
	movsd	.LC1(%rip), %xmm1	 #, tmp147
	comisd	%xmm1, %xmm0	 # tmp147, tmp146
	setnb	%al	 #, _13
 # D:/msys64/ucrt64/include/c++/15.2.0/bits/random.tcc:3371:       if (__builtin_expect(__ret >= _RealType(1), 0))
	.loc 8 3371 27
	movzbl	%al, %eax	 # _13, _14
 # D:/msys64/ucrt64/include/c++/15.2.0/bits/random.tcc:3371:       if (__builtin_expect(__ret >= _RealType(1), 0))
	.loc 8 3371 7 discriminator 1
	testl	%eax, %eax	 # _15
	je	.L76	 #,
 # D:/msys64/ucrt64/include/c++/15.2.0/bits/random.tcc:3374: 	  __ret = std::nextafter(_RealType(1), _RealType(0));
	.loc 8 3374 10
	movsd	.LC10(%rip), %xmm0	 #, tmp148
	movsd	%xmm0, -8(%rbp)	 # tmp148, __ret
.L76:
 # D:/msys64/ucrt64/include/c++/15.2.0/bits/random.tcc:3380:       return __ret;
	.loc 8 3380 14
	movsd	-8(%rbp), %xmm0	 # __ret, _38
 # D:/msys64/ucrt64/include/c++/15.2.0/bits/random.tcc:3381:     }
	.loc 8 3381 5
	addq	$184, %rsp	 #,
	popq	%rbx	 #
	.cfi_restore 3
	popq	%rbp	 #
	.cfi_restore 6
	.cfi_def_cfa 7, -168
	ret	
	.cfi_endproc
.LFE5655:
	.seh_endproc
	.section	.text$_ZNSt23mersenne_twister_engineIyLy64ELy312ELy156ELy31ELy13043109905998158313ELy29ELy6148914691236517205ELy17ELy8202884508482404352ELy37ELy18444473444759240704ELy43ELy6364136223846793005EEclEv,"x"
	.linkonce discard
	.align 2
	.globl	_ZNSt23mersenne_twister_engineIyLy64ELy312ELy156ELy31ELy13043109905998158313ELy29ELy6148914691236517205ELy17ELy8202884508482404352ELy37ELy18444473444759240704ELy43ELy6364136223846793005EEclEv
	.def	_ZNSt23mersenne_twister_engineIyLy64ELy312ELy156ELy31ELy13043109905998158313ELy29ELy6148914691236517205ELy17ELy8202884508482404352ELy37ELy18444473444759240704ELy43ELy6364136223846793005EEclEv;	.scl	2;	.type	32;	.endef
	.seh_proc	_ZNSt23mersenne_twister_engineIyLy64ELy312ELy156ELy31ELy13043109905998158313ELy29ELy6148914691236517205ELy17ELy8202884508482404352ELy37ELy18444473444759240704ELy43ELy6364136223846793005EEclEv
_ZNSt23mersenne_twister_engineIyLy64ELy312ELy156ELy31ELy13043109905998158313ELy29ELy6148914691236517205ELy17ELy8202884508482404352ELy37ELy18444473444759240704ELy43ELy6364136223846793005EEclEv:
.LFB5692:
	.loc 8 453 5
	.cfi_startproc
	pushq	%rbp	 #
	.seh_pushreg	%rbp
	.cfi_def_cfa_offset 16
	.cfi_offset 6, -16
	movq	%rsp, %rbp	 #,
	.seh_setframe	%rbp, 0
	.cfi_def_cfa_register 6
	subq	$48, %rsp	 #,
	.seh_stackalloc	48
	.seh_endprologue
	movq	%rcx, 16(%rbp)	 # this, this
 # D:/msys64/ucrt64/include/c++/15.2.0/bits/random.tcc:458:       if (_M_p >= state_size)
	.loc 8 458 11
	movq	16(%rbp), %rax	 # this, tmp110
	movq	2496(%rax), %rax	 # this_14(D)->_M_p, _1
 # D:/msys64/ucrt64/include/c++/15.2.0/bits/random.tcc:458:       if (_M_p >= state_size)
	.loc 8 458 7
	cmpq	$311, %rax	 #, _1
	jbe	.L79	 #,
 # D:/msys64/ucrt64/include/c++/15.2.0/bits/random.tcc:459: 	_M_gen_rand();
	.loc 8 459 13
	movq	16(%rbp), %rax	 # this, tmp111
	movq	%rax, %rcx	 # tmp111,
	call	_ZNSt23mersenne_twister_engineIyLy64ELy312ELy156ELy31ELy13043109905998158313ELy29ELy6148914691236517205ELy17ELy8202884508482404352ELy37ELy18444473444759240704ELy43ELy6364136223846793005EE11_M_gen_randEv	 #
.L79:
 # D:/msys64/ucrt64/include/c++/15.2.0/bits/random.tcc:462:       result_type __z = _M_x[_M_p++];
	.loc 8 462 30
	movq	16(%rbp), %rax	 # this, tmp112
	movq	2496(%rax), %rax	 # this_14(D)->_M_p, _2
 # D:/msys64/ucrt64/include/c++/15.2.0/bits/random.tcc:462:       result_type __z = _M_x[_M_p++];
	.loc 8 462 29
	leaq	1(%rax), %rcx	 #, _4
	movq	16(%rbp), %rdx	 # this, tmp113
	movq	%rcx, 2496(%rdx)	 # _4, this_14(D)->_M_p
 # D:/msys64/ucrt64/include/c++/15.2.0/bits/random.tcc:462:       result_type __z = _M_x[_M_p++];
	.loc 8 462 19
	movq	16(%rbp), %rdx	 # this, tmp114
	movq	(%rdx,%rax,8), %rax	 # this_14(D)->_M_x[_3], tmp115
	movq	%rax, -8(%rbp)	 # tmp115, __z
 # D:/msys64/ucrt64/include/c++/15.2.0/bits/random.tcc:463:       __z ^= (__z >> __u) & __d;
	.loc 8 463 19
	movq	-8(%rbp), %rax	 # __z, tmp116
	shrq	$29, %rax	 #, tmp116
	movq	%rax, %rdx	 # tmp116, _5
 # D:/msys64/ucrt64/include/c++/15.2.0/bits/random.tcc:463:       __z ^= (__z >> __u) & __d;
	.loc 8 463 27
	movabsq	$6148914691236517205, %rax	 #, tmp117
	andq	%rdx, %rax	 # _5, _6
 # D:/msys64/ucrt64/include/c++/15.2.0/bits/random.tcc:463:       __z ^= (__z >> __u) & __d;
	.loc 8 463 11
	xorq	%rax, -8(%rbp)	 # _6, __z
 # D:/msys64/ucrt64/include/c++/15.2.0/bits/random.tcc:464:       __z ^= (__z << __s) & __b;
	.loc 8 464 19
	movq	-8(%rbp), %rax	 # __z, tmp118
	salq	$17, %rax	 #, tmp118
	movq	%rax, %rdx	 # tmp118, _7
 # D:/msys64/ucrt64/include/c++/15.2.0/bits/random.tcc:464:       __z ^= (__z << __s) & __b;
	.loc 8 464 27
	movabsq	$8202884508482404352, %rax	 #, tmp119
	andq	%rdx, %rax	 # _7, _8
 # D:/msys64/ucrt64/include/c++/15.2.0/bits/random.tcc:464:       __z ^= (__z << __s) & __b;
	.loc 8 464 11
	xorq	%rax, -8(%rbp)	 # _8, __z
 # D:/msys64/ucrt64/include/c++/15.2.0/bits/random.tcc:465:       __z ^= (__z << __t) & __c;
	.loc 8 465 19
	movq	-8(%rbp), %rax	 # __z, tmp120
	salq	$37, %rax	 #, tmp120
	movq	%rax, %rdx	 # tmp120, _9
 # D:/msys64/ucrt64/include/c++/15.2.0/bits/random.tcc:465:       __z ^= (__z << __t) & __c;
	.loc 8 465 27
	movabsq	$-2270628950310912, %rax	 #, tmp121
	andq	%rdx, %rax	 # _9, _10
 # D:/msys64/ucrt64/include/c++/15.2.0/bits/random.tcc:465:       __z ^= (__z << __t) & __c;
	.loc 8 465 11
	xorq	%rax, -8(%rbp)	 # _10, __z
 # D:/msys64/ucrt64/include/c++/15.2.0/bits/random.tcc:466:       __z ^= (__z >> __l);
	.loc 8 466 19
	movq	-8(%rbp), %rax	 # __z, tmp122
	shrq	$43, %rax	 #, _11
 # D:/msys64/ucrt64/include/c++/15.2.0/bits/random.tcc:466:       __z ^= (__z >> __l);
	.loc 8 466 11
	xorq	%rax, -8(%rbp)	 # _11, __z
 # D:/msys64/ucrt64/include/c++/15.2.0/bits/random.tcc:468:       return __z;
	.loc 8 468 14
	movq	-8(%rbp), %rax	 # __z, _22
 # D:/msys64/ucrt64/include/c++/15.2.0/bits/random.tcc:469:     }
	.loc 8 469 5
	addq	$48, %rsp	 #,
	popq	%rbp	 #
	.cfi_restore 6
	.cfi_def_cfa 7, 8
	ret	
	.cfi_endproc
.LFE5692:
	.seh_endproc
	.section	.text$_ZNSt23mersenne_twister_engineIyLy64ELy312ELy156ELy31ELy13043109905998158313ELy29ELy6148914691236517205ELy17ELy8202884508482404352ELy37ELy18444473444759240704ELy43ELy6364136223846793005EE11_M_gen_randEv,"x"
	.linkonce discard
	.align 2
	.globl	_ZNSt23mersenne_twister_engineIyLy64ELy312ELy156ELy31ELy13043109905998158313ELy29ELy6148914691236517205ELy17ELy8202884508482404352ELy37ELy18444473444759240704ELy43ELy6364136223846793005EE11_M_gen_randEv
	.def	_ZNSt23mersenne_twister_engineIyLy64ELy312ELy156ELy31ELy13043109905998158313ELy29ELy6148914691236517205ELy17ELy8202884508482404352ELy37ELy18444473444759240704ELy43ELy6364136223846793005EE11_M_gen_randEv;	.scl	2;	.type	32;	.endef
	.seh_proc	_ZNSt23mersenne_twister_engineIyLy64ELy312ELy156ELy31ELy13043109905998158313ELy29ELy6148914691236517205ELy17ELy8202884508482404352ELy37ELy18444473444759240704ELy43ELy6364136223846793005EE11_M_gen_randEv
_ZNSt23mersenne_twister_engineIyLy64ELy312ELy156ELy31ELy13043109905998158313ELy29ELy6148914691236517205ELy17ELy8202884508482404352ELy37ELy18444473444759240704ELy43ELy6364136223846793005EE11_M_gen_randEv:
.LFB5713:
	.loc 8 397 5
	.cfi_startproc
	pushq	%rbp	 #
	.seh_pushreg	%rbp
	.cfi_def_cfa_offset 16
	.cfi_offset 6, -16
	movq	%rsp, %rbp	 #,
	.seh_setframe	%rbp, 0
	.cfi_def_cfa_register 6
	subq	$64, %rsp	 #,
	.seh_stackalloc	64
	.seh_endprologue
	movq	%rcx, 16(%rbp)	 # this, this
 # D:/msys64/ucrt64/include/c++/15.2.0/bits/random.tcc:401:       const _UIntType __upper_mask = (~_UIntType()) << __r;
	.loc 8 401 23
	movq	$-2147483648, -24(%rbp)	 #, __upper_mask
 # D:/msys64/ucrt64/include/c++/15.2.0/bits/random.tcc:402:       const _UIntType __lower_mask = ~__upper_mask;
	.loc 8 402 23
	movq	$2147483647, -32(%rbp)	 #, __lower_mask
.LBB55:
 # D:/msys64/ucrt64/include/c++/15.2.0/bits/random.tcc:404:       for (size_t __k = 0; __k < (__n - __m); ++__k)
	.loc 8 404 19
	movq	$0, -8(%rbp)	 #, __k
 # D:/msys64/ucrt64/include/c++/15.2.0/bits/random.tcc:404:       for (size_t __k = 0; __k < (__n - __m); ++__k)
	.loc 8 404 7
	jmp	.L82	 #
.L85:
.LBB56:
 # D:/msys64/ucrt64/include/c++/15.2.0/bits/random.tcc:406: 	  _UIntType __y = ((_M_x[__k] & __upper_mask)
	.loc 8 406 26
	movq	16(%rbp), %rax	 # this, tmp132
	movq	-8(%rbp), %rdx	 # __k, tmp133
	movq	(%rax,%rdx,8), %rax	 # this_44(D)->_M_x[__k_32], _1
 # D:/msys64/ucrt64/include/c++/15.2.0/bits/random.tcc:406: 	  _UIntType __y = ((_M_x[__k] & __upper_mask)
	.loc 8 406 32
	andq	$-2147483648, %rax	 #, _1
	movq	%rax, %rcx	 # _1, _2
 # D:/msys64/ucrt64/include/c++/15.2.0/bits/random.tcc:407: 			   | (_M_x[__k + 1] & __lower_mask));
	.loc 8 407 19
	movq	-8(%rbp), %rax	 # __k, tmp134
	leaq	1(%rax), %rdx	 #, _3
 # D:/msys64/ucrt64/include/c++/15.2.0/bits/random.tcc:407: 			   | (_M_x[__k + 1] & __lower_mask));
	.loc 8 407 14
	movq	16(%rbp), %rax	 # this, tmp135
	movq	(%rax,%rdx,8), %rax	 # this_44(D)->_M_x[_3], _4
 # D:/msys64/ucrt64/include/c++/15.2.0/bits/random.tcc:407: 			   | (_M_x[__k + 1] & __lower_mask));
	.loc 8 407 24
	andl	$2147483647, %eax	 #, _5
 # D:/msys64/ucrt64/include/c++/15.2.0/bits/random.tcc:406: 	  _UIntType __y = ((_M_x[__k] & __upper_mask)
	.loc 8 406 14
	orq	%rcx, %rax	 # _2, tmp136
	movq	%rax, -56(%rbp)	 # tmp136, __y
 # D:/msys64/ucrt64/include/c++/15.2.0/bits/random.tcc:408: 	  _M_x[__k] = (_M_x[__k + __m] ^ (__y >> 1)
	.loc 8 408 26
	movq	-8(%rbp), %rax	 # __k, tmp137
	leaq	156(%rax), %rdx	 #, _6
 # D:/msys64/ucrt64/include/c++/15.2.0/bits/random.tcc:408: 	  _M_x[__k] = (_M_x[__k + __m] ^ (__y >> 1)
	.loc 8 408 21
	movq	16(%rbp), %rax	 # this, tmp138
	movq	(%rax,%rdx,8), %rax	 # this_44(D)->_M_x[_6], _7
 # D:/msys64/ucrt64/include/c++/15.2.0/bits/random.tcc:408: 	  _M_x[__k] = (_M_x[__k + __m] ^ (__y >> 1)
	.loc 8 408 40
	movq	-56(%rbp), %rdx	 # __y, tmp139
	shrq	%rdx	 # _8
 # D:/msys64/ucrt64/include/c++/15.2.0/bits/random.tcc:408: 	  _M_x[__k] = (_M_x[__k + __m] ^ (__y >> 1)
	.loc 8 408 33
	xorq	%rax, %rdx	 # _7, _9
 # D:/msys64/ucrt64/include/c++/15.2.0/bits/random.tcc:409: 		       ^ ((__y & 0x01) ? __a : 0));
	.loc 8 409 18
	movq	-56(%rbp), %rax	 # __y, tmp140
	andl	$1, %eax	 #, _10
 # D:/msys64/ucrt64/include/c++/15.2.0/bits/random.tcc:409: 		       ^ ((__y & 0x01) ? __a : 0));
	.loc 8 409 26
	testq	%rax, %rax	 # _10
	je	.L83	 #,
 # D:/msys64/ucrt64/include/c++/15.2.0/bits/random.tcc:409: 		       ^ ((__y & 0x01) ? __a : 0));
	.loc 8 409 26 is_stmt 0 discriminator 1
	movabsq	$-5403634167711393303, %rax	 #, iftmp.0_34
	jmp	.L84	 #
.L83:
 # D:/msys64/ucrt64/include/c++/15.2.0/bits/random.tcc:409: 		       ^ ((__y & 0x01) ? __a : 0));
	.loc 8 409 26 discriminator 2
	movl	$0, %eax	 #, iftmp.0_34
.L84:
 # D:/msys64/ucrt64/include/c++/15.2.0/bits/random.tcc:409: 		       ^ ((__y & 0x01) ? __a : 0));
	.loc 8 409 10 is_stmt 1 discriminator 4
	xorq	%rdx, %rax	 # _9, iftmp.0_34
	movq	%rax, %rcx	 # iftmp.0_34, _11
 # D:/msys64/ucrt64/include/c++/15.2.0/bits/random.tcc:408: 	  _M_x[__k] = (_M_x[__k + __m] ^ (__y >> 1)
	.loc 8 408 14
	movq	16(%rbp), %rax	 # this, tmp141
	movq	-8(%rbp), %rdx	 # __k, tmp142
	movq	%rcx, (%rax,%rdx,8)	 # _11, this_44(D)->_M_x[__k_32]
.LBE56:
 # D:/msys64/ucrt64/include/c++/15.2.0/bits/random.tcc:404:       for (size_t __k = 0; __k < (__n - __m); ++__k)
	.loc 8 404 7 discriminator 2
	addq	$1, -8(%rbp)	 #, __k
.L82:
 # D:/msys64/ucrt64/include/c++/15.2.0/bits/random.tcc:404:       for (size_t __k = 0; __k < (__n - __m); ++__k)
	.loc 8 404 32 discriminator 1
	cmpq	$155, -8(%rbp)	 #, __k
	jbe	.L85	 #,
.LBE55:
.LBB57:
 # D:/msys64/ucrt64/include/c++/15.2.0/bits/random.tcc:412:       for (size_t __k = (__n - __m); __k < (__n - 1); ++__k)
	.loc 8 412 19
	movq	$156, -16(%rbp)	 #, __k
 # D:/msys64/ucrt64/include/c++/15.2.0/bits/random.tcc:412:       for (size_t __k = (__n - __m); __k < (__n - 1); ++__k)
	.loc 8 412 7
	jmp	.L86	 #
.L89:
.LBB58:
 # D:/msys64/ucrt64/include/c++/15.2.0/bits/random.tcc:414: 	  _UIntType __y = ((_M_x[__k] & __upper_mask)
	.loc 8 414 26
	movq	16(%rbp), %rax	 # this, tmp143
	movq	-16(%rbp), %rdx	 # __k, tmp144
	movq	(%rax,%rdx,8), %rax	 # this_44(D)->_M_x[__k_33], _12
 # D:/msys64/ucrt64/include/c++/15.2.0/bits/random.tcc:414: 	  _UIntType __y = ((_M_x[__k] & __upper_mask)
	.loc 8 414 32
	andq	$-2147483648, %rax	 #, _12
	movq	%rax, %rcx	 # _12, _13
 # D:/msys64/ucrt64/include/c++/15.2.0/bits/random.tcc:415: 			   | (_M_x[__k + 1] & __lower_mask));
	.loc 8 415 19
	movq	-16(%rbp), %rax	 # __k, tmp145
	leaq	1(%rax), %rdx	 #, _14
 # D:/msys64/ucrt64/include/c++/15.2.0/bits/random.tcc:415: 			   | (_M_x[__k + 1] & __lower_mask));
	.loc 8 415 14
	movq	16(%rbp), %rax	 # this, tmp146
	movq	(%rax,%rdx,8), %rax	 # this_44(D)->_M_x[_14], _15
 # D:/msys64/ucrt64/include/c++/15.2.0/bits/random.tcc:415: 			   | (_M_x[__k + 1] & __lower_mask));
	.loc 8 415 24
	andl	$2147483647, %eax	 #, _16
 # D:/msys64/ucrt64/include/c++/15.2.0/bits/random.tcc:414: 	  _UIntType __y = ((_M_x[__k] & __upper_mask)
	.loc 8 414 14
	orq	%rcx, %rax	 # _13, tmp147
	movq	%rax, -48(%rbp)	 # tmp147, __y
 # D:/msys64/ucrt64/include/c++/15.2.0/bits/random.tcc:416: 	  _M_x[__k] = (_M_x[__k + (__m - __n)] ^ (__y >> 1)
	.loc 8 416 26
	movq	-16(%rbp), %rax	 # __k, tmp148
	leaq	-156(%rax), %rdx	 #, _17
 # D:/msys64/ucrt64/include/c++/15.2.0/bits/random.tcc:416: 	  _M_x[__k] = (_M_x[__k + (__m - __n)] ^ (__y >> 1)
	.loc 8 416 21
	movq	16(%rbp), %rax	 # this, tmp149
	movq	(%rax,%rdx,8), %rax	 # this_44(D)->_M_x[_17], _18
 # D:/msys64/ucrt64/include/c++/15.2.0/bits/random.tcc:416: 	  _M_x[__k] = (_M_x[__k + (__m - __n)] ^ (__y >> 1)
	.loc 8 416 48
	movq	-48(%rbp), %rdx	 # __y, tmp150
	shrq	%rdx	 # _19
 # D:/msys64/ucrt64/include/c++/15.2.0/bits/random.tcc:416: 	  _M_x[__k] = (_M_x[__k + (__m - __n)] ^ (__y >> 1)
	.loc 8 416 41
	xorq	%rax, %rdx	 # _18, _20
 # D:/msys64/ucrt64/include/c++/15.2.0/bits/random.tcc:417: 		       ^ ((__y & 0x01) ? __a : 0));
	.loc 8 417 18
	movq	-48(%rbp), %rax	 # __y, tmp151
	andl	$1, %eax	 #, _21
 # D:/msys64/ucrt64/include/c++/15.2.0/bits/random.tcc:417: 		       ^ ((__y & 0x01) ? __a : 0));
	.loc 8 417 26
	testq	%rax, %rax	 # _21
	je	.L87	 #,
 # D:/msys64/ucrt64/include/c++/15.2.0/bits/random.tcc:417: 		       ^ ((__y & 0x01) ? __a : 0));
	.loc 8 417 26 is_stmt 0 discriminator 1
	movabsq	$-5403634167711393303, %rax	 #, iftmp.1_35
	jmp	.L88	 #
.L87:
 # D:/msys64/ucrt64/include/c++/15.2.0/bits/random.tcc:417: 		       ^ ((__y & 0x01) ? __a : 0));
	.loc 8 417 26 discriminator 2
	movl	$0, %eax	 #, iftmp.1_35
.L88:
 # D:/msys64/ucrt64/include/c++/15.2.0/bits/random.tcc:417: 		       ^ ((__y & 0x01) ? __a : 0));
	.loc 8 417 10 is_stmt 1 discriminator 4
	xorq	%rdx, %rax	 # _20, iftmp.1_35
	movq	%rax, %rcx	 # iftmp.1_35, _22
 # D:/msys64/ucrt64/include/c++/15.2.0/bits/random.tcc:416: 	  _M_x[__k] = (_M_x[__k + (__m - __n)] ^ (__y >> 1)
	.loc 8 416 14
	movq	16(%rbp), %rax	 # this, tmp152
	movq	-16(%rbp), %rdx	 # __k, tmp153
	movq	%rcx, (%rax,%rdx,8)	 # _22, this_44(D)->_M_x[__k_33]
.LBE58:
 # D:/msys64/ucrt64/include/c++/15.2.0/bits/random.tcc:412:       for (size_t __k = (__n - __m); __k < (__n - 1); ++__k)
	.loc 8 412 7 discriminator 2
	addq	$1, -16(%rbp)	 #, __k
.L86:
 # D:/msys64/ucrt64/include/c++/15.2.0/bits/random.tcc:412:       for (size_t __k = (__n - __m); __k < (__n - 1); ++__k)
	.loc 8 412 42 discriminator 1
	cmpq	$310, -16(%rbp)	 #, __k
	jbe	.L89	 #,
.LBE57:
 # D:/msys64/ucrt64/include/c++/15.2.0/bits/random.tcc:420:       _UIntType __y = ((_M_x[__n - 1] & __upper_mask)
	.loc 8 420 29
	movq	16(%rbp), %rax	 # this, tmp154
	movq	2488(%rax), %rax	 # this_44(D)->_M_x[311], _23
 # D:/msys64/ucrt64/include/c++/15.2.0/bits/random.tcc:420:       _UIntType __y = ((_M_x[__n - 1] & __upper_mask)
	.loc 8 420 39
	andq	$-2147483648, %rax	 #, _23
	movq	%rax, %rdx	 # _23, _24
 # D:/msys64/ucrt64/include/c++/15.2.0/bits/random.tcc:421: 		       | (_M_x[0] & __lower_mask));
	.loc 8 421 17
	movq	16(%rbp), %rax	 # this, tmp155
	movq	(%rax), %rax	 # this_44(D)->_M_x[0], _25
 # D:/msys64/ucrt64/include/c++/15.2.0/bits/random.tcc:421: 		       | (_M_x[0] & __lower_mask));
	.loc 8 421 21
	andl	$2147483647, %eax	 #, _26
 # D:/msys64/ucrt64/include/c++/15.2.0/bits/random.tcc:420:       _UIntType __y = ((_M_x[__n - 1] & __upper_mask)
	.loc 8 420 17
	orq	%rdx, %rax	 # _24, tmp156
	movq	%rax, -40(%rbp)	 # tmp156, __y
 # D:/msys64/ucrt64/include/c++/15.2.0/bits/random.tcc:422:       _M_x[__n - 1] = (_M_x[__m - 1] ^ (__y >> 1)
	.loc 8 422 28
	movq	16(%rbp), %rax	 # this, tmp157
	movq	1240(%rax), %rax	 # this_44(D)->_M_x[155], _27
 # D:/msys64/ucrt64/include/c++/15.2.0/bits/random.tcc:422:       _M_x[__n - 1] = (_M_x[__m - 1] ^ (__y >> 1)
	.loc 8 422 45
	movq	-40(%rbp), %rdx	 # __y, tmp158
	shrq	%rdx	 # _28
 # D:/msys64/ucrt64/include/c++/15.2.0/bits/random.tcc:422:       _M_x[__n - 1] = (_M_x[__m - 1] ^ (__y >> 1)
	.loc 8 422 38
	xorq	%rax, %rdx	 # _27, _29
 # D:/msys64/ucrt64/include/c++/15.2.0/bits/random.tcc:423: 		       ^ ((__y & 0x01) ? __a : 0));
	.loc 8 423 18
	movq	-40(%rbp), %rax	 # __y, tmp159
	andl	$1, %eax	 #, _30
 # D:/msys64/ucrt64/include/c++/15.2.0/bits/random.tcc:423: 		       ^ ((__y & 0x01) ? __a : 0));
	.loc 8 423 26
	testq	%rax, %rax	 # _30
	je	.L90	 #,
 # D:/msys64/ucrt64/include/c++/15.2.0/bits/random.tcc:423: 		       ^ ((__y & 0x01) ? __a : 0));
	.loc 8 423 26 is_stmt 0 discriminator 1
	movabsq	$-5403634167711393303, %rax	 #, iftmp.2_36
	jmp	.L91	 #
.L90:
 # D:/msys64/ucrt64/include/c++/15.2.0/bits/random.tcc:423: 		       ^ ((__y & 0x01) ? __a : 0));
	.loc 8 423 26 discriminator 2
	movl	$0, %eax	 #, iftmp.2_36
.L91:
 # D:/msys64/ucrt64/include/c++/15.2.0/bits/random.tcc:423: 		       ^ ((__y & 0x01) ? __a : 0));
	.loc 8 423 10 is_stmt 1 discriminator 4
	xorq	%rax, %rdx	 # iftmp.2_36, _31
 # D:/msys64/ucrt64/include/c++/15.2.0/bits/random.tcc:422:       _M_x[__n - 1] = (_M_x[__m - 1] ^ (__y >> 1)
	.loc 8 422 21
	movq	16(%rbp), %rax	 # this, tmp160
	movq	%rdx, 2488(%rax)	 # _31, this_44(D)->_M_x[311]
 # D:/msys64/ucrt64/include/c++/15.2.0/bits/random.tcc:424:       _M_p = 0;
	.loc 8 424 12
	movq	16(%rbp), %rax	 # this, tmp161
	movq	$0, 2496(%rax)	 #, this_44(D)->_M_p
 # D:/msys64/ucrt64/include/c++/15.2.0/bits/random.tcc:425:     }
	.loc 8 425 5
	nop	
	addq	$64, %rsp	 #,
	popq	%rbp	 #
	.cfi_restore 6
	.cfi_def_cfa 7, 8
	ret	
	.cfi_endproc
.LFE5713:
	.seh_endproc
	.section .rdata,"dr"
	.align 8
.LC1:
	.long	0
	.long	1072693248
	.align 8
.LC6:
	.long	0
	.long	-1073741824
	.align 16
.LC7:
	.long	0
	.long	-2147483648
	.long	16447
	.long	0
	.align 16
.LC8:
	.long	0
	.long	-2147483648
	.long	16384
	.long	0
	.align 16
.LC9:
	.long	0
	.long	-2147483648
	.long	16446
	.long	0
	.align 8
.LC10:
	.long	-1
	.long	1072693247
	.text
.Letext0:
	.file 10 "D:/msys64/ucrt64/include/c++/15.2.0/type_traits"
	.file 11 "D:/msys64/ucrt64/include/c++/15.2.0/x86_64-w64-mingw32/bits/c++config.h"
	.file 12 "D:/msys64/ucrt64/include/c++/15.2.0/bits/utility.h"
	.file 13 "D:/msys64/ucrt64/include/c++/15.2.0/concepts"
	.file 14 "D:/msys64/ucrt64/include/c++/15.2.0/bits/iterator_concepts.h"
	.file 15 "D:/msys64/ucrt64/include/c++/15.2.0/compare"
	.file 16 "D:/msys64/ucrt64/include/c++/15.2.0/debug/debug.h"
	.file 17 "D:/msys64/ucrt64/include/c++/15.2.0/cstdint"
	.file 18 "D:/msys64/ucrt64/include/c++/15.2.0/cstdlib"
	.file 19 "D:/msys64/ucrt64/include/c++/15.2.0/cwchar"
	.file 20 "D:/msys64/ucrt64/include/c++/15.2.0/clocale"
	.file 21 "D:/msys64/ucrt64/include/c++/15.2.0/numbers"
	.file 22 "D:/msys64/ucrt64/include/c++/15.2.0/cstdio"
	.file 23 "D:/msys64/ucrt64/include/c++/15.2.0/cstddef"
	.file 24 "D:/msys64/ucrt64/include/c++/15.2.0/bits/memory_resource.h"
	.file 25 "D:/msys64/ucrt64/include/c++/15.2.0/bits/new_allocator.h"
	.file 26 "D:/msys64/ucrt64/include/c++/15.2.0/bits/allocator.h"
	.file 27 "D:/msys64/ucrt64/include/c++/15.2.0/bits/alloc_traits.h"
	.file 28 "D:/msys64/ucrt64/include/c++/15.2.0/bits/vector.tcc"
	.file 29 "D:/msys64/ucrt64/include/c++/15.2.0/initializer_list"
	.file 30 "D:/msys64/ucrt64/include/c++/15.2.0/bits/stl_iterator_base_types.h"
	.file 31 "D:/msys64/ucrt64/include/c++/15.2.0/bits/exception_ptr.h"
	.file 32 "D:/msys64/ucrt64/include/c++/15.2.0/system_error"
	.file 33 "D:/msys64/ucrt64/include/c++/15.2.0/cwctype"
	.file 34 "D:/msys64/ucrt64/include/c++/15.2.0/bits/predefined_ops.h"
	.file 35 "D:/msys64/ucrt64/include/c++/15.2.0/ext/alloc_traits.h"
	.file 36 "D:/msys64/ucrt64/include/corecrt.h"
	.file 37 "D:/msys64/ucrt64/include/math.h"
	.file 38 "D:/msys64/ucrt64/include/stdlib.h"
	.file 39 "D:/msys64/ucrt64/include/c++/15.2.0/bits/ptr_traits.h"
	.file 40 "D:/msys64/ucrt64/lib/gcc/x86_64-w64-mingw32/15.2.0/include/stddef.h"
	.file 41 "D:/msys64/ucrt64/include/stdint.h"
	.file 42 "D:/msys64/ucrt64/include/wchar.h"
	.file 43 "D:/msys64/ucrt64/include/swprintf.inl"
	.file 44 "D:/msys64/ucrt64/include/stdio.h"
	.file 45 "D:/msys64/ucrt64/include/locale.h"
	.file 46 "D:/msys64/ucrt64/include/c++/15.2.0/pstl/execution_defs.h"
	.file 47 "D:/msys64/ucrt64/include/wctype.h"
	.file 48 "D:/msys64/ucrt64/include/corecrt_wctype.h"
	.file 49 "E:/Projects/Simulation_Projects/cva_cpp/includes_hpp/math/random.hpp"