	.file	"gtest_basic.cpp"
 # GNU C++20 (Rev8, Built by MSYS2 project) version 15.2.0 (x86_64-w64-mingw32)
 #	compiled by GNU C version 15.2.0, GMP version 6.3.0, MPFR version 4.2.2, MPC version 1.3.1, isl version isl-0.27-GMP

 # GGC heuristics: --param ggc-min-expand=100 --param ggc-min-heapsize=131072
 # options passed: -mtune=generic -march=nocona -g -std=c++20
	.text
.Ltext0:
	.cfi_sections	.debug_frame
	.file 0 "E://Projects//Simulation_Projects//cva_cpp//build//tests" "E:/Projects/Simulation_Projects/cva_cpp/tests/gtest_basic.cpp"
	.section	.text$_ZSt21is_constant_evaluatedv,"x"
	.linkonce discard
	.globl	_ZSt21is_constant_evaluatedv
	.def	_ZSt21is_constant_evaluatedv;	.scl	2;	.type	32;	.endef
	.seh_proc	_ZSt21is_constant_evaluatedv
_ZSt21is_constant_evaluatedv:
.LFB15:
	.file 1 "D:/msys64/ucrt64/include/c++/15.2.0/type_traits"
	.loc 1 4007 3
	.cfi_startproc
	pushq	%rbp	 #
	.seh_pushreg	%rbp
	.cfi_def_cfa_offset 16
	.cfi_offset 6, -16
	movq	%rsp, %rbp	 #,
	.seh_setframe	%rbp, 0
	.cfi_def_cfa_register 6
	.seh_endprologue
 # D:/msys64/ucrt64/include/c++/15.2.0/type_traits:4011:     return __builtin_is_constant_evaluated();
	.loc 1 4011 44
	movl	$0, %eax	 #, _1
 # D:/msys64/ucrt64/include/c++/15.2.0/type_traits:4013:   }
	.loc 1 4013 3
	popq	%rbp	 #
	.cfi_restore 6
	.cfi_def_cfa 7, 8
	ret	
	.cfi_endproc
.LFE15:
	.seh_endproc
	.section	.text$_ZnwyPv,"x"
	.linkonce discard
	.globl	_ZnwyPv
	.def	_ZnwyPv;	.scl	2;	.type	32;	.endef
	.seh_proc	_ZnwyPv
_ZnwyPv:
.LFB203:
	.file 2 "D:/msys64/ucrt64/include/c++/15.2.0/new"
	.loc 2 208 1
	.cfi_startproc
	pushq	%rbp	 #
	.seh_pushreg	%rbp
	.cfi_def_cfa_offset 16
	.cfi_offset 6, -16
	movq	%rsp, %rbp	 #,
	.seh_setframe	%rbp, 0
	.cfi_def_cfa_register 6
	.seh_endprologue
	movq	%rcx, 16(%rbp)	 # D.12437, D.12437
	movq	%rdx, 24(%rbp)	 # __p, __p
 # D:/msys64/ucrt64/include/c++/15.2.0/new:208: { return __p; }
	.loc 2 208 10
	movq	24(%rbp), %rax	 # __p, _2
 # D:/msys64/ucrt64/include/c++/15.2.0/new:208: { return __p; }
	.loc 2 208 15
	popq	%rbp	 #
	.cfi_restore 6
	.cfi_def_cfa 7, 8
	ret	
	.cfi_endproc
.LFE203:
	.seh_endproc
	.section	.text$_ZdlPvS_,"x"
	.linkonce discard
	.globl	_ZdlPvS_
	.def	_ZdlPvS_;	.scl	2;	.type	32;	.endef
	.seh_proc	_ZdlPvS_
_ZdlPvS_:
.LFB205:
	.loc 2 219 1
	.cfi_startproc
	pushq	%rbp	 #
	.seh_pushreg	%rbp
	.cfi_def_cfa_offset 16
	.cfi_offset 6, -16
	movq	%rsp, %rbp	 #,
	.seh_setframe	%rbp, 0
	.cfi_def_cfa_register 6
	.seh_endprologue
	movq	%rcx, 16(%rbp)	 # D.12445, D.12445
	movq	%rdx, 24(%rbp)	 # D.12446, D.12446
 # D:/msys64/ucrt64/include/c++/15.2.0/new:219: { }
	.loc 2 219 3
	nop	
	popq	%rbp	 #
	.cfi_restore 6
	.cfi_def_cfa 7, 8
	ret	
	.cfi_endproc
.LFE205:
	.seh_endproc
	.section	.text$_ZSt3absd,"x"
	.linkonce discard
	.globl	_ZSt3absd
	.def	_ZSt3absd;	.scl	2;	.type	32;	.endef
	.seh_proc	_ZSt3absd
_ZSt3absd:
.LFB653:
	.file 3 "D:/msys64/ucrt64/include/c++/15.2.0/bits/std_abs.h"
	.loc 3 78 3
	.cfi_startproc
	pushq	%rbp	 #
	.seh_pushreg	%rbp
	.cfi_def_cfa_offset 16
	.cfi_offset 6, -16
	movq	%rsp, %rbp	 #,
	.seh_setframe	%rbp, 0
	.cfi_def_cfa_register 6
	.seh_endprologue
	movsd	%xmm0, 16(%rbp)	 # __x, __x
 # D:/msys64/ucrt64/include/c++/15.2.0/bits/std_abs.h:78:   { return __builtin_fabs(__x); }
	.loc 3 78 30
	movsd	16(%rbp), %xmm0	 # __x, tmp100
	movq	.LC0(%rip), %xmm1	 #, tmp101
	andpd	%xmm1, %xmm0	 # tmp101, _2
 # D:/msys64/ucrt64/include/c++/15.2.0/bits/std_abs.h:78:   { return __builtin_fabs(__x); }
	.loc 3 78 33
	popq	%rbp	 #
	.cfi_restore 6
	.cfi_def_cfa 7, 8
	ret	
	.cfi_endproc
.LFE653:
	.seh_endproc
	.section	.text$_ZN3cva11instruments10InstrumentC2Ev,"x"
	.linkonce discard
	.align 2
	.globl	_ZN3cva11instruments10InstrumentC2Ev
	.def	_ZN3cva11instruments10InstrumentC2Ev;	.scl	2;	.type	32;	.endef
	.seh_proc	_ZN3cva11instruments10InstrumentC2Ev
_ZN3cva11instruments10InstrumentC2Ev:
.LFB1852:
	.file 4 "E:/Projects/Simulation_Projects/cva_cpp/includes_hpp/instruments/instrument.hpp"
	.loc 4 15 11
	.cfi_startproc
	pushq	%rbp	 #
	.seh_pushreg	%rbp
	.cfi_def_cfa_offset 16
	.cfi_offset 6, -16
	movq	%rsp, %rbp	 #,
	.seh_setframe	%rbp, 0
	.cfi_def_cfa_register 6
	.seh_endprologue
	movq	%rcx, 16(%rbp)	 # this, this
.LBB284:
 # E:/Projects/Simulation_Projects/cva_cpp/includes_hpp/instruments/instrument.hpp:15:     class Instrument {
	.loc 4 15 11
	leaq	16+_ZTVN3cva11instruments10InstrumentE(%rip), %rdx	 #, _1
	movq	16(%rbp), %rax	 # this, tmp99
	movq	%rdx, (%rax)	 # _1, this_3(D)->_vptr.Instrument
.LBE284:
	nop	
	popq	%rbp	 #
	.cfi_restore 6
	.cfi_def_cfa 7, 8
	ret	
	.cfi_endproc
.LFE1852:
	.seh_endproc
	.section	.text$_ZN3cva11instruments10InstrumentD2Ev,"x"
	.linkonce discard
	.align 2
	.globl	_ZN3cva11instruments10InstrumentD2Ev
	.def	_ZN3cva11instruments10InstrumentD2Ev;	.scl	2;	.type	32;	.endef
	.seh_proc	_ZN3cva11instruments10InstrumentD2Ev
_ZN3cva11instruments10InstrumentD2Ev:
.LFB1855:
	.loc 4 17 17
	.cfi_startproc
	pushq	%rbp	 #
	.seh_pushreg	%rbp
	.cfi_def_cfa_offset 16
	.cfi_offset 6, -16
	movq	%rsp, %rbp	 #,
	.seh_setframe	%rbp, 0
	.cfi_def_cfa_register 6
	.seh_endprologue
	movq	%rcx, 16(%rbp)	 # this, this
.LBB285:
 # E:/Projects/Simulation_Projects/cva_cpp/includes_hpp/instruments/instrument.hpp:17:         virtual ~Instrument() = default;
	.loc 4 17 17
	leaq	16+_ZTVN3cva11instruments10InstrumentE(%rip), %rdx	 #, _1
	movq	16(%rbp), %rax	 # this, tmp99
	movq	%rdx, (%rax)	 # _1, this_3(D)->_vptr.Instrument
.LBE285:
	nop	
	popq	%rbp	 #
	.cfi_restore 6
	.cfi_def_cfa 7, 8
	ret	
	.cfi_endproc
.LFE1855:
	.seh_endproc
	.section	.text$_ZN3cva11instruments14EuropeanOptionC1ENS0_10OptionTypeEdddd,"x"
	.linkonce discard
	.align 2
	.globl	_ZN3cva11instruments14EuropeanOptionC1ENS0_10OptionTypeEdddd
	.def	_ZN3cva11instruments14EuropeanOptionC1ENS0_10OptionTypeEdddd;	.scl	2;	.type	32;	.endef
	.seh_proc	_ZN3cva11instruments14EuropeanOptionC1ENS0_10OptionTypeEdddd
_ZN3cva11instruments14EuropeanOptionC1ENS0_10OptionTypeEdddd:
.LFB1862:
	.file 5 "E:/Projects/Simulation_Projects/cva_cpp/includes_hpp/instruments/vanilla.hpp"
	.loc 5 53 9
	.cfi_startproc
	pushq	%rbp	 #
	.seh_pushreg	%rbp
	.cfi_def_cfa_offset 16
	.cfi_offset 6, -16
	movq	%rsp, %rbp	 #,
	.seh_setframe	%rbp, 0
	.cfi_def_cfa_register 6
	subq	$32, %rsp	 #,
	.seh_stackalloc	32
	.seh_endprologue
	movq	%rcx, 16(%rbp)	 # this, this
	movl	%edx, 24(%rbp)	 # type, type
	movsd	%xmm2, 32(%rbp)	 # strike, strike
	movsd	%xmm3, 40(%rbp)	 # expiry, expiry
.LBB286:
 # E:/Projects/Simulation_Projects/cva_cpp/includes_hpp/instruments/vanilla.hpp:54:             : type_(type), strike_(strike), expiry_(expiry), r_(r), vol_(vol) {}
	.loc 5 54 77
	movq	16(%rbp), %rax	 # this, _1
	movq	%rax, %rcx	 # _1,
	call	_ZN3cva11instruments10InstrumentC2Ev	 #
 # E:/Projects/Simulation_Projects/cva_cpp/includes_hpp/instruments/vanilla.hpp:54:             : type_(type), strike_(strike), expiry_(expiry), r_(r), vol_(vol) {}
	.loc 5 54 77 is_stmt 0 discriminator 1
	leaq	16+_ZTVN3cva11instruments14EuropeanOptionE(%rip), %rdx	 #, _2
	movq	16(%rbp), %rax	 # this, tmp101
	movq	%rdx, (%rax)	 # _2, this_5(D)->D.38335._vptr.Instrument
 # E:/Projects/Simulation_Projects/cva_cpp/includes_hpp/instruments/vanilla.hpp:54:             : type_(type), strike_(strike), expiry_(expiry), r_(r), vol_(vol) {}
	.loc 5 54 15 is_stmt 1 discriminator 1
	movq	16(%rbp), %rax	 # this, tmp102
	movl	24(%rbp), %edx	 # type, tmp103
	movl	%edx, 8(%rax)	 # tmp103, this_5(D)->type_
 # E:/Projects/Simulation_Projects/cva_cpp/includes_hpp/instruments/vanilla.hpp:54:             : type_(type), strike_(strike), expiry_(expiry), r_(r), vol_(vol) {}
	.loc 5 54 28 discriminator 1
	movq	16(%rbp), %rax	 # this, tmp104
	movsd	32(%rbp), %xmm0	 # strike, tmp105
	movsd	%xmm0, 16(%rax)	 # tmp105, this_5(D)->strike_
 # E:/Projects/Simulation_Projects/cva_cpp/includes_hpp/instruments/vanilla.hpp:54:             : type_(type), strike_(strike), expiry_(expiry), r_(r), vol_(vol) {}
	.loc 5 54 45 discriminator 1
	movq	16(%rbp), %rax	 # this, tmp106
	movsd	40(%rbp), %xmm0	 # expiry, tmp107
	movsd	%xmm0, 24(%rax)	 # tmp107, this_5(D)->expiry_
 # E:/Projects/Simulation_Projects/cva_cpp/includes_hpp/instruments/vanilla.hpp:54:             : type_(type), strike_(strike), expiry_(expiry), r_(r), vol_(vol) {}
	.loc 5 54 62 discriminator 1
	movq	16(%rbp), %rax	 # this, tmp108
	movsd	48(%rbp), %xmm0	 # r, tmp109
	movsd	%xmm0, 32(%rax)	 # tmp109, this_5(D)->r_
 # E:/Projects/Simulation_Projects/cva_cpp/includes_hpp/instruments/vanilla.hpp:54:             : type_(type), strike_(strike), expiry_(expiry), r_(r), vol_(vol) {}
	.loc 5 54 69 discriminator 1
	movq	16(%rbp), %rax	 # this, tmp110
	movsd	56(%rbp), %xmm0	 # vol, tmp111
	movsd	%xmm0, 40(%rax)	 # tmp111, this_5(D)->vol_
.LBE286:
 # E:/Projects/Simulation_Projects/cva_cpp/includes_hpp/instruments/vanilla.hpp:54:             : type_(type), strike_(strike), expiry_(expiry), r_(r), vol_(vol) {}
	.loc 5 54 80
	nop	
	addq	$32, %rsp	 #,
	popq	%rbp	 #
	.cfi_restore 6
	.cfi_def_cfa 7, 8
	ret	
	.cfi_endproc
.LFE1862:
	.seh_endproc
	.section	.text$_ZZNK3cva11instruments14EuropeanOption5valueEddENKUldE_clEd,"x"
	.linkonce discard
	.align 2
	.globl	_ZZNK3cva11instruments14EuropeanOption5valueEddENKUldE_clEd
	.def	_ZZNK3cva11instruments14EuropeanOption5valueEddENKUldE_clEd;	.scl	2;	.type	32;	.endef
	.seh_proc	_ZZNK3cva11instruments14EuropeanOption5valueEddENKUldE_clEd
_ZZNK3cva11instruments14EuropeanOption5valueEddENKUldE_clEd:
.LFB1864:
	.loc 5 74 28
	.cfi_startproc
	pushq	%rbp	 #
	.seh_pushreg	%rbp
	.cfi_def_cfa_offset 16
	.cfi_offset 6, -16
	movq	%rsp, %rbp	 #,
	.seh_setframe	%rbp, 0
	.cfi_def_cfa_register 6
	subq	$32, %rsp	 #,
	.seh_stackalloc	32
	.seh_endprologue
	movq	%rcx, 16(%rbp)	 # __closure, __closure
	movsd	%xmm1, 24(%rbp)	 # x, x
 # E:/Projects/Simulation_Projects/cva_cpp/includes_hpp/instruments/vanilla.hpp:74:                 auto cdf = [inv_sqrt2](double x) { return 0.5 * std::erfc(-x * inv_sqrt2); };
	.loc 5 74 75
	movsd	24(%rbp), %xmm0	 # x, tmp103
	movq	.LC1(%rip), %xmm1	 #, tmp104
	xorpd	%xmm0, %xmm1	 # tmp103, _1
 # E:/Projects/Simulation_Projects/cva_cpp/includes_hpp/instruments/vanilla.hpp:74:                 auto cdf = [inv_sqrt2](double x) { return 0.5 * std::erfc(-x * inv_sqrt2); };
	.loc 5 74 74
	movsd	.LC2(%rip), %xmm0	 #, tmp105
	mulsd	%xmm0, %xmm1	 # tmp105, _1
	movq	%xmm1, %rax	 # _1, _2
	movq	%rax, %xmm0	 # _2,
	call	erfc	 #
 # E:/Projects/Simulation_Projects/cva_cpp/includes_hpp/instruments/vanilla.hpp:74:                 auto cdf = [inv_sqrt2](double x) { return 0.5 * std::erfc(-x * inv_sqrt2); };
	.loc 5 74 89 discriminator 1
	movsd	.LC3(%rip), %xmm1	 #, tmp106
	mulsd	%xmm1, %xmm0	 # tmp106, _7
 # E:/Projects/Simulation_Projects/cva_cpp/includes_hpp/instruments/vanilla.hpp:74:                 auto cdf = [inv_sqrt2](double x) { return 0.5 * std::erfc(-x * inv_sqrt2); };
	.loc 5 74 92
	addq	$32, %rsp	 #,
	popq	%rbp	 #
	.cfi_restore 6
	.cfi_def_cfa 7, 8
	ret	
	.cfi_endproc
.LFE1864:
	.seh_endproc
	.section	.text$_ZZNK3cva11instruments14EuropeanOption5valueEddENKUldE0_clEd,"x"
	.linkonce discard
	.align 2
	.globl	_ZZNK3cva11instruments14EuropeanOption5valueEddENKUldE0_clEd
	.def	_ZZNK3cva11instruments14EuropeanOption5valueEddENKUldE0_clEd;	.scl	2;	.type	32;	.endef
	.seh_proc	_ZZNK3cva11instruments14EuropeanOption5valueEddENKUldE0_clEd
_ZZNK3cva11instruments14EuropeanOption5valueEddENKUldE0_clEd:
.LFB1865:
	.loc 5 77 29
	.cfi_startproc
	pushq	%rbp	 #
	.seh_pushreg	%rbp
	.cfi_def_cfa_offset 16
	.cfi_offset 6, -16
	movq	%rsp, %rbp	 #,
	.seh_setframe	%rbp, 0
	.cfi_def_cfa_register 6
	subq	$32, %rsp	 #,
	.seh_stackalloc	32
	.seh_endprologue
	movq	%rcx, 16(%rbp)	 # __closure, __closure
	movsd	%xmm1, 24(%rbp)	 # x, x
 # E:/Projects/Simulation_Projects/cva_cpp/includes_hpp/instruments/vanilla.hpp:77:                  auto cdf = [inv_sqrt2](double x) { return 0.5 * std::erfc(-x * inv_sqrt2); };
	.loc 5 77 76
	movsd	24(%rbp), %xmm0	 # x, tmp103
	movq	.LC1(%rip), %xmm1	 #, tmp104
	xorpd	%xmm0, %xmm1	 # tmp103, _1
 # E:/Projects/Simulation_Projects/cva_cpp/includes_hpp/instruments/vanilla.hpp:77:                  auto cdf = [inv_sqrt2](double x) { return 0.5 * std::erfc(-x * inv_sqrt2); };
	.loc 5 77 75
	movsd	.LC2(%rip), %xmm0	 #, tmp105
	mulsd	%xmm0, %xmm1	 # tmp105, _1
	movq	%xmm1, %rax	 # _1, _2
	movq	%rax, %xmm0	 # _2,
	call	erfc	 #
 # E:/Projects/Simulation_Projects/cva_cpp/includes_hpp/instruments/vanilla.hpp:77:                  auto cdf = [inv_sqrt2](double x) { return 0.5 * std::erfc(-x * inv_sqrt2); };
	.loc 5 77 90 discriminator 1
	movsd	.LC3(%rip), %xmm1	 #, tmp106
	mulsd	%xmm1, %xmm0	 # tmp106, _7
 # E:/Projects/Simulation_Projects/cva_cpp/includes_hpp/instruments/vanilla.hpp:77:                  auto cdf = [inv_sqrt2](double x) { return 0.5 * std::erfc(-x * inv_sqrt2); };
	.loc 5 77 93
	addq	$32, %rsp	 #,
	popq	%rbp	 #
	.cfi_restore 6
	.cfi_def_cfa 7, 8
	ret	
	.cfi_endproc
.LFE1865:
	.seh_endproc
	.section	.text$_ZNK3cva11instruments14EuropeanOption5valueEdd,"x"
	.linkonce discard
	.align 2
	.globl	_ZNK3cva11instruments14EuropeanOption5valueEdd
	.def	_ZNK3cva11instruments14EuropeanOption5valueEdd;	.scl	2;	.type	32;	.endef
	.seh_proc	_ZNK3cva11instruments14EuropeanOption5valueEdd
_ZNK3cva11instruments14EuropeanOption5valueEdd:
.LFB1863:
	.loc 5 56 30
	.cfi_startproc
	pushq	%rbp	 #
	.seh_pushreg	%rbp
	.cfi_def_cfa_offset 16
	.cfi_offset 6, -16
	subq	$144, %rsp	 #,
	.seh_stackalloc	144
	.cfi_def_cfa_offset 160
	leaq	112(%rsp), %rbp	 #,
	.seh_setframe	%rbp, 112
	.cfi_def_cfa 6, 48
	movups	%xmm6, 0(%rbp)	 #,
	.seh_savexmm	%xmm6, 112
	movups	%xmm7, 16(%rbp)	 #,
	.seh_savexmm	%xmm7, 128
	.cfi_offset 23, -48
	.cfi_offset 24, -32
	.seh_endprologue
	movq	%rcx, 48(%rbp)	 # this, this
	movsd	%xmm1, 56(%rbp)	 # spot, spot
	movsd	%xmm2, 64(%rbp)	 # t, t
.LBB287:
 # E:/Projects/Simulation_Projects/cva_cpp/includes_hpp/instruments/vanilla.hpp:57:             if (t >= expiry_) {
	.loc 5 57 22
	movq	48(%rbp), %rax	 # this, tmp147
	movsd	24(%rax), %xmm1	 # this_53(D)->expiry_, _1
 # E:/Projects/Simulation_Projects/cva_cpp/includes_hpp/instruments/vanilla.hpp:57:             if (t >= expiry_) {
	.loc 5 57 13
	movsd	64(%rbp), %xmm0	 # t, tmp148
	comisd	%xmm1, %xmm0	 # _1, tmp148
	jb	.L24	 #,
.LBB288:
 # E:/Projects/Simulation_Projects/cva_cpp/includes_hpp/instruments/vanilla.hpp:58:                 double payoff = (type_ == OptionType::Call) ? (spot - strike_) : (strike_ - spot);
	.loc 5 58 34
	movq	48(%rbp), %rax	 # this, tmp149
	movl	8(%rax), %eax	 # this_53(D)->type_, _2
 # E:/Projects/Simulation_Projects/cva_cpp/includes_hpp/instruments/vanilla.hpp:58:                 double payoff = (type_ == OptionType::Call) ? (spot - strike_) : (strike_ - spot);
	.loc 5 58 61
	testl	%eax, %eax	 # _2
	jne	.L18	 #,
 # E:/Projects/Simulation_Projects/cva_cpp/includes_hpp/instruments/vanilla.hpp:58:                 double payoff = (type_ == OptionType::Call) ? (spot - strike_) : (strike_ - spot);
	.loc 5 58 71 discriminator 1
	movq	48(%rbp), %rax	 # this, tmp150
	movsd	16(%rax), %xmm1	 # this_53(D)->strike_, _3
 # E:/Projects/Simulation_Projects/cva_cpp/includes_hpp/instruments/vanilla.hpp:58:                 double payoff = (type_ == OptionType::Call) ? (spot - strike_) : (strike_ - spot);
	.loc 5 58 61 discriminator 1
	movsd	56(%rbp), %xmm0	 # spot, tmp151
	subsd	%xmm1, %xmm0	 # _3, iftmp.59_48
	jmp	.L19	 #
.L18:
 # E:/Projects/Simulation_Projects/cva_cpp/includes_hpp/instruments/vanilla.hpp:58:                 double payoff = (type_ == OptionType::Call) ? (spot - strike_) : (strike_ - spot);
	.loc 5 58 83 discriminator 2
	movq	48(%rbp), %rax	 # this, tmp152
	movsd	16(%rax), %xmm0	 # this_53(D)->strike_, _4
 # E:/Projects/Simulation_Projects/cva_cpp/includes_hpp/instruments/vanilla.hpp:58:                 double payoff = (type_ == OptionType::Call) ? (spot - strike_) : (strike_ - spot);
	.loc 5 58 61 discriminator 2
	subsd	56(%rbp), %xmm0	 # spot, iftmp.59_48
.L19:
 # E:/Projects/Simulation_Projects/cva_cpp/includes_hpp/instruments/vanilla.hpp:58:                 double payoff = (type_ == OptionType::Call) ? (spot - strike_) : (strike_ - spot);
	.loc 5 58 24 discriminator 4
	movsd	%xmm0, -56(%rbp)	 # iftmp.59_48, payoff
 # E:/Projects/Simulation_Projects/cva_cpp/includes_hpp/instruments/vanilla.hpp:59:                 return std::max(0.0, payoff);
	.loc 5 59 33
	pxor	%xmm0, %xmm0	 # tmp153
	movsd	%xmm0, -48(%rbp)	 # tmp153, D.38383
 # E:/Projects/Simulation_Projects/cva_cpp/includes_hpp/instruments/vanilla.hpp:59:                 return std::max(0.0, payoff);
	.loc 5 59 32
	leaq	-56(%rbp), %rdx	 #, tmp154
	leaq	-48(%rbp), %rax	 #, tmp155
	movq	%rax, %rcx	 # tmp155,
	call	_ZSt3maxIdERKT_S2_S2_	 #
 # E:/Projects/Simulation_Projects/cva_cpp/includes_hpp/instruments/vanilla.hpp:59:                 return std::max(0.0, payoff);
	.loc 5 59 44 discriminator 1
	movsd	(%rax), %xmm0	 # *_5, _49
 # E:/Projects/Simulation_Projects/cva_cpp/includes_hpp/instruments/vanilla.hpp:59:                 return std::max(0.0, payoff);
	.loc 5 59 44 is_stmt 0
	jmp	.L20	 #
.L24:
.LBE288:
.LBE287:
 # E:/Projects/Simulation_Projects/cva_cpp/includes_hpp/instruments/vanilla.hpp:62:             double T = expiry_ - t;
	.loc 5 62 24 is_stmt 1
	movq	48(%rbp), %rax	 # this, tmp156
	movsd	24(%rax), %xmm0	 # this_53(D)->expiry_, _6
 # E:/Projects/Simulation_Projects/cva_cpp/includes_hpp/instruments/vanilla.hpp:62:             double T = expiry_ - t;
	.loc 5 62 20
	subsd	64(%rbp), %xmm0	 # t, T_55
	movsd	%xmm0, -16(%rbp)	 # T_55, T
 # E:/Projects/Simulation_Projects/cva_cpp/includes_hpp/instruments/vanilla.hpp:63:             double d1 = (std::log(spot / strike_) + (r_ + 0.5 * vol_ * vol_) * T) / (vol_ * std::sqrt(T));
	.loc 5 63 42
	movq	48(%rbp), %rax	 # this, tmp158
	movsd	16(%rax), %xmm1	 # this_53(D)->strike_, _7
 # E:/Projects/Simulation_Projects/cva_cpp/includes_hpp/instruments/vanilla.hpp:63:             double d1 = (std::log(spot / strike_) + (r_ + 0.5 * vol_ * vol_) * T) / (vol_ * std::sqrt(T));
	.loc 5 63 34
	movsd	56(%rbp), %xmm0	 # spot, tmp159
	divsd	%xmm1, %xmm0	 # _7, tmp159
	movq	%xmm0, %rax	 # tmp159, _8
	movq	%rax, %xmm0	 # _8,
	call	log	 #
 # E:/Projects/Simulation_Projects/cva_cpp/includes_hpp/instruments/vanilla.hpp:63:             double d1 = (std::log(spot / strike_) + (r_ + 0.5 * vol_ * vol_) * T) / (vol_ * std::sqrt(T));
	.loc 5 63 54 discriminator 1
	movq	48(%rbp), %rax	 # this, tmp160
	movsd	32(%rax), %xmm2	 # this_53(D)->r_, _10
 # E:/Projects/Simulation_Projects/cva_cpp/includes_hpp/instruments/vanilla.hpp:63:             double d1 = (std::log(spot / strike_) + (r_ + 0.5 * vol_ * vol_) * T) / (vol_ * std::sqrt(T));
	.loc 5 63 65 discriminator 1
	movq	48(%rbp), %rax	 # this, tmp161
	movsd	40(%rax), %xmm3	 # this_53(D)->vol_, _11
 # E:/Projects/Simulation_Projects/cva_cpp/includes_hpp/instruments/vanilla.hpp:63:             double d1 = (std::log(spot / strike_) + (r_ + 0.5 * vol_ * vol_) * T) / (vol_ * std::sqrt(T));
	.loc 5 63 63 discriminator 1
	movsd	.LC3(%rip), %xmm1	 #, tmp162
	mulsd	%xmm1, %xmm3	 # tmp162, _12
 # E:/Projects/Simulation_Projects/cva_cpp/includes_hpp/instruments/vanilla.hpp:63:             double d1 = (std::log(spot / strike_) + (r_ + 0.5 * vol_ * vol_) * T) / (vol_ * std::sqrt(T));
	.loc 5 63 72 discriminator 1
	movq	48(%rbp), %rax	 # this, tmp163
	movsd	40(%rax), %xmm1	 # this_53(D)->vol_, _13
 # E:/Projects/Simulation_Projects/cva_cpp/includes_hpp/instruments/vanilla.hpp:63:             double d1 = (std::log(spot / strike_) + (r_ + 0.5 * vol_ * vol_) * T) / (vol_ * std::sqrt(T));
	.loc 5 63 70 discriminator 1
	mulsd	%xmm3, %xmm1	 # _12, _14
 # E:/Projects/Simulation_Projects/cva_cpp/includes_hpp/instruments/vanilla.hpp:63:             double d1 = (std::log(spot / strike_) + (r_ + 0.5 * vol_ * vol_) * T) / (vol_ * std::sqrt(T));
	.loc 5 63 57 discriminator 1
	addsd	%xmm2, %xmm1	 # _10, _15
 # E:/Projects/Simulation_Projects/cva_cpp/includes_hpp/instruments/vanilla.hpp:63:             double d1 = (std::log(spot / strike_) + (r_ + 0.5 * vol_ * vol_) * T) / (vol_ * std::sqrt(T));
	.loc 5 63 78 discriminator 1
	mulsd	-16(%rbp), %xmm1	 # T, _16
 # E:/Projects/Simulation_Projects/cva_cpp/includes_hpp/instruments/vanilla.hpp:63:             double d1 = (std::log(spot / strike_) + (r_ + 0.5 * vol_ * vol_) * T) / (vol_ * std::sqrt(T));
	.loc 5 63 51 discriminator 1
	movapd	%xmm0, %xmm6	 # _9, _9
	addsd	%xmm1, %xmm6	 # _16, _9
 # E:/Projects/Simulation_Projects/cva_cpp/includes_hpp/instruments/vanilla.hpp:63:             double d1 = (std::log(spot / strike_) + (r_ + 0.5 * vol_ * vol_) * T) / (vol_ * std::sqrt(T));
	.loc 5 63 86 discriminator 1
	movq	48(%rbp), %rax	 # this, tmp164
	movsd	40(%rax), %xmm7	 # this_53(D)->vol_, _18
 # E:/Projects/Simulation_Projects/cva_cpp/includes_hpp/instruments/vanilla.hpp:63:             double d1 = (std::log(spot / strike_) + (r_ + 0.5 * vol_ * vol_) * T) / (vol_ * std::sqrt(T));
	.loc 5 63 102 discriminator 1
	movq	-16(%rbp), %rax	 # T, tmp165
	movq	%rax, %xmm0	 # tmp165,
	call	sqrt	 #
 # E:/Projects/Simulation_Projects/cva_cpp/includes_hpp/instruments/vanilla.hpp:63:             double d1 = (std::log(spot / strike_) + (r_ + 0.5 * vol_ * vol_) * T) / (vol_ * std::sqrt(T));
	.loc 5 63 91 discriminator 2
	mulsd	%xmm0, %xmm7	 # _19, _18
	movapd	%xmm7, %xmm1	 # _18, _20
 # E:/Projects/Simulation_Projects/cva_cpp/includes_hpp/instruments/vanilla.hpp:63:             double d1 = (std::log(spot / strike_) + (r_ + 0.5 * vol_ * vol_) * T) / (vol_ * std::sqrt(T));
	.loc 5 63 105 discriminator 2
	divsd	%xmm1, %xmm6	 # _20, _17
	movapd	%xmm6, %xmm0	 # _17, d1_59
	movsd	%xmm0, -24(%rbp)	 # d1_59, d1
 # E:/Projects/Simulation_Projects/cva_cpp/includes_hpp/instruments/vanilla.hpp:64:             double d2 = d1 - vol_ * std::sqrt(T);
	.loc 5 64 30
	movq	48(%rbp), %rax	 # this, tmp167
	movsd	40(%rax), %xmm6	 # this_53(D)->vol_, _21
 # E:/Projects/Simulation_Projects/cva_cpp/includes_hpp/instruments/vanilla.hpp:64:             double d2 = d1 - vol_ * std::sqrt(T);
	.loc 5 64 46
	movq	-16(%rbp), %rax	 # T, tmp168
	movq	%rax, %xmm0	 # tmp168,
	call	sqrt	 #
 # E:/Projects/Simulation_Projects/cva_cpp/includes_hpp/instruments/vanilla.hpp:64:             double d2 = d1 - vol_ * std::sqrt(T);
	.loc 5 64 35 discriminator 1
	mulsd	%xmm0, %xmm6	 # _22, _21
	movapd	%xmm6, %xmm1	 # _21, _23
 # E:/Projects/Simulation_Projects/cva_cpp/includes_hpp/instruments/vanilla.hpp:64:             double d2 = d1 - vol_ * std::sqrt(T);
	.loc 5 64 48 discriminator 1
	movsd	-24(%rbp), %xmm0	 # d1, tmp170
	subsd	%xmm1, %xmm0	 # _23, d2_61
	movsd	%xmm0, -32(%rbp)	 # d2_61, d2
 # E:/Projects/Simulation_Projects/cva_cpp/includes_hpp/instruments/vanilla.hpp:66:             double price = 0.0;
	.loc 5 66 20
	pxor	%xmm0, %xmm0	 # tmp171
	movsd	%xmm0, -8(%rbp)	 # tmp171, price
 # E:/Projects/Simulation_Projects/cva_cpp/includes_hpp/instruments/vanilla.hpp:68:             constexpr double inv_sqrt2 = 1 / std::numbers::sqrt2; 
	.loc 5 68 30
	movsd	.LC2(%rip), %xmm0	 #, tmp172
	movsd	%xmm0, -40(%rbp)	 # tmp172, inv_sqrt2
.LBB289:
 # E:/Projects/Simulation_Projects/cva_cpp/includes_hpp/instruments/vanilla.hpp:70:             if (type_ == OptionType::Call) {
	.loc 5 70 17
	movq	48(%rbp), %rax	 # this, tmp173
	movl	8(%rax), %eax	 # this_53(D)->type_, _24
 # E:/Projects/Simulation_Projects/cva_cpp/includes_hpp/instruments/vanilla.hpp:70:             if (type_ == OptionType::Call) {
	.loc 5 70 13
	testl	%eax, %eax	 # _24
	jne	.L21	 #,
.LBB290:
 # E:/Projects/Simulation_Projects/cva_cpp/includes_hpp/instruments/vanilla.hpp:74:                 auto cdf = [inv_sqrt2](double x) { return 0.5 * std::erfc(-x * inv_sqrt2); };
	.loc 5 74 22
	movsd	.LC2(%rip), %xmm0	 #, tmp174
	movsd	%xmm0, -64(%rbp)	 # tmp174, cdf.__inv_sqrt2
 # E:/Projects/Simulation_Projects/cva_cpp/includes_hpp/instruments/vanilla.hpp:75:                 price = spot * cdf(d1) - strike_ * std::exp(-r_ * T) * cdf(d2);
	.loc 5 75 35
	movsd	-24(%rbp), %xmm0	 # d1, tmp175
	leaq	-64(%rbp), %rax	 #, tmp176
	movapd	%xmm0, %xmm1	 # tmp175,
	movq	%rax, %rcx	 # tmp176,
	call	_ZZNK3cva11instruments14EuropeanOption5valueEddENKUldE_clEd	 #
	movq	%xmm0, %rax	 #, _25
 # E:/Projects/Simulation_Projects/cva_cpp/includes_hpp/instruments/vanilla.hpp:75:                 price = spot * cdf(d1) - strike_ * std::exp(-r_ * T) * cdf(d2);
	.loc 5 75 30 discriminator 1
	movq	%rax, %xmm6	 # _25, _25
	mulsd	56(%rbp), %xmm6	 # spot, _25
 # E:/Projects/Simulation_Projects/cva_cpp/includes_hpp/instruments/vanilla.hpp:75:                 price = spot * cdf(d1) - strike_ * std::exp(-r_ * T) * cdf(d2);
	.loc 5 75 42 discriminator 1
	movq	48(%rbp), %rax	 # this, tmp177
	movsd	16(%rax), %xmm7	 # this_53(D)->strike_, _27
 # E:/Projects/Simulation_Projects/cva_cpp/includes_hpp/instruments/vanilla.hpp:75:                 price = spot * cdf(d1) - strike_ * std::exp(-r_ * T) * cdf(d2);
	.loc 5 75 62 discriminator 1
	movq	48(%rbp), %rax	 # this, tmp178
	movsd	32(%rax), %xmm0	 # this_53(D)->r_, _28
 # E:/Projects/Simulation_Projects/cva_cpp/includes_hpp/instruments/vanilla.hpp:75:                 price = spot * cdf(d1) - strike_ * std::exp(-r_ * T) * cdf(d2);
	.loc 5 75 61 discriminator 1
	movq	.LC1(%rip), %xmm1	 #, tmp179
	xorpd	%xmm1, %xmm0	 # tmp179, _29
 # E:/Projects/Simulation_Projects/cva_cpp/includes_hpp/instruments/vanilla.hpp:75:                 price = spot * cdf(d1) - strike_ * std::exp(-r_ * T) * cdf(d2);
	.loc 5 75 60 discriminator 1
	mulsd	-16(%rbp), %xmm0	 # T, _29
	movq	%xmm0, %rax	 # _29, _30
	movq	%rax, %xmm0	 # _30,
	call	exp	 #
 # E:/Projects/Simulation_Projects/cva_cpp/includes_hpp/instruments/vanilla.hpp:75:                 price = spot * cdf(d1) - strike_ * std::exp(-r_ * T) * cdf(d2);
	.loc 5 75 50 discriminator 2
	mulsd	%xmm0, %xmm7	 # _31, _32
 # E:/Projects/Simulation_Projects/cva_cpp/includes_hpp/instruments/vanilla.hpp:75:                 price = spot * cdf(d1) - strike_ * std::exp(-r_ * T) * cdf(d2);
	.loc 5 75 75 discriminator 2
	movsd	-32(%rbp), %xmm0	 # d2, tmp180
	leaq	-64(%rbp), %rax	 #, tmp181
	movapd	%xmm0, %xmm1	 # tmp180,
	movq	%rax, %rcx	 # tmp181,
	call	_ZZNK3cva11instruments14EuropeanOption5valueEddENKUldE_clEd	 #
 # E:/Projects/Simulation_Projects/cva_cpp/includes_hpp/instruments/vanilla.hpp:75:                 price = spot * cdf(d1) - strike_ * std::exp(-r_ * T) * cdf(d2);
	.loc 5 75 70 discriminator 3
	mulsd	%xmm0, %xmm7	 # _33, _32
	movapd	%xmm7, %xmm1	 # _32, _34
 # E:/Projects/Simulation_Projects/cva_cpp/includes_hpp/instruments/vanilla.hpp:75:                 price = spot * cdf(d1) - strike_ * std::exp(-r_ * T) * cdf(d2);
	.loc 5 75 23 discriminator 3
	subsd	%xmm1, %xmm6	 # _34, _26
	movapd	%xmm6, %xmm0	 # _26, price_74
	movsd	%xmm0, -8(%rbp)	 # price_74, price
.LBE290:
	jmp	.L22	 #
.L21:
.LBB291:
 # E:/Projects/Simulation_Projects/cva_cpp/includes_hpp/instruments/vanilla.hpp:77:                  auto cdf = [inv_sqrt2](double x) { return 0.5 * std::erfc(-x * inv_sqrt2); };
	.loc 5 77 23
	movsd	.LC2(%rip), %xmm0	 #, tmp183
	movsd	%xmm0, -72(%rbp)	 # tmp183, cdf.__inv_sqrt2
 # E:/Projects/Simulation_Projects/cva_cpp/includes_hpp/instruments/vanilla.hpp:78:                  price = strike_ * std::exp(-r_ * T) * cdf(-d2) - spot * cdf(-d1);
	.loc 5 78 26
	movq	48(%rbp), %rax	 # this, tmp184
	movsd	16(%rax), %xmm6	 # this_53(D)->strike_, _35
 # E:/Projects/Simulation_Projects/cva_cpp/includes_hpp/instruments/vanilla.hpp:78:                  price = strike_ * std::exp(-r_ * T) * cdf(-d2) - spot * cdf(-d1);
	.loc 5 78 46
	movq	48(%rbp), %rax	 # this, tmp185
	movsd	32(%rax), %xmm0	 # this_53(D)->r_, _36
 # E:/Projects/Simulation_Projects/cva_cpp/includes_hpp/instruments/vanilla.hpp:78:                  price = strike_ * std::exp(-r_ * T) * cdf(-d2) - spot * cdf(-d1);
	.loc 5 78 45
	movq	.LC1(%rip), %xmm1	 #, tmp186
	xorpd	%xmm1, %xmm0	 # tmp186, _37
 # E:/Projects/Simulation_Projects/cva_cpp/includes_hpp/instruments/vanilla.hpp:78:                  price = strike_ * std::exp(-r_ * T) * cdf(-d2) - spot * cdf(-d1);
	.loc 5 78 44
	mulsd	-16(%rbp), %xmm0	 # T, _37
	movq	%xmm0, %rax	 # _37, _38
	movq	%rax, %xmm0	 # _38,
	call	exp	 #
 # E:/Projects/Simulation_Projects/cva_cpp/includes_hpp/instruments/vanilla.hpp:78:                  price = strike_ * std::exp(-r_ * T) * cdf(-d2) - spot * cdf(-d1);
	.loc 5 78 34 discriminator 1
	mulsd	%xmm0, %xmm6	 # _39, _40
 # E:/Projects/Simulation_Projects/cva_cpp/includes_hpp/instruments/vanilla.hpp:78:                  price = strike_ * std::exp(-r_ * T) * cdf(-d2) - spot * cdf(-d1);
	.loc 5 78 59 discriminator 1
	movsd	-32(%rbp), %xmm0	 # d2, tmp187
	movq	.LC1(%rip), %xmm1	 #, tmp188
	xorpd	%xmm1, %xmm0	 # tmp188, _41
	leaq	-72(%rbp), %rax	 #, tmp189
	movapd	%xmm0, %xmm1	 # _41,
	movq	%rax, %rcx	 # tmp189,
	call	_ZZNK3cva11instruments14EuropeanOption5valueEddENKUldE0_clEd	 #
 # E:/Projects/Simulation_Projects/cva_cpp/includes_hpp/instruments/vanilla.hpp:78:                  price = strike_ * std::exp(-r_ * T) * cdf(-d2) - spot * cdf(-d1);
	.loc 5 78 54 discriminator 2
	mulsd	%xmm0, %xmm6	 # _42, _43
 # E:/Projects/Simulation_Projects/cva_cpp/includes_hpp/instruments/vanilla.hpp:78:                  price = strike_ * std::exp(-r_ * T) * cdf(-d2) - spot * cdf(-d1);
	.loc 5 78 77 discriminator 2
	movsd	-24(%rbp), %xmm0	 # d1, tmp190
	movq	.LC1(%rip), %xmm1	 #, tmp191
	xorpd	%xmm1, %xmm0	 # tmp191, _44
	leaq	-72(%rbp), %rax	 #, tmp192
	movapd	%xmm0, %xmm1	 # _44,
	movq	%rax, %rcx	 # tmp192,
	call	_ZZNK3cva11instruments14EuropeanOption5valueEddENKUldE0_clEd	 #
	movq	%xmm0, %rax	 #, _45
 # E:/Projects/Simulation_Projects/cva_cpp/includes_hpp/instruments/vanilla.hpp:78:                  price = strike_ * std::exp(-r_ * T) * cdf(-d2) - spot * cdf(-d1);
	.loc 5 78 72 discriminator 3
	movq	%rax, %xmm1	 # _45, _45
	mulsd	56(%rbp), %xmm1	 # spot, _45
 # E:/Projects/Simulation_Projects/cva_cpp/includes_hpp/instruments/vanilla.hpp:78:                  price = strike_ * std::exp(-r_ * T) * cdf(-d2) - spot * cdf(-d1);
	.loc 5 78 24 discriminator 3
	subsd	%xmm1, %xmm6	 # _46, _43
	movapd	%xmm6, %xmm0	 # _43, price_68
	movsd	%xmm0, -8(%rbp)	 # price_68, price
.L22:
.LBE291:
.LBE289:
 # E:/Projects/Simulation_Projects/cva_cpp/includes_hpp/instruments/vanilla.hpp:80:             return price;
	.loc 5 80 20
	movsd	-8(%rbp), %xmm0	 # price, _49
.L20:
 # E:/Projects/Simulation_Projects/cva_cpp/includes_hpp/instruments/vanilla.hpp:81:         }
	.loc 5 81 9
	movups	0(%rbp), %xmm6	 #,
	movups	16(%rbp), %xmm7	 #,
	addq	$144, %rsp	 #,
	.cfi_restore 24
	.cfi_restore 23
	popq	%rbp	 #
	.cfi_restore 6
	.cfi_def_cfa 7, -136
	ret	
	.cfi_endproc
.LFE1863:
	.seh_endproc
	.section	.text$_ZNSt11char_traitsIcE6assignERcRKc,"x"
	.linkonce discard
	.globl	_ZNSt11char_traitsIcE6assignERcRKc
	.def	_ZNSt11char_traitsIcE6assignERcRKc;	.scl	2;	.type	32;	.endef
	.seh_proc	_ZNSt11char_traitsIcE6assignERcRKc
_ZNSt11char_traitsIcE6assignERcRKc:
.LFB2838:
	.file 6 "D:/msys64/ucrt64/include/c++/15.2.0/bits/char_traits.h"
	.loc 6 345 7
	.cfi_startproc
	pushq	%rbp	 #
	.seh_pushreg	%rbp
	.cfi_def_cfa_offset 16
	.cfi_offset 6, -16
	movq	%rsp, %rbp	 #,
	.seh_setframe	%rbp, 0
	.cfi_def_cfa_register 6
	subq	$32, %rsp	 #,
	.seh_stackalloc	32
	.seh_endprologue
	movq	%rcx, 16(%rbp)	 # __c1, __c1
	movq	%rdx, 24(%rbp)	 # __c2, __c2
.LBB292:
.LBB293:
 # D:/msys64/ucrt64/include/c++/15.2.0/x86_64-w64-mingw32/bits/c++config.h:589:     return __builtin_is_constant_evaluated();
	.file 7 "D:/msys64/ucrt64/include/c++/15.2.0/x86_64-w64-mingw32/bits/c++config.h"
	.loc 7 589 44
	movl	$0, %eax	 #, D.248175
.LBE293:
.LBE292:
 # D:/msys64/ucrt64/include/c++/15.2.0/bits/char_traits.h:348: 	if (std::__is_constant_evaluated())
	.loc 6 348 2 discriminator 1
	testb	%al, %al	 # D.248175
	je	.L27	 #,
 # D:/msys64/ucrt64/include/c++/15.2.0/bits/char_traits.h:349: 	  std::construct_at(__builtin_addressof(__c1), __c2);
	.loc 6 349 21
	movq	24(%rbp), %rdx	 # __c2, tmp100
	movq	16(%rbp), %rax	 # __c1, tmp101
	movq	%rax, %rcx	 # tmp101,
	call	_ZSt12construct_atIcJRKcEQaant20is_unbounded_array_vIT_ErqXgsnwcvPvLi0E_S2_pispcl7declvalIT0_EEEEEPS2_S5_DpOS4_	 #
 # D:/msys64/ucrt64/include/c++/15.2.0/bits/char_traits.h:353:       }
	.loc 6 353 7
	jmp	.L29	 #
.L27:
 # D:/msys64/ucrt64/include/c++/15.2.0/bits/char_traits.h:352: 	__c1 = __c2;
	.loc 6 352 9
	movq	24(%rbp), %rax	 # __c2, tmp102
	movzbl	(%rax), %edx	 # *__c2_5(D), _1
 # D:/msys64/ucrt64/include/c++/15.2.0/bits/char_traits.h:352: 	__c1 = __c2;
	.loc 6 352 7
	movq	16(%rbp), %rax	 # __c1, tmp103
	movb	%dl, (%rax)	 # _1, *__c1_6(D)
.L29:
 # D:/msys64/ucrt64/include/c++/15.2.0/bits/char_traits.h:353:       }
	.loc 6 353 7
	nop	
	addq	$32, %rsp	 #,
	popq	%rbp	 #
	.cfi_restore 6
	.cfi_def_cfa 7, 8
	ret	
	.cfi_endproc
.LFE2838:
	.seh_endproc
	.section	.text$_ZNSt11char_traitsIcE6lengthEPKc,"x"
	.linkonce discard
	.globl	_ZNSt11char_traitsIcE6lengthEPKc
	.def	_ZNSt11char_traitsIcE6lengthEPKc;	.scl	2;	.type	32;	.endef
	.seh_proc	_ZNSt11char_traitsIcE6lengthEPKc
_ZNSt11char_traitsIcE6lengthEPKc:
.LFB2842:
	.loc 6 387 7
	.cfi_startproc
	pushq	%rbp	 #
	.seh_pushreg	%rbp
	.cfi_def_cfa_offset 16
	.cfi_offset 6, -16
	movq	%rsp, %rbp	 #,
	.seh_setframe	%rbp, 0
	.cfi_def_cfa_register 6
	subq	$32, %rsp	 #,
	.seh_stackalloc	32
	.seh_endprologue
	movq	%rcx, 16(%rbp)	 # __s, __s
.LBB294:
.LBB295:
 # D:/msys64/ucrt64/include/c++/15.2.0/x86_64-w64-mingw32/bits/c++config.h:589:     return __builtin_is_constant_evaluated();
	.loc 7 589 44
	movl	$0, %eax	 #, D.248184
.LBE295:
.LBE294:
 # D:/msys64/ucrt64/include/c++/15.2.0/bits/char_traits.h:390: 	if (std::__is_constant_evaluated())
	.loc 6 390 2 discriminator 1
	testb	%al, %al	 # D.248184
	je	.L32	 #,
 # D:/msys64/ucrt64/include/c++/15.2.0/bits/char_traits.h:391: 	  return __gnu_cxx::char_traits<char_type>::length(__s);
	.loc 6 391 52
	movq	16(%rbp), %rax	 # __s, tmp101
	movq	%rax, %rcx	 # tmp101,
	call	_ZN9__gnu_cxx11char_traitsIcE6lengthEPKc	 #
 # D:/msys64/ucrt64/include/c++/15.2.0/bits/char_traits.h:391: 	  return __gnu_cxx::char_traits<char_type>::length(__s);
	.loc 6 391 56
	jmp	.L33	 #
.L32:
 # D:/msys64/ucrt64/include/c++/15.2.0/bits/char_traits.h:393: 	return __builtin_strlen(__s);
	.loc 6 393 25
	movq	16(%rbp), %rax	 # __s, tmp103
	movq	%rax, %rcx	 # tmp103,
	call	strlen	 #
 # D:/msys64/ucrt64/include/c++/15.2.0/bits/char_traits.h:393: 	return __builtin_strlen(__s);
	.loc 6 393 29
	nop	
.L33:
 # D:/msys64/ucrt64/include/c++/15.2.0/bits/char_traits.h:394:       }
	.loc 6 394 7
	addq	$32, %rsp	 #,
	popq	%rbp	 #
	.cfi_restore 6
	.cfi_def_cfa 7, 8
	ret	
	.cfi_endproc
.LFE2842:
	.seh_endproc
	.section	.text$_ZNSt11char_traitsIcE4copyEPcPKcy,"x"
	.linkonce discard
	.globl	_ZNSt11char_traitsIcE4copyEPcPKcy
	.def	_ZNSt11char_traitsIcE4copyEPcPKcy;	.scl	2;	.type	32;	.endef
	.seh_proc	_ZNSt11char_traitsIcE4copyEPcPKcy
_ZNSt11char_traitsIcE4copyEPcPKcy:
.LFB2845:
	.loc 6 421 7
	.cfi_startproc
	pushq	%rbp	 #
	.seh_pushreg	%rbp
	.cfi_def_cfa_offset 16
	.cfi_offset 6, -16
	movq	%rsp, %rbp	 #,
	.seh_setframe	%rbp, 0
	.cfi_def_cfa_register 6
	subq	$32, %rsp	 #,
	.seh_stackalloc	32
	.seh_endprologue
	movq	%rcx, 16(%rbp)	 # __s1, __s1
	movq	%rdx, 24(%rbp)	 # __s2, __s2
	movq	%r8, 32(%rbp)	 # __n, __n
 # D:/msys64/ucrt64/include/c++/15.2.0/bits/char_traits.h:423: 	if (__n == 0)
	.loc 6 423 2
	cmpq	$0, 32(%rbp)	 #, __n
	jne	.L35	 #,
 # D:/msys64/ucrt64/include/c++/15.2.0/bits/char_traits.h:424: 	  return __s1;
	.loc 6 424 11
	movq	16(%rbp), %rax	 # __s1, _1
	jmp	.L36	 #
.L35:
.LBB296:
.LBB297:
 # D:/msys64/ucrt64/include/c++/15.2.0/x86_64-w64-mingw32/bits/c++config.h:589:     return __builtin_is_constant_evaluated();
	.loc 7 589 44
	movl	$0, %eax	 #, D.248181
.LBE297:
.LBE296:
 # D:/msys64/ucrt64/include/c++/15.2.0/bits/char_traits.h:426: 	if (std::__is_constant_evaluated())
	.loc 6 426 2 discriminator 1
	testb	%al, %al	 # D.248181
	je	.L38	 #,
 # D:/msys64/ucrt64/include/c++/15.2.0/bits/char_traits.h:427: 	  return __gnu_cxx::char_traits<char_type>::copy(__s1, __s2, __n);
	.loc 6 427 50
	movq	32(%rbp), %rcx	 # __n, tmp101
	movq	24(%rbp), %rdx	 # __s2, tmp102
	movq	16(%rbp), %rax	 # __s1, tmp103
	movq	%rcx, %r8	 # tmp101,
	movq	%rax, %rcx	 # tmp103,
	call	_ZN9__gnu_cxx11char_traitsIcE4copyEPcPKcy	 #
 # D:/msys64/ucrt64/include/c++/15.2.0/bits/char_traits.h:427: 	  return __gnu_cxx::char_traits<char_type>::copy(__s1, __s2, __n);
	.loc 6 427 66
	jmp	.L36	 #
.L38:
 # D:/msys64/ucrt64/include/c++/15.2.0/bits/char_traits.h:429: 	return static_cast<char_type*>(__builtin_memcpy(__s1, __s2, __n));
	.loc 6 429 49
	movq	16(%rbp), %rdx	 # __s1, tmp104
	movq	24(%rbp), %rax	 # __s2, tmp105
	movq	%rdx, %rcx	 # tmp104, tmp107
	movq	%rax, %rdx	 # tmp105, tmp108
	movq	32(%rbp), %rax	 # __n, tmp109
	movq	%rax, %r8	 # tmp109,
	call	memcpy	 #
 # D:/msys64/ucrt64/include/c++/15.2.0/bits/char_traits.h:429: 	return static_cast<char_type*>(__builtin_memcpy(__s1, __s2, __n));
	.loc 6 429 66
	nop	
.L36:
 # D:/msys64/ucrt64/include/c++/15.2.0/bits/char_traits.h:430:       }
	.loc 6 430 7
	addq	$32, %rsp	 #,
	popq	%rbp	 #
	.cfi_restore 6
	.cfi_def_cfa 7, 8
	ret	
	.cfi_endproc
.LFE2845:
	.seh_endproc
	.section	.text$_ZNSt7__cxx1112basic_stringIcSt11char_traitsIcESaIcEE12_Alloc_hiderD1Ev,"x"
	.linkonce discard
	.align 2
	.globl	_ZNSt7__cxx1112basic_stringIcSt11char_traitsIcESaIcEE12_Alloc_hiderD1Ev
	.def	_ZNSt7__cxx1112basic_stringIcSt11char_traitsIcESaIcEE12_Alloc_hiderD1Ev;	.scl	2;	.type	32;	.endef
	.seh_proc	_ZNSt7__cxx1112basic_stringIcSt11char_traitsIcESaIcEE12_Alloc_hiderD1Ev
_ZNSt7__cxx1112basic_stringIcSt11char_traitsIcESaIcEE12_Alloc_hiderD1Ev:
.LFB3291:
	.file 8 "D:/msys64/ucrt64/include/c++/15.2.0/bits/basic_string.h"
	.loc 8 197 14
	.cfi_startproc
	pushq	%rbp	 #
	.seh_pushreg	%rbp
	.cfi_def_cfa_offset 16
	.cfi_offset 6, -16
	movq	%rsp, %rbp	 #,
	.seh_setframe	%rbp, 0
	.cfi_def_cfa_register 6
	subq	$16, %rsp	 #,
	.seh_stackalloc	16
	.seh_endprologue
	movq	%rcx, 16(%rbp)	 # this, this
	movq	16(%rbp), %rax	 # this, tmp98
	movq	%rax, -8(%rbp)	 # tmp98, this
.LBB298:
.LBB299:
.LBB300:
 # D:/msys64/ucrt64/include/c++/15.2.0/bits/allocator.h:189:       ~allocator() _GLIBCXX_NOTHROW { }
	.file 9 "D:/msys64/ucrt64/include/c++/15.2.0/bits/allocator.h"
	.loc 9 189 31
	nop	
.LBE300:
.LBE299:
.LBE298:
 # D:/msys64/ucrt64/include/c++/15.2.0/bits/basic_string.h:197:       struct _Alloc_hider : allocator_type // TODO check __is_final
	.loc 8 197 14
	nop	
	addq	$16, %rsp	 #,
	popq	%rbp	 #
	.cfi_restore 6
	.cfi_def_cfa 7, 8
	ret	
	.cfi_endproc
.LFE3291:
	.seh_endproc
	.section	.text$_ZNSt7__cxx1112basic_stringIcSt11char_traitsIcESaIcEEC1EvQ26is_default_constructible_vIT1_E,"x"
	.linkonce discard
	.align 2
	.globl	_ZNSt7__cxx1112basic_stringIcSt11char_traitsIcESaIcEEC1EvQ26is_default_constructible_vIT1_E
	.def	_ZNSt7__cxx1112basic_stringIcSt11char_traitsIcESaIcEEC1EvQ26is_default_constructible_vIT1_E;	.scl	2;	.type	32;	.endef
	.seh_proc	_ZNSt7__cxx1112basic_stringIcSt11char_traitsIcESaIcEEC1EvQ26is_default_constructible_vIT1_E
_ZNSt7__cxx1112basic_stringIcSt11char_traitsIcESaIcEEC1EvQ26is_default_constructible_vIT1_E:
.LFB3293:
	.loc 8 585 7
	.cfi_startproc
	pushq	%rbp	 #
	.seh_pushreg	%rbp
	.cfi_def_cfa_offset 16
	.cfi_offset 6, -16
	pushq	%rbx	 #
	.seh_pushreg	%rbx
	.cfi_def_cfa_offset 24
	.cfi_offset 3, -24
	subq	$72, %rsp	 #,
	.seh_stackalloc	72
	.cfi_def_cfa_offset 96
	leaq	64(%rsp), %rbp	 #,
	.seh_setframe	%rbp, 64
	.cfi_def_cfa 6, 32
	.seh_endprologue
	movq	%rcx, 32(%rbp)	 # this, this
.LBB301:
 # D:/msys64/ucrt64/include/c++/15.2.0/bits/basic_string.h:590:       : _M_dataplus(_M_local_data())
	.loc 8 590 9
	movq	32(%rbp), %rbx	 # this, _1
	leaq	-25(%rbp), %rax	 #, tmp102
	movq	%rax, -24(%rbp)	 # tmp102, this
.LBB302:
.LBB303:
.LBB304:
.LBB305:
.LBB306:
 # D:/msys64/ucrt64/include/c++/15.2.0/bits/new_allocator.h:88:       __new_allocator() _GLIBCXX_USE_NOEXCEPT { }
	.file 10 "D:/msys64/ucrt64/include/c++/15.2.0/bits/new_allocator.h"
	.loc 10 88 36
	nop	
.LBE306:
.LBE305:
.LBE304:
 # D:/msys64/ucrt64/include/c++/15.2.0/bits/allocator.h:168:       allocator() _GLIBCXX_NOTHROW { }
	.loc 9 168 30
	nop	
.LBE303:
.LBE302:
 # D:/msys64/ucrt64/include/c++/15.2.0/bits/basic_string.h:590:       : _M_dataplus(_M_local_data())
	.loc 8 590 9 discriminator 1
	movq	32(%rbp), %rax	 # this, tmp103
	movq	%rax, %rcx	 # tmp103,
	call	_ZNSt7__cxx1112basic_stringIcSt11char_traitsIcESaIcEE13_M_local_dataEv	 #
 # D:/msys64/ucrt64/include/c++/15.2.0/bits/basic_string.h:590:       : _M_dataplus(_M_local_data())
	.loc 8 590 9 is_stmt 0 discriminator 2
	leaq	-25(%rbp), %rdx	 #, tmp104
	movq	%rdx, %r8	 # tmp104,
	movq	%rax, %rdx	 # _2,
	movq	%rbx, %rcx	 # _1,
	call	_ZNSt7__cxx1112basic_stringIcSt11char_traitsIcESaIcEE12_Alloc_hiderC1EPcOS3_	 #
.LBB307:
.LBB308:
 # D:/msys64/ucrt64/include/c++/15.2.0/bits/allocator.h:189:       ~allocator() _GLIBCXX_NOTHROW { }
	.loc 9 189 31 is_stmt 1
	nop	
	movq	32(%rbp), %rax	 # this, tmp105
	movq	%rax, -8(%rbp)	 # tmp105, this
.LBE308:
.LBE307:
.LBB309:
.LBB310:
.LBB311:
 # D:/msys64/ucrt64/include/c++/15.2.0/bits/basic_string.h:374: 	if (std::is_constant_evaluated())
	.loc 8 374 32
	call	_ZSt21is_constant_evaluatedv	 #
 # D:/msys64/ucrt64/include/c++/15.2.0/bits/basic_string.h:374: 	if (std::is_constant_evaluated())
	.loc 8 374 2 discriminator 1
	testb	%al, %al	 # retval.35_12
	je	.L45	 #,
.LBB312:
.LBB313:
 # D:/msys64/ucrt64/include/c++/15.2.0/bits/basic_string.h:375: 	  for (size_type __i = 0; __i <= _S_local_capacity; ++__i)
	.loc 8 375 19
	movq	$0, -16(%rbp)	 #, __i
 # D:/msys64/ucrt64/include/c++/15.2.0/bits/basic_string.h:375: 	  for (size_type __i = 0; __i <= _S_local_capacity; ++__i)
	.loc 8 375 4
	jmp	.L42	 #
.L43:
 # D:/msys64/ucrt64/include/c++/15.2.0/bits/basic_string.h:376: 	    _M_local_buf[__i] = _CharT();
	.loc 8 376 24
	movq	-8(%rbp), %rdx	 # this, tmp106
	movq	-16(%rbp), %rax	 # __i, tmp108
	addq	%rdx, %rax	 # tmp106, tmp107
	addq	$16, %rax	 #, tmp109
	movb	$0, (%rax)	 #, this_11->D.61524._M_local_buf[__i_14]
 # D:/msys64/ucrt64/include/c++/15.2.0/bits/basic_string.h:375: 	  for (size_type __i = 0; __i <= _S_local_capacity; ++__i)
	.loc 8 375 4 discriminator 3
	addq	$1, -16(%rbp)	 #, __i
.L42:
 # D:/msys64/ucrt64/include/c++/15.2.0/bits/basic_string.h:375: 	  for (size_type __i = 0; __i <= _S_local_capacity; ++__i)
	.loc 8 375 32 discriminator 1
	cmpq	$15, -16(%rbp)	 #, __i
	jbe	.L43	 #,
.L45:
.LBE313:
.LBE312:
.LBE311:
 # D:/msys64/ucrt64/include/c++/15.2.0/bits/basic_string.h:378:       }
	.loc 8 378 7
	nop	
.LBE310:
.LBE309:
 # D:/msys64/ucrt64/include/c++/15.2.0/bits/basic_string.h:593: 	_M_set_length(0);
	.loc 8 593 15
	movq	32(%rbp), %rax	 # this, tmp110
	movl	$0, %edx	 #,
	movq	%rax, %rcx	 # tmp110,
	call	_ZNSt7__cxx1112basic_stringIcSt11char_traitsIcESaIcEE13_M_set_lengthEy	 #
.LBE301:
 # D:/msys64/ucrt64/include/c++/15.2.0/bits/basic_string.h:594:       }
	.loc 8 594 7
	nop	
	addq	$72, %rsp	 #,
	popq	%rbx	 #
	.cfi_restore 3
	popq	%rbp	 #
	.cfi_restore 6
	.cfi_def_cfa 7, -56
	ret	
	.cfi_endproc
.LFE3293:
	.seh_handler	__gxx_personality_seh0, @unwind, @except
	.seh_handlerdata
.LLSDA3293:
	.byte	0xff
	.byte	0xff
	.byte	0x1
	.uleb128 .LLSDACSE3293-.LLSDACSB3293
.LLSDACSB3293:
.LLSDACSE3293:
	.section	.text$_ZNSt7__cxx1112basic_stringIcSt11char_traitsIcESaIcEEC1EvQ26is_default_constructible_vIT1_E,"x"
	.linkonce discard
	.seh_endproc
	.weak	_ZNSt7__cxx1112basic_stringIcSt11char_traitsIcESaIcEEC1Ev
	.def	_ZNSt7__cxx1112basic_stringIcSt11char_traitsIcESaIcEEC1Ev;	.scl	2;	.type	32;	.endef
	.set	_ZNSt7__cxx1112basic_stringIcSt11char_traitsIcESaIcEEC1Ev,_ZNSt7__cxx1112basic_stringIcSt11char_traitsIcESaIcEEC1EvQ26is_default_constructible_vIT1_E
	.section	.text$_ZNSt7__cxx1112basic_stringIcSt11char_traitsIcESaIcEE13_M_local_dataEv,"x"
	.linkonce discard
	.align 2
	.globl	_ZNSt7__cxx1112basic_stringIcSt11char_traitsIcESaIcEE13_M_local_dataEv
	.def	_ZNSt7__cxx1112basic_stringIcSt11char_traitsIcESaIcEE13_M_local_dataEv;	.scl	2;	.type	32;	.endef
	.seh_proc	_ZNSt7__cxx1112basic_stringIcSt11char_traitsIcESaIcEE13_M_local_dataEv
_ZNSt7__cxx1112basic_stringIcSt11char_traitsIcESaIcEE13_M_local_dataEv:
.LFB3294:
	.loc 8 243 7
	.cfi_startproc
	pushq	%rbp	 #
	.seh_pushreg	%rbp
	.cfi_def_cfa_offset 16
	.cfi_offset 6, -16
	movq	%rsp, %rbp	 #,
	.seh_setframe	%rbp, 0
	.cfi_def_cfa_register 6
	subq	$32, %rsp	 #,
	.seh_stackalloc	32
	.seh_endprologue
	movq	%rcx, 16(%rbp)	 # this, this
 # D:/msys64/ucrt64/include/c++/15.2.0/bits/basic_string.h:246: 	return std::pointer_traits<pointer>::pointer_to(*_M_local_buf);
	.loc 8 246 51
	movq	16(%rbp), %rax	 # this, tmp101
	addq	$16, %rax	 #, _1
 # D:/msys64/ucrt64/include/c++/15.2.0/bits/basic_string.h:246: 	return std::pointer_traits<pointer>::pointer_to(*_M_local_buf);
	.loc 8 246 49
	movq	%rax, %rcx	 # _1,
	call	_ZNSt19__ptr_traits_ptr_toIPccLb0EE10pointer_toERc	 #
 # D:/msys64/ucrt64/include/c++/15.2.0/bits/basic_string.h:250:       }
	.loc 8 250 7
	addq	$32, %rsp	 #,
	popq	%rbp	 #
	.cfi_restore 6
	.cfi_def_cfa 7, 8
	ret	
	.cfi_endproc
.LFE3294:
	.seh_endproc
	.section	.text$_ZNSt19__ptr_traits_ptr_toIPccLb0EE10pointer_toERc,"x"
	.linkonce discard
	.globl	_ZNSt19__ptr_traits_ptr_toIPccLb0EE10pointer_toERc
	.def	_ZNSt19__ptr_traits_ptr_toIPccLb0EE10pointer_toERc;	.scl	2;	.type	32;	.endef
	.seh_proc	_ZNSt19__ptr_traits_ptr_toIPccLb0EE10pointer_toERc
_ZNSt19__ptr_traits_ptr_toIPccLb0EE10pointer_toERc:
.LFB3295:
	.file 11 "D:/msys64/ucrt64/include/c++/15.2.0/bits/ptr_traits.h"
	.loc 11 134 7
	.cfi_startproc
	pushq	%rbp	 #
	.seh_pushreg	%rbp
	.cfi_def_cfa_offset 16
	.cfi_offset 6, -16
	movq	%rsp, %rbp	 #,
	.seh_setframe	%rbp, 0
	.cfi_def_cfa_register 6
	subq	$16, %rsp	 #,
	.seh_stackalloc	16
	.seh_endprologue
	movq	%rcx, 16(%rbp)	 # __r, __r
	movq	16(%rbp), %rax	 # __r, tmp100
	movq	%rax, -8(%rbp)	 # tmp100, __r
	movq	-8(%rbp), %rax	 # __r, tmp101
	movq	%rax, -16(%rbp)	 # tmp101, __r
.LBB314:
.LBB315:
.LBB316:
.LBB317:
 # D:/msys64/ucrt64/include/c++/15.2.0/bits/move.h:53:     { return __builtin_addressof(__r); }
	.file 12 "D:/msys64/ucrt64/include/c++/15.2.0/bits/move.h"
	.loc 12 53 37
	movq	-16(%rbp), %rax	 # __r, D.248155
.LBE317:
.LBE316:
 # D:/msys64/ucrt64/include/c++/15.2.0/bits/move.h:177:     { return std::__addressof(__r); }
	.loc 12 177 34
	nop	
.LBE315:
.LBE314:
 # D:/msys64/ucrt64/include/c++/15.2.0/bits/ptr_traits.h:135:       { return std::addressof(__r); }
	.loc 11 135 37
	addq	$16, %rsp	 #,
	popq	%rbp	 #
	.cfi_restore 6
	.cfi_def_cfa 7, 8
	ret	
	.cfi_endproc
.LFE3295:
	.seh_endproc
	.section	.text$_ZNSt7__cxx1112basic_stringIcSt11char_traitsIcESaIcEE12_Alloc_hiderC1EPcOS3_,"x"
	.linkonce discard
	.align 2
	.globl	_ZNSt7__cxx1112basic_stringIcSt11char_traitsIcESaIcEE12_Alloc_hiderC1EPcOS3_
	.def	_ZNSt7__cxx1112basic_stringIcSt11char_traitsIcESaIcEE12_Alloc_hiderC1EPcOS3_;	.scl	2;	.type	32;	.endef
	.seh_proc	_ZNSt7__cxx1112basic_stringIcSt11char_traitsIcESaIcEE12_Alloc_hiderC1EPcOS3_
_ZNSt7__cxx1112basic_stringIcSt11char_traitsIcESaIcEE12_Alloc_hiderC1EPcOS3_:
.LFB3306:
	.loc 8 208 2
	.cfi_startproc
	pushq	%rbp	 #
	.seh_pushreg	%rbp
	.cfi_def_cfa_offset 16
	.cfi_offset 6, -16
	movq	%rsp, %rbp	 #,
	.seh_setframe	%rbp, 0
	.cfi_def_cfa_register 6
	subq	$48, %rsp	 #,
	.seh_stackalloc	48
	.seh_endprologue
	movq	%rcx, 16(%rbp)	 # this, this
	movq	%rdx, 24(%rbp)	 # __dat, __dat
	movq	%r8, 32(%rbp)	 # __a, __a
	movq	32(%rbp), %rax	 # __a, tmp99
	movq	%rax, -40(%rbp)	 # tmp99, __t
.LBB318:
.LBB319:
.LBB320:
 # D:/msys64/ucrt64/include/c++/15.2.0/bits/move.h:139:     { return static_cast<typename std::remove_reference<_Tp>::type&&>(__t); }
	.loc 12 139 74
	movq	-40(%rbp), %rax	 # __t, D.248168
	movq	16(%rbp), %rdx	 # this, tmp100
	movq	%rdx, -8(%rbp)	 # tmp100, this
	movq	%rax, -16(%rbp)	 # D.248168, __a
	movq	-8(%rbp), %rax	 # this, tmp101
	movq	%rax, -24(%rbp)	 # tmp101, this
	movq	-16(%rbp), %rax	 # __a, tmp102
	movq	%rax, -32(%rbp)	 # tmp102, D.248166
.LBE320:
.LBE319:
.LBB321:
.LBB322:
.LBB323:
.LBB324:
.LBB325:
 # D:/msys64/ucrt64/include/c++/15.2.0/bits/new_allocator.h:92:       __new_allocator(const __new_allocator&) _GLIBCXX_USE_NOEXCEPT { }
	.loc 10 92 58
	nop	
.LBE325:
.LBE324:
.LBE323:
 # D:/msys64/ucrt64/include/c++/15.2.0/bits/allocator.h:173:       : __allocator_base<_Tp>(__a) { }
	.loc 9 173 38
	nop	
.LBE322:
.LBE321:
 # D:/msys64/ucrt64/include/c++/15.2.0/bits/basic_string.h:209: 	: allocator_type(std::move(__a)), _M_p(__dat) { }
	.loc 8 209 36 discriminator 2
	movq	16(%rbp), %rax	 # this, tmp103
	movq	24(%rbp), %rdx	 # __dat, tmp104
	movq	%rdx, (%rax)	 # tmp104, this_3(D)->_M_p
.LBE318:
 # D:/msys64/ucrt64/include/c++/15.2.0/bits/basic_string.h:209: 	: allocator_type(std::move(__a)), _M_p(__dat) { }
	.loc 8 209 50
	nop	
	addq	$48, %rsp	 #,
	popq	%rbp	 #
	.cfi_restore 6
	.cfi_def_cfa 7, 8
	ret	
	.cfi_endproc
.LFE3306:
	.seh_endproc
	.section	.text$_ZNKSt8ios_base9precisionEv,"x"
	.linkonce discard
	.align 2
	.globl	_ZNKSt8ios_base9precisionEv
	.def	_ZNKSt8ios_base9precisionEv;	.scl	2;	.type	32;	.endef
	.seh_proc	_ZNKSt8ios_base9precisionEv
_ZNKSt8ios_base9precisionEv:
.LFB3617:
	.file 13 "D:/msys64/ucrt64/include/c++/15.2.0/bits/ios_base.h"
	.loc 13 765 5
	.cfi_startproc
	pushq	%rbp	 #
	.seh_pushreg	%rbp
	.cfi_def_cfa_offset 16
	.cfi_offset 6, -16
	movq	%rsp, %rbp	 #,
	.seh_setframe	%rbp, 0
	.cfi_def_cfa_register 6
	.seh_endprologue
	movq	%rcx, 16(%rbp)	 # this, this
 # D:/msys64/ucrt64/include/c++/15.2.0/bits/ios_base.h:766:     { return _M_precision; }
	.loc 13 766 14
	movq	16(%rbp), %rax	 # this, tmp100
	movq	8(%rax), %rax	 # this_2(D)->_M_precision, _3
 # D:/msys64/ucrt64/include/c++/15.2.0/bits/ios_base.h:766:     { return _M_precision; }
	.loc 13 766 28
	popq	%rbp	 #
	.cfi_restore 6
	.cfi_def_cfa 7, 8
	ret	
	.cfi_endproc
.LFE3617:
	.seh_endproc
	.section	.text$_ZNSt8ios_base9precisionEx,"x"
	.linkonce discard
	.align 2
	.globl	_ZNSt8ios_base9precisionEx
	.def	_ZNSt8ios_base9precisionEx;	.scl	2;	.type	32;	.endef
	.seh_proc	_ZNSt8ios_base9precisionEx
_ZNSt8ios_base9precisionEx:
.LFB3618:
	.loc 13 774 5
	.cfi_startproc
	pushq	%rbp	 #
	.seh_pushreg	%rbp
	.cfi_def_cfa_offset 16
	.cfi_offset 6, -16
	movq	%rsp, %rbp	 #,
	.seh_setframe	%rbp, 0
	.cfi_def_cfa_register 6
	subq	$16, %rsp	 #,
	.seh_stackalloc	16
	.seh_endprologue
	movq	%rcx, 16(%rbp)	 # this, this
	movq	%rdx, 24(%rbp)	 # __prec, __prec
 # D:/msys64/ucrt64/include/c++/15.2.0/bits/ios_base.h:776:       streamsize __old = _M_precision;
	.loc 13 776 18
	movq	16(%rbp), %rax	 # this, tmp100
	movq	8(%rax), %rax	 # this_2(D)->_M_precision, tmp101
	movq	%rax, -8(%rbp)	 # tmp101, __old
 # D:/msys64/ucrt64/include/c++/15.2.0/bits/ios_base.h:777:       _M_precision = __prec;
	.loc 13 777 20
	movq	16(%rbp), %rax	 # this, tmp102
	movq	24(%rbp), %rdx	 # __prec, tmp103
	movq	%rdx, 8(%rax)	 # tmp103, this_2(D)->_M_precision
 # D:/msys64/ucrt64/include/c++/15.2.0/bits/ios_base.h:778:       return __old;
	.loc 13 778 14
	movq	-8(%rbp), %rax	 # __old, _6
 # D:/msys64/ucrt64/include/c++/15.2.0/bits/ios_base.h:779:     }
	.loc 13 779 5
	addq	$16, %rsp	 #,
	popq	%rbp	 #
	.cfi_restore 6
	.cfi_def_cfa 7, 8
	ret	
	.cfi_endproc
.LFE3618:
	.seh_endproc
	.section	.text$_ZN3cva4math6MatrixC1Eyyd,"x"
	.linkonce discard
	.align 2
	.globl	_ZN3cva4math6MatrixC1Eyyd
	.def	_ZN3cva4math6MatrixC1Eyyd;	.scl	2;	.type	32;	.endef
	.seh_proc	_ZN3cva4math6MatrixC1Eyyd
_ZN3cva4math6MatrixC1Eyyd:
.LFB4008:
	.file 14 "E:/Projects/Simulation_Projects/cva_cpp/includes_hpp/math/matrix.hpp"
	.loc 14 15 9
	.cfi_startproc
	pushq	%rbp	 #
	.seh_pushreg	%rbp
	.cfi_def_cfa_offset 16
	.cfi_offset 6, -16
	movq	%rsp, %rbp	 #,
	.seh_setframe	%rbp, 0
	.cfi_def_cfa_register 6
	subq	$48, %rsp	 #,
	.seh_stackalloc	48
	.seh_endprologue
	movq	%rcx, 16(%rbp)	 # this, this
	movq	%rdx, 24(%rbp)	 # rows, rows
	movq	%r8, 32(%rbp)	 # cols, cols
	movsd	%xmm3, 40(%rbp)	 # initial_value, initial_value
.LBB326:
 # E:/Projects/Simulation_Projects/cva_cpp/includes_hpp/math/matrix.hpp:16:             : rows_(rows), cols_(cols), data_(rows * cols, initial_value) {}
	.loc 14 16 15
	movq	16(%rbp), %rax	 # this, tmp101
	movq	24(%rbp), %rdx	 # rows, tmp102
	movq	%rdx, (%rax)	 # tmp102, this_5(D)->rows_
 # E:/Projects/Simulation_Projects/cva_cpp/includes_hpp/math/matrix.hpp:16:             : rows_(rows), cols_(cols), data_(rows * cols, initial_value) {}
	.loc 14 16 28
	movq	16(%rbp), %rax	 # this, tmp103
	movq	32(%rbp), %rdx	 # cols, tmp104
	movq	%rdx, 8(%rax)	 # tmp104, this_5(D)->cols_
 # E:/Projects/Simulation_Projects/cva_cpp/includes_hpp/math/matrix.hpp:16:             : rows_(rows), cols_(cols), data_(rows * cols, initial_value) {}
	.loc 14 16 41
	movq	16(%rbp), %rax	 # this, tmp105
	leaq	16(%rax), %rcx	 #, _1
	leaq	-9(%rbp), %rax	 #, tmp106
	movq	%rax, -8(%rbp)	 # tmp106, this
.LBB327:
.LBB328:
.LBB329:
.LBB330:
.LBB331:
 # D:/msys64/ucrt64/include/c++/15.2.0/bits/new_allocator.h:88:       __new_allocator() _GLIBCXX_USE_NOEXCEPT { }
	.loc 10 88 36
	nop	
.LBE331:
.LBE330:
.LBE329:
 # D:/msys64/ucrt64/include/c++/15.2.0/bits/allocator.h:168:       allocator() _GLIBCXX_NOTHROW { }
	.loc 9 168 30
	nop	
.LBE328:
.LBE327:
 # E:/Projects/Simulation_Projects/cva_cpp/includes_hpp/math/matrix.hpp:16:             : rows_(rows), cols_(cols), data_(rows * cols, initial_value) {}
	.loc 14 16 41 discriminator 1
	movq	24(%rbp), %rax	 # rows, tmp107
	imulq	32(%rbp), %rax	 # cols, _2
	leaq	-9(%rbp), %r8	 #, tmp108
	leaq	40(%rbp), %rdx	 #, tmp109
	movq	%r8, %r9	 # tmp108,
	movq	%rdx, %r8	 # tmp109,
	movq	%rax, %rdx	 # _2,
	call	_ZNSt6vectorIdSaIdEEC1EyRKdRKS0_	 #
.LBB332:
.LBB333:
 # D:/msys64/ucrt64/include/c++/15.2.0/bits/allocator.h:189:       ~allocator() _GLIBCXX_NOTHROW { }
	.loc 9 189 31
	nop	
.LBE333:
.LBE332:
.LBE326:
 # E:/Projects/Simulation_Projects/cva_cpp/includes_hpp/math/matrix.hpp:16:             : rows_(rows), cols_(cols), data_(rows * cols, initial_value) {}
	.loc 14 16 76
	nop	
	addq	$48, %rsp	 #,
	popq	%rbp	 #
	.cfi_restore 6
	.cfi_def_cfa 7, 8
	ret	
	.cfi_endproc
.LFE4008:
	.seh_endproc
	.section	.text$_ZN3cva4math6MatrixclEyy,"x"
	.linkonce discard
	.align 2
	.globl	_ZN3cva4math6MatrixclEyy
	.def	_ZN3cva4math6MatrixclEyy;	.scl	2;	.type	32;	.endef
	.seh_proc	_ZN3cva4math6MatrixclEyy
_ZN3cva4math6MatrixclEyy:
.LFB4011:
	.loc 14 22 17
	.cfi_startproc
	pushq	%rbp	 #
	.seh_pushreg	%rbp
	.cfi_def_cfa_offset 16
	.cfi_offset 6, -16
	movq	%rsp, %rbp	 #,
	.seh_setframe	%rbp, 0
	.cfi_def_cfa_register 6
	subq	$32, %rsp	 #,
	.seh_stackalloc	32
	.seh_endprologue
	movq	%rcx, 16(%rbp)	 # this, this
	movq	%rdx, 24(%rbp)	 # i, i
	movq	%r8, 32(%rbp)	 # j, j
 # E:/Projects/Simulation_Projects/cva_cpp/includes_hpp/math/matrix.hpp:23:             return data_[i * cols_ + j];
	.loc 14 23 39
	movq	16(%rbp), %rax	 # this, tmp104
	addq	$16, %rax	 #, _1
 # E:/Projects/Simulation_Projects/cva_cpp/includes_hpp/math/matrix.hpp:23:             return data_[i * cols_ + j];
	.loc 14 23 30
	movq	16(%rbp), %rdx	 # this, tmp105
	movq	8(%rdx), %rdx	 # this_5(D)->cols_, _2
 # E:/Projects/Simulation_Projects/cva_cpp/includes_hpp/math/matrix.hpp:23:             return data_[i * cols_ + j];
	.loc 14 23 28
	movq	%rdx, %rcx	 # _2, _2
	imulq	24(%rbp), %rcx	 # i, _2
 # E:/Projects/Simulation_Projects/cva_cpp/includes_hpp/math/matrix.hpp:23:             return data_[i * cols_ + j];
	.loc 14 23 39
	movq	32(%rbp), %rdx	 # j, tmp106
	addq	%rcx, %rdx	 # _3, _4
	movq	%rax, %rcx	 # _1,
	call	_ZNSt6vectorIdSaIdEEixEy	 #
 # E:/Projects/Simulation_Projects/cva_cpp/includes_hpp/math/matrix.hpp:24:         }
	.loc 14 24 9
	addq	$32, %rsp	 #,
	popq	%rbp	 #
	.cfi_restore 6
	.cfi_def_cfa 7, 8
	ret	
	.cfi_endproc
.LFE4011:
	.seh_endproc
	.section .rdata,"dr"
.LC5:
	.ascii "Matrix dimension mismatch\0"
	.section	.text$_ZN3cva4math6MatrixpLERKS1_,"x"
	.linkonce discard
	.align 2
	.globl	_ZN3cva4math6MatrixpLERKS1_
	.def	_ZN3cva4math6MatrixpLERKS1_;	.scl	2;	.type	32;	.endef
	.seh_proc	_ZN3cva4math6MatrixpLERKS1_
_ZN3cva4math6MatrixpLERKS1_:
.LFB4015:
	.loc 14 35 17
	.cfi_startproc
	pushq	%rbp	 #
	.seh_pushreg	%rbp
	.cfi_def_cfa_offset 16
	.cfi_offset 6, -16
	pushq	%rsi	 #
	.seh_pushreg	%rsi
	.cfi_def_cfa_offset 24
	.cfi_offset 4, -24
	pushq	%rbx	 #
	.seh_pushreg	%rbx
	.cfi_def_cfa_offset 32
	.cfi_offset 3, -32
	subq	$64, %rsp	 #,
	.seh_stackalloc	64
	.cfi_def_cfa_offset 96
	leaq	48(%rsp), %rbp	 #,
	.seh_setframe	%rbp, 48
	.cfi_def_cfa 6, 48
	movups	%xmm6, 0(%rbp)	 #,
	.seh_savexmm	%xmm6, 48
	.cfi_offset 23, -48
	.seh_endprologue
	movq	%rcx, 48(%rbp)	 # this, this
	movq	%rdx, 56(%rbp)	 # other, other
 # E:/Projects/Simulation_Projects/cva_cpp/includes_hpp/math/matrix.hpp:36:             if (rows_ != other.rows_ || cols_ != other.cols_) {
	.loc 14 36 17
	movq	48(%rbp), %rax	 # this, tmp116
	movq	(%rax), %rdx	 # this_15(D)->rows_, _1
 # E:/Projects/Simulation_Projects/cva_cpp/includes_hpp/math/matrix.hpp:36:             if (rows_ != other.rows_ || cols_ != other.cols_) {
	.loc 14 36 32
	movq	56(%rbp), %rax	 # other, tmp117
	movq	(%rax), %rax	 # other_16(D)->rows_, _2
 # E:/Projects/Simulation_Projects/cva_cpp/includes_hpp/math/matrix.hpp:36:             if (rows_ != other.rows_ || cols_ != other.cols_) {
	.loc 14 36 13
	cmpq	%rax, %rdx	 # _2, _1
	jne	.L62	 #,
 # E:/Projects/Simulation_Projects/cva_cpp/includes_hpp/math/matrix.hpp:36:             if (rows_ != other.rows_ || cols_ != other.cols_) {
	.loc 14 36 41 discriminator 1
	movq	48(%rbp), %rax	 # this, tmp118
	movq	8(%rax), %rdx	 # this_15(D)->cols_, _3
 # E:/Projects/Simulation_Projects/cva_cpp/includes_hpp/math/matrix.hpp:36:             if (rows_ != other.rows_ || cols_ != other.cols_) {
	.loc 14 36 56 discriminator 1
	movq	56(%rbp), %rax	 # other, tmp119
	movq	8(%rax), %rax	 # other_16(D)->cols_, _4
 # E:/Projects/Simulation_Projects/cva_cpp/includes_hpp/math/matrix.hpp:36:             if (rows_ != other.rows_ || cols_ != other.cols_) {
	.loc 14 36 38 discriminator 1
	cmpq	%rax, %rdx	 # _4, _3
	je	.L63	 #,
.L62:
 # E:/Projects/Simulation_Projects/cva_cpp/includes_hpp/math/matrix.hpp:37:                 throw std::invalid_argument("Matrix dimension mismatch");
	.loc 14 37 72
	movl	$16, %ecx	 #,
	call	__cxa_allocate_exception	 #
	movq	%rax, %rbx	 # tmp120, _28
 # E:/Projects/Simulation_Projects/cva_cpp/includes_hpp/math/matrix.hpp:37:                 throw std::invalid_argument("Matrix dimension mismatch");
	.loc 14 37 72 is_stmt 0 discriminator 1
	leaq	.LC5(%rip), %rax	 #, tmp121
	movq	%rax, %rdx	 # tmp121,
	movq	%rbx, %rcx	 # _28,
.LEHB0:
	call	_ZNSt16invalid_argumentC1EPKc	 #
.LEHE0:
 # E:/Projects/Simulation_Projects/cva_cpp/includes_hpp/math/matrix.hpp:37:                 throw std::invalid_argument("Matrix dimension mismatch");
	.loc 14 37 72 discriminator 4
	movq	.refptr._ZNSt16invalid_argumentD1Ev(%rip), %rdx	 #, tmp122
	leaq	_ZTISt16invalid_argument(%rip), %rax	 #, tmp123
	movq	%rdx, %r8	 # tmp122,
	movq	%rax, %rdx	 # tmp123,
	movq	%rbx, %rcx	 # _28,
.LEHB1:
	call	__cxa_throw	 #
.L63:
.LBB334:
 # E:/Projects/Simulation_Projects/cva_cpp/includes_hpp/math/matrix.hpp:39:             for (size_t i = 0; i < data_.size(); ++i) {
	.loc 14 39 25 is_stmt 1
	movq	$0, -8(%rbp)	 #, i
 # E:/Projects/Simulation_Projects/cva_cpp/includes_hpp/math/matrix.hpp:39:             for (size_t i = 0; i < data_.size(); ++i) {
	.loc 14 39 13
	jmp	.L64	 #
.L65:
 # E:/Projects/Simulation_Projects/cva_cpp/includes_hpp/math/matrix.hpp:40:                 data_[i] += other.data_[i];
	.loc 14 40 42
	movq	56(%rbp), %rax	 # other, tmp124
	leaq	16(%rax), %rcx	 #, _5
	movq	-8(%rbp), %rax	 # i, tmp125
	movq	%rax, %rdx	 # tmp125,
	call	_ZNKSt6vectorIdSaIdEEixEy	 #
 # E:/Projects/Simulation_Projects/cva_cpp/includes_hpp/math/matrix.hpp:40:                 data_[i] += other.data_[i];
	.loc 14 40 26 discriminator 1
	movsd	(%rax), %xmm6	 # *_6, _22
 # E:/Projects/Simulation_Projects/cva_cpp/includes_hpp/math/matrix.hpp:40:                 data_[i] += other.data_[i];
	.loc 14 40 24 discriminator 1
	movq	48(%rbp), %rax	 # this, tmp126
	leaq	16(%rax), %rcx	 #, _7
	movq	-8(%rbp), %rax	 # i, tmp127
	movq	%rax, %rdx	 # tmp127,
	call	_ZNSt6vectorIdSaIdEEixEy	 #
 # E:/Projects/Simulation_Projects/cva_cpp/includes_hpp/math/matrix.hpp:40:                 data_[i] += other.data_[i];
	.loc 14 40 26 discriminator 2
	movsd	(%rax), %xmm0	 # *_24, _8
	addsd	%xmm6, %xmm0	 # _22, _9
	movsd	%xmm0, (%rax)	 # _9, *_24
 # E:/Projects/Simulation_Projects/cva_cpp/includes_hpp/math/matrix.hpp:39:             for (size_t i = 0; i < data_.size(); ++i) {
	.loc 14 39 13 discriminator 4
	addq	$1, -8(%rbp)	 #, i
.L64:
 # E:/Projects/Simulation_Projects/cva_cpp/includes_hpp/math/matrix.hpp:39:             for (size_t i = 0; i < data_.size(); ++i) {
	.loc 14 39 46 discriminator 1
	movq	48(%rbp), %rax	 # this, tmp128
	addq	$16, %rax	 #, _10
	movq	%rax, %rcx	 # _10,
	call	_ZNKSt6vectorIdSaIdEE4sizeEv	 #
 # E:/Projects/Simulation_Projects/cva_cpp/includes_hpp/math/matrix.hpp:39:             for (size_t i = 0; i < data_.size(); ++i) {
	.loc 14 39 34 discriminator 3
	cmpq	%rax, -8(%rbp)	 # _11, i
	setb	%al	 #, retval.19_19
	testb	%al, %al	 # retval.19_19
	jne	.L65	 #,
.LBE334:
 # E:/Projects/Simulation_Projects/cva_cpp/includes_hpp/math/matrix.hpp:42:             return *this;
	.loc 14 42 21
	movq	48(%rbp), %rax	 # this, _20
	jmp	.L69	 #
.L68:
 # E:/Projects/Simulation_Projects/cva_cpp/includes_hpp/math/matrix.hpp:37:                 throw std::invalid_argument("Matrix dimension mismatch");
	.loc 14 37 72 discriminator 3
	movq	%rax, %rsi	 #, tmp130
	movq	%rbx, %rcx	 # _28,
	call	__cxa_free_exception	 #
	movq	%rsi, %rax	 # tmp130, D.248465
	movq	%rax, %rcx	 # D.248465,
	call	_Unwind_Resume	 #
.LEHE1:
.L69:
 # E:/Projects/Simulation_Projects/cva_cpp/includes_hpp/math/matrix.hpp:43:         }
	.loc 14 43 9
	movups	0(%rbp), %xmm6	 #,
	addq	$64, %rsp	 #,
	.cfi_restore 23
	popq	%rbx	 #
	.cfi_restore 3
	popq	%rsi	 #
	.cfi_restore 4
	popq	%rbp	 #
	.cfi_restore 6
	.cfi_def_cfa 7, -40
	ret	
	.cfi_endproc
.LFE4015:
	.seh_handler	__gxx_personality_seh0, @unwind, @except
	.seh_handlerdata
.LLSDA4015:
	.byte	0xff
	.byte	0xff
	.byte	0x1
	.uleb128 .LLSDACSE4015-.LLSDACSB4015
.LLSDACSB4015:
	.uleb128 .LEHB0-.LFB4015
	.uleb128 .LEHE0-.LEHB0
	.uleb128 .L68-.LFB4015
	.uleb128 0
	.uleb128 .LEHB1-.LFB4015
	.uleb128 .LEHE1-.LEHB1
	.uleb128 0
	.uleb128 0
.LLSDACSE4015:
	.section	.text$_ZN3cva4math6MatrixpLERKS1_,"x"
	.linkonce discard
	.seh_endproc
	.section	.text$_ZNKSt7__cxx1112basic_stringIcSt11char_traitsIcESaIcEE4sizeEv,"x"
	.linkonce discard
	.align 2
	.globl	_ZNKSt7__cxx1112basic_stringIcSt11char_traitsIcESaIcEE4sizeEv
	.def	_ZNKSt7__cxx1112basic_stringIcSt11char_traitsIcESaIcEE4sizeEv;	.scl	2;	.type	32;	.endef
	.seh_proc	_ZNKSt7__cxx1112basic_stringIcSt11char_traitsIcESaIcEE4sizeEv
_ZNKSt7__cxx1112basic_stringIcSt11char_traitsIcESaIcEE4sizeEv:
.LFB5405:
	.loc 8 1163 7
	.cfi_startproc
	pushq	%rbp	 #
	.seh_pushreg	%rbp
	.cfi_def_cfa_offset 16
	.cfi_offset 6, -16
	movq	%rsp, %rbp	 #,
	.seh_setframe	%rbp, 0
	.cfi_def_cfa_register 6
	subq	$48, %rsp	 #,
	.seh_stackalloc	48
	.seh_endprologue
	movq	%rcx, 16(%rbp)	 # this, this
 # D:/msys64/ucrt64/include/c++/15.2.0/bits/basic_string.h:1165: 	size_type __sz = _M_string_length;
	.loc 8 1165 12
	movq	16(%rbp), %rax	 # this, tmp102
	movq	8(%rax), %rax	 # this_3(D)->_M_string_length, tmp103
	movq	%rax, -8(%rbp)	 # tmp103, __sz
 # D:/msys64/ucrt64/include/c++/15.2.0/bits/basic_string.h:1166: 	if (__sz > max_size ())
	.loc 8 1166 22
	movq	16(%rbp), %rax	 # this, tmp104
	movq	%rax, %rcx	 # tmp104,
	call	_ZNKSt7__cxx1112basic_stringIcSt11char_traitsIcESaIcEE8max_sizeEv	 #
 # D:/msys64/ucrt64/include/c++/15.2.0/bits/basic_string.h:1166: 	if (__sz > max_size ())
	.loc 8 1166 11 discriminator 1
	cmpq	-8(%rbp), %rax	 # __sz, _1
	setb	%al	 #, retval.42_6
 # D:/msys64/ucrt64/include/c++/15.2.0/bits/basic_string.h:1166: 	if (__sz > max_size ())
	.loc 8 1166 2 discriminator 1
	testb	%al, %al	 # retval.42_6
 # D:/msys64/ucrt64/include/c++/15.2.0/bits/basic_string.h:1168: 	return __sz;
	.loc 8 1168 9
	movq	-8(%rbp), %rax	 # __sz, _7
 # D:/msys64/ucrt64/include/c++/15.2.0/bits/basic_string.h:1169:       }
	.loc 8 1169 7
	addq	$48, %rsp	 #,
	popq	%rbp	 #
	.cfi_restore 6
	.cfi_def_cfa 7, 8
	ret	
	.cfi_endproc
.LFE5405:
	.seh_endproc
	.section	.text$_ZSt12setprecisioni,"x"
	.linkonce discard
	.globl	_ZSt12setprecisioni
	.def	_ZSt12setprecisioni;	.scl	2;	.type	32;	.endef
	.seh_proc	_ZSt12setprecisioni
_ZSt12setprecisioni:
.LFB5584:
	.file 15 "D:/msys64/ucrt64/include/c++/15.2.0/iomanip"
	.loc 15 208 3
	.cfi_startproc
	pushq	%rbp	 #
	.seh_pushreg	%rbp
	.cfi_def_cfa_offset 16
	.cfi_offset 6, -16
	movq	%rsp, %rbp	 #,
	.seh_setframe	%rbp, 0
	.cfi_def_cfa_register 6
	.seh_endprologue
	movl	%ecx, 16(%rbp)	 # __n, __n
 # D:/msys64/ucrt64/include/c++/15.2.0/iomanip:208:   { return { __n }; }
	.loc 15 208 18
	movl	16(%rbp), %eax	 # __n, D.246907
 # D:/msys64/ucrt64/include/c++/15.2.0/iomanip:208:   { return { __n }; }
	.loc 15 208 21
	popq	%rbp	 #
	.cfi_restore 6
	.cfi_def_cfa 7, 8
	ret	
	.cfi_endproc
.LFE5584:
	.seh_endproc
	.section	.text$_ZN7testing8internal8GTestLog9GetStreamEv,"x"
	.linkonce discard
	.align 2
	.globl	_ZN7testing8internal8GTestLog9GetStreamEv
	.def	_ZN7testing8internal8GTestLog9GetStreamEv;	.scl	2;	.type	32;	.endef
	.seh_proc	_ZN7testing8internal8GTestLog9GetStreamEv
_ZN7testing8internal8GTestLog9GetStreamEv:
.LFB7499:
	.file 16 "E:/Projects/Simulation_Projects/cva_cpp/build/_deps/googletest-src/googletest/include/gtest/internal/gtest-port.h"
	.loc 16 1042 19
	.cfi_startproc
	pushq	%rbp	 #
	.seh_pushreg	%rbp
	.cfi_def_cfa_offset 16
	.cfi_offset 6, -16
	movq	%rsp, %rbp	 #,
	.seh_setframe	%rbp, 0
	.cfi_def_cfa_register 6
	.seh_endprologue
	movq	%rcx, 16(%rbp)	 # this, this
 # E:/Projects/Simulation_Projects/cva_cpp/build/_deps/googletest-src/googletest/include/gtest/internal/gtest-port.h:1042:   ::std::ostream& GetStream() { return ::std::cerr; }
	.loc 16 1042 47
	movq	.refptr._ZSt4cerr(%rip), %rax	 #, _1
 # E:/Projects/Simulation_Projects/cva_cpp/build/_deps/googletest-src/googletest/include/gtest/internal/gtest-port.h:1042:   ::std::ostream& GetStream() { return ::std::cerr; }
	.loc 16 1042 53
	popq	%rbp	 #
	.cfi_restore 6
	.cfi_def_cfa 7, 8
	ret	
	.cfi_endproc
.LFE7499:
	.seh_endproc
	.section	.text$_ZNKSt7__cxx1112basic_stringIcSt11char_traitsIcESaIcEE7_M_dataEv,"x"
	.linkonce discard
	.align 2
	.globl	_ZNKSt7__cxx1112basic_stringIcSt11char_traitsIcESaIcEE7_M_dataEv
	.def	_ZNKSt7__cxx1112basic_stringIcSt11char_traitsIcESaIcEE7_M_dataEv;	.scl	2;	.type	32;	.endef
	.seh_proc	_ZNKSt7__cxx1112basic_stringIcSt11char_traitsIcESaIcEE7_M_dataEv
_ZNKSt7__cxx1112basic_stringIcSt11char_traitsIcESaIcEE7_M_dataEv:
.LFB7572:
	.loc 8 238 7
	.cfi_startproc
	pushq	%rbp	 #
	.seh_pushreg	%rbp
	.cfi_def_cfa_offset 16
	.cfi_offset 6, -16
	movq	%rsp, %rbp	 #,
	.seh_setframe	%rbp, 0
	.cfi_def_cfa_register 6
	.seh_endprologue
	movq	%rcx, 16(%rbp)	 # this, this
 # D:/msys64/ucrt64/include/c++/15.2.0/bits/basic_string.h:239:       { return _M_dataplus._M_p; }
	.loc 8 239 28
	movq	16(%rbp), %rax	 # this, tmp100
	movq	(%rax), %rax	 # this_2(D)->_M_dataplus._M_p, _3
 # D:/msys64/ucrt64/include/c++/15.2.0/bits/basic_string.h:239:       { return _M_dataplus._M_p; }
	.loc 8 239 34
	popq	%rbp	 #
	.cfi_restore 6
	.cfi_def_cfa 7, 8
	ret	
	.cfi_endproc
.LFE7572:
	.seh_endproc
	.section .rdata,"dr"
	.align 8
_ZN7testing8internalL14kMaxBiggestIntE:
	.quad	9223372036854775807
	.section	.text$_ZNK7testing15AssertionResultcvbEv,"x"
	.linkonce discard
	.align 2
	.globl	_ZNK7testing15AssertionResultcvbEv
	.def	_ZNK7testing15AssertionResultcvbEv;	.scl	2;	.type	32;	.endef
	.seh_proc	_ZNK7testing15AssertionResultcvbEv
_ZNK7testing15AssertionResultcvbEv:
.LFB7890:
	.file 17 "E:/Projects/Simulation_Projects/cva_cpp/build/_deps/googletest-src/googletest/include/gtest/gtest-assertion-result.h"
	.loc 17 174 3
	.cfi_startproc
	pushq	%rbp	 #
	.seh_pushreg	%rbp
	.cfi_def_cfa_offset 16
	.cfi_offset 6, -16
	movq	%rsp, %rbp	 #,
	.seh_setframe	%rbp, 0
	.cfi_def_cfa_register 6
	.seh_endprologue
	movq	%rcx, 16(%rbp)	 # this, this
 # E:/Projects/Simulation_Projects/cva_cpp/build/_deps/googletest-src/googletest/include/gtest/gtest-assertion-result.h:174:   operator bool() const { return success_; }  // NOLINT
	.loc 17 174 34
	movq	16(%rbp), %rax	 # this, tmp100
	movzbl	(%rax), %eax	 # this_2(D)->success_, _3
 # E:/Projects/Simulation_Projects/cva_cpp/build/_deps/googletest-src/googletest/include/gtest/gtest-assertion-result.h:174:   operator bool() const { return success_; }  // NOLINT
	.loc 17 174 44
	popq	%rbp	 #
	.cfi_restore 6
	.cfi_def_cfa 7, 8
	ret	
	.cfi_endproc
.LFE7890:
	.seh_endproc
	.section .rdata,"dr"
.LC6:
	.ascii "\0"
	.section	.text$_ZNK7testing15AssertionResult7messageEv,"x"
	.linkonce discard
	.align 2
	.globl	_ZNK7testing15AssertionResult7messageEv
	.def	_ZNK7testing15AssertionResult7messageEv;	.scl	2;	.type	32;	.endef
	.seh_proc	_ZNK7testing15AssertionResult7messageEv
_ZNK7testing15AssertionResult7messageEv:
.LFB7891:
	.loc 17 183 15
	.cfi_startproc
	pushq	%rbp	 #
	.seh_pushreg	%rbp
	.cfi_def_cfa_offset 16
	.cfi_offset 6, -16
	movq	%rsp, %rbp	 #,
	.seh_setframe	%rbp, 0
	.cfi_def_cfa_register 6
	subq	$32, %rsp	 #,
	.seh_stackalloc	32
	.seh_endprologue
	movq	%rcx, 16(%rbp)	 # this, this
 # E:/Projects/Simulation_Projects/cva_cpp/build/_deps/googletest-src/googletest/include/gtest/gtest-assertion-result.h:184:     return message_ != nullptr ? message_->c_str() : "";
	.loc 17 184 12
	movq	16(%rbp), %rax	 # this, tmp105
	addq	$8, %rax	 #, _1
 # E:/Projects/Simulation_Projects/cva_cpp/build/_deps/googletest-src/googletest/include/gtest/gtest-assertion-result.h:184:     return message_ != nullptr ? message_->c_str() : "";
	.loc 17 184 24
	movl	$0, %edx	 #,
	movq	%rax, %rcx	 # _1,
	call	_ZSteqINSt7__cxx1112basic_stringIcSt11char_traitsIcESaIcEEESt14default_deleteIS5_EEbRKSt10unique_ptrIT_T0_EDn	 #
 # E:/Projects/Simulation_Projects/cva_cpp/build/_deps/googletest-src/googletest/include/gtest/gtest-assertion-result.h:184:     return message_ != nullptr ? message_->c_str() : "";
	.loc 17 184 21 discriminator 1
	xorl	$1, %eax	 #, _3
 # E:/Projects/Simulation_Projects/cva_cpp/build/_deps/googletest-src/googletest/include/gtest/gtest-assertion-result.h:184:     return message_ != nullptr ? message_->c_str() : "";
	.loc 17 184 32 discriminator 1
	testb	%al, %al	 # _3
	je	.L82	 #,
 # E:/Projects/Simulation_Projects/cva_cpp/build/_deps/googletest-src/googletest/include/gtest/gtest-assertion-result.h:184:     return message_ != nullptr ? message_->c_str() : "";
	.loc 17 184 49 discriminator 2
	movq	16(%rbp), %rax	 # this, tmp106
	addq	$8, %rax	 #, _4
	movq	%rax, %rcx	 # _4,
	call	_ZNKSt10unique_ptrINSt7__cxx1112basic_stringIcSt11char_traitsIcESaIcEEESt14default_deleteIS5_EEptEv	 #
 # E:/Projects/Simulation_Projects/cva_cpp/build/_deps/googletest-src/googletest/include/gtest/gtest-assertion-result.h:184:     return message_ != nullptr ? message_->c_str() : "";
	.loc 17 184 49 is_stmt 0 discriminator 4
	movq	%rax, %rcx	 # _5,
	call	_ZNKSt7__cxx1112basic_stringIcSt11char_traitsIcESaIcEE5c_strEv	 #
 # E:/Projects/Simulation_Projects/cva_cpp/build/_deps/googletest-src/googletest/include/gtest/gtest-assertion-result.h:184:     return message_ != nullptr ? message_->c_str() : "";
	.loc 17 184 54 is_stmt 1
	jmp	.L84	 #
.L82:
 # E:/Projects/Simulation_Projects/cva_cpp/build/_deps/googletest-src/googletest/include/gtest/gtest-assertion-result.h:184:     return message_ != nullptr ? message_->c_str() : "";
	.loc 17 184 54 is_stmt 0 discriminator 3
	leaq	.LC6(%rip), %rax	 #, _6
.L84:
 # E:/Projects/Simulation_Projects/cva_cpp/build/_deps/googletest-src/googletest/include/gtest/gtest-assertion-result.h:185:   }
	.loc 17 185 3 is_stmt 1
	addq	$32, %rsp	 #,
	popq	%rbp	 #
	.cfi_restore 6
	.cfi_def_cfa 7, 8
	ret	
	.cfi_endproc
.LFE7891:
	.seh_endproc
	.section	.text$_ZNK7testing15AssertionResult15failure_messageEv,"x"
	.linkonce discard
	.align 2
	.globl	_ZNK7testing15AssertionResult15failure_messageEv
	.def	_ZNK7testing15AssertionResult15failure_messageEv;	.scl	2;	.type	32;	.endef
	.seh_proc	_ZNK7testing15AssertionResult15failure_messageEv
_ZNK7testing15AssertionResult15failure_messageEv:
.LFB7892:
	.loc 17 187 15
	.cfi_startproc
	pushq	%rbp	 #
	.seh_pushreg	%rbp
	.cfi_def_cfa_offset 16
	.cfi_offset 6, -16
	movq	%rsp, %rbp	 #,
	.seh_setframe	%rbp, 0
	.cfi_def_cfa_register 6
	subq	$32, %rsp	 #,
	.seh_stackalloc	32
	.seh_endprologue
	movq	%rcx, 16(%rbp)	 # this, this
 # E:/Projects/Simulation_Projects/cva_cpp/build/_deps/googletest-src/googletest/include/gtest/gtest-assertion-result.h:187:   const char* failure_message() const { return message(); }
	.loc 17 187 55
	movq	16(%rbp), %rax	 # this, tmp100
	movq	%rax, %rcx	 # tmp100,
	call	_ZNK7testing15AssertionResult7messageEv	 #
 # E:/Projects/Simulation_Projects/cva_cpp/build/_deps/googletest-src/googletest/include/gtest/gtest-assertion-result.h:187:   const char* failure_message() const { return message(); }
	.loc 17 187 59
	addq	$32, %rsp	 #,
	popq	%rbp	 #
	.cfi_restore 6
	.cfi_def_cfa 7, 8
	ret	
	.cfi_endproc
.LFE7892:
	.seh_endproc
	.section	.text$_ZN7testing7MessageD1Ev,"x"
	.linkonce discard
	.align 2
	.globl	_ZN7testing7MessageD1Ev
	.def	_ZN7testing7MessageD1Ev;	.scl	2;	.type	32;	.endef
	.seh_proc	_ZN7testing7MessageD1Ev
_ZN7testing7MessageD1Ev:
.LFB7897:
	.file 18 "E:/Projects/Simulation_Projects/cva_cpp/build/_deps/googletest-src/googletest/include/gtest/gtest-message.h"
	.loc 18 101 46
	.cfi_startproc
	pushq	%rbp	 #
	.seh_pushreg	%rbp
	.cfi_def_cfa_offset 16
	.cfi_offset 6, -16
	movq	%rsp, %rbp	 #,
	.seh_setframe	%rbp, 0
	.cfi_def_cfa_register 6
	subq	$32, %rsp	 #,
	.seh_stackalloc	32
	.seh_endprologue
	movq	%rcx, 16(%rbp)	 # this, this
.LBB335:
 # E:/Projects/Simulation_Projects/cva_cpp/build/_deps/googletest-src/googletest/include/gtest/gtest-message.h:101: class GTEST_API_ Message {
	.loc 18 101 46
	movq	16(%rbp), %rax	 # this, _1
	movq	%rax, %rcx	 # _1,
	call	_ZNSt10unique_ptrINSt7__cxx1118basic_stringstreamIcSt11char_traitsIcESaIcEEESt14default_deleteIS5_EED1Ev	 #
.LBE335:
	nop	
	addq	$32, %rsp	 #,
	popq	%rbp	 #
	.cfi_restore 6
	.cfi_def_cfa 7, 8
	ret	
	.cfi_endproc
.LFE7897:
	.seh_endproc
	.section	.text$_ZNSt15__uniq_ptr_dataINSt7__cxx1112basic_stringIcSt11char_traitsIcESaIcEEESt14default_deleteIS5_ELb1ELb1EEaSEOS8_,"x"
	.linkonce discard
	.align 2
	.globl	_ZNSt15__uniq_ptr_dataINSt7__cxx1112basic_stringIcSt11char_traitsIcESaIcEEESt14default_deleteIS5_ELb1ELb1EEaSEOS8_
	.def	_ZNSt15__uniq_ptr_dataINSt7__cxx1112basic_stringIcSt11char_traitsIcESaIcEEESt14default_deleteIS5_ELb1ELb1EEaSEOS8_;	.scl	2;	.type	32;	.endef
	.seh_proc	_ZNSt15__uniq_ptr_dataINSt7__cxx1112basic_stringIcSt11char_traitsIcESaIcEEESt14default_deleteIS5_ELb1ELb1EEaSEOS8_
_ZNSt15__uniq_ptr_dataINSt7__cxx1112basic_stringIcSt11char_traitsIcESaIcEEESt14default_deleteIS5_ELb1ELb1EEaSEOS8_:
.LFB7900:
	.file 19 "D:/msys64/ucrt64/include/c++/15.2.0/bits/unique_ptr.h"
	.loc 19 237 24
	.cfi_startproc
	pushq	%rbp	 #
	.seh_pushreg	%rbp
	.cfi_def_cfa_offset 16
	.cfi_offset 6, -16
	movq	%rsp, %rbp	 #,
	.seh_setframe	%rbp, 0
	.cfi_def_cfa_register 6
	subq	$32, %rsp	 #,
	.seh_stackalloc	32
	.seh_endprologue
	movq	%rcx, 16(%rbp)	 # this, this
	movq	%rdx, 24(%rbp)	 # D.152091, D.152091
 # D:/msys64/ucrt64/include/c++/15.2.0/bits/unique_ptr.h:237:       __uniq_ptr_data& operator=(__uniq_ptr_data&&) = default;
	.loc 19 237 24
	movq	16(%rbp), %rax	 # this, _1
	movq	24(%rbp), %rdx	 # D.152091, _2
	movq	%rax, %rcx	 # _1,
	call	_ZNSt15__uniq_ptr_implINSt7__cxx1112basic_stringIcSt11char_traitsIcESaIcEEESt14default_deleteIS5_EEaSEOS8_	 #
 # D:/msys64/ucrt64/include/c++/15.2.0/bits/unique_ptr.h:237:       __uniq_ptr_data& operator=(__uniq_ptr_data&&) = default;
	.loc 19 237 24 is_stmt 0 discriminator 1
	movq	16(%rbp), %rax	 # this, _7
 # D:/msys64/ucrt64/include/c++/15.2.0/bits/unique_ptr.h:237:       __uniq_ptr_data& operator=(__uniq_ptr_data&&) = default;
	.loc 19 237 24
	addq	$32, %rsp	 #,
	popq	%rbp	 #
	.cfi_restore 6
	.cfi_def_cfa 7, 8
	ret	
	.cfi_endproc
.LFE7900:
	.seh_endproc
	.section	.text$_ZNSt10unique_ptrINSt7__cxx1112basic_stringIcSt11char_traitsIcESaIcEEESt14default_deleteIS5_EEaSEOS8_,"x"
	.linkonce discard
	.align 2
	.globl	_ZNSt10unique_ptrINSt7__cxx1112basic_stringIcSt11char_traitsIcESaIcEEESt14default_deleteIS5_EEaSEOS8_
	.def	_ZNSt10unique_ptrINSt7__cxx1112basic_stringIcSt11char_traitsIcESaIcEEESt14default_deleteIS5_EEaSEOS8_;	.scl	2;	.type	32;	.endef
	.seh_proc	_ZNSt10unique_ptrINSt7__cxx1112basic_stringIcSt11char_traitsIcESaIcEEESt14default_deleteIS5_EEaSEOS8_
_ZNSt10unique_ptrINSt7__cxx1112basic_stringIcSt11char_traitsIcESaIcEEESt14default_deleteIS5_EEaSEOS8_:
.LFB7899:
	.loc 19 409 19 is_stmt 1
	.cfi_startproc
	pushq	%rbp	 #
	.seh_pushreg	%rbp
	.cfi_def_cfa_offset 16
	.cfi_offset 6, -16
	movq	%rsp, %rbp	 #,
	.seh_setframe	%rbp, 0
	.cfi_def_cfa_register 6
	subq	$32, %rsp	 #,
	.seh_stackalloc	32
	.seh_endprologue
	movq	%rcx, 16(%rbp)	 # this, this
	movq	%rdx, 24(%rbp)	 # D.152278, D.152278
 # D:/msys64/ucrt64/include/c++/15.2.0/bits/unique_ptr.h:409:       unique_ptr& operator=(unique_ptr&&) = default;
	.loc 19 409 19
	movq	24(%rbp), %rdx	 # D.152278, _1
	movq	16(%rbp), %rax	 # this, _2
	movq	%rax, %rcx	 # _2,
	call	_ZNSt15__uniq_ptr_dataINSt7__cxx1112basic_stringIcSt11char_traitsIcESaIcEEESt14default_deleteIS5_ELb1ELb1EEaSEOS8_	 #
 # D:/msys64/ucrt64/include/c++/15.2.0/bits/unique_ptr.h:409:       unique_ptr& operator=(unique_ptr&&) = default;
	.loc 19 409 19 is_stmt 0 discriminator 1
	movq	16(%rbp), %rax	 # this, _7
 # D:/msys64/ucrt64/include/c++/15.2.0/bits/unique_ptr.h:409:       unique_ptr& operator=(unique_ptr&&) = default;
	.loc 19 409 19
	addq	$32, %rsp	 #,
	popq	%rbp	 #
	.cfi_restore 6
	.cfi_def_cfa 7, 8
	ret	
	.cfi_endproc
.LFE7899:
	.seh_endproc
	.section	.text$_ZN7testing15AssertionResult13AppendMessageERKNS_7MessageE,"x"
	.linkonce discard
	.align 2
	.globl	_ZN7testing15AssertionResult13AppendMessageERKNS_7MessageE
	.def	_ZN7testing15AssertionResult13AppendMessageERKNS_7MessageE;	.scl	2;	.type	32;	.endef
	.seh_proc	_ZN7testing15AssertionResult13AppendMessageERKNS_7MessageE
_ZN7testing15AssertionResult13AppendMessageERKNS_7MessageE:
.LFB7898:
	.loc 17 206 8 is_stmt 1
	.cfi_startproc
	pushq	%rbp	 #
	.seh_pushreg	%rbp
	.cfi_def_cfa_offset 16
	.cfi_offset 6, -16
	pushq	%rbx	 #
	.seh_pushreg	%rbx
	.cfi_def_cfa_offset 24
	.cfi_offset 3, -24
	subq	$88, %rsp	 #,
	.seh_stackalloc	88
	.cfi_def_cfa_offset 112
	leaq	80(%rsp), %rbp	 #,
	.seh_setframe	%rbp, 80
	.cfi_def_cfa 6, 32
	.seh_endprologue
	movq	%rcx, 32(%rbp)	 # this, this
	movq	%rdx, 40(%rbp)	 # a_message, a_message
 # E:/Projects/Simulation_Projects/cva_cpp/build/_deps/googletest-src/googletest/include/gtest/gtest-assertion-result.h:207:     if (message_ == nullptr) message_ = ::std::make_unique<::std::string>();
	.loc 17 207 9
	movq	32(%rbp), %rax	 # this, tmp105
	addq	$8, %rax	 #, _1
 # E:/Projects/Simulation_Projects/cva_cpp/build/_deps/googletest-src/googletest/include/gtest/gtest-assertion-result.h:207:     if (message_ == nullptr) message_ = ::std::make_unique<::std::string>();
	.loc 17 207 18
	movl	$0, %edx	 #,
	movq	%rax, %rcx	 # _1,
	call	_ZSteqINSt7__cxx1112basic_stringIcSt11char_traitsIcESaIcEEESt14default_deleteIS5_EEbRKSt10unique_ptrIT_T0_EDn	 #
 # E:/Projects/Simulation_Projects/cva_cpp/build/_deps/googletest-src/googletest/include/gtest/gtest-assertion-result.h:207:     if (message_ == nullptr) message_ = ::std::make_unique<::std::string>();
	.loc 17 207 5 discriminator 1
	testb	%al, %al	 # retval.34_11
	je	.L93	 #,
 # E:/Projects/Simulation_Projects/cva_cpp/build/_deps/googletest-src/googletest/include/gtest/gtest-assertion-result.h:207:     if (message_ == nullptr) message_ = ::std::make_unique<::std::string>();
	.loc 17 207 74 discriminator 2
	leaq	-40(%rbp), %rax	 #, tmp106
	movq	%rax, %rcx	 # tmp106,
.LEHB2:
	call	_ZSt11make_uniqueINSt7__cxx1112basic_stringIcSt11char_traitsIcESaIcEEEJEENSt8__detail9_MakeUniqIT_E15__single_objectEDpOT0_	 #
 # E:/Projects/Simulation_Projects/cva_cpp/build/_deps/googletest-src/googletest/include/gtest/gtest-assertion-result.h:207:     if (message_ == nullptr) message_ = ::std::make_unique<::std::string>();
	.loc 17 207 75 discriminator 5
	movq	32(%rbp), %rax	 # this, tmp107
	leaq	8(%rax), %rcx	 #, _2
	leaq	-40(%rbp), %rax	 #, tmp108
	movq	%rax, %rdx	 # tmp108,
	call	_ZNSt10unique_ptrINSt7__cxx1112basic_stringIcSt11char_traitsIcESaIcEEESt14default_deleteIS5_EEaSEOS8_	 #
 # E:/Projects/Simulation_Projects/cva_cpp/build/_deps/googletest-src/googletest/include/gtest/gtest-assertion-result.h:207:     if (message_ == nullptr) message_ = ::std::make_unique<::std::string>();
	.loc 17 207 74 discriminator 6
	leaq	-40(%rbp), %rax	 #, tmp109
	movq	%rax, %rcx	 # tmp109,
	call	_ZNSt10unique_ptrINSt7__cxx1112basic_stringIcSt11char_traitsIcESaIcEEESt14default_deleteIS5_EED1Ev	 #
.L93:
 # E:/Projects/Simulation_Projects/cva_cpp/build/_deps/googletest-src/googletest/include/gtest/gtest-assertion-result.h:208:     message_->append(a_message.GetString().c_str());
	.loc 17 208 21
	movq	32(%rbp), %rax	 # this, tmp110
	addq	$8, %rax	 #, _3
	movq	%rax, %rcx	 # _3,
	call	_ZNKSt10unique_ptrINSt7__cxx1112basic_stringIcSt11char_traitsIcESaIcEEESt14default_deleteIS5_EEptEv	 #
	movq	%rax, %rbx	 #, _4
 # E:/Projects/Simulation_Projects/cva_cpp/build/_deps/googletest-src/googletest/include/gtest/gtest-assertion-result.h:208:     message_->append(a_message.GetString().c_str());
	.loc 17 208 41 discriminator 1
	leaq	-32(%rbp), %rax	 #, tmp111
	movq	40(%rbp), %rdx	 # a_message, tmp112
	movq	%rax, %rcx	 # tmp111,
	call	_ZNK7testing7Message9GetStringB5cxx11Ev	 #
.LEHE2:
 # E:/Projects/Simulation_Projects/cva_cpp/build/_deps/googletest-src/googletest/include/gtest/gtest-assertion-result.h:208:     message_->append(a_message.GetString().c_str());
	.loc 17 208 21 discriminator 4
	leaq	-32(%rbp), %rax	 #, tmp113
	movq	%rax, %rcx	 # tmp113,
	call	_ZNKSt7__cxx1112basic_stringIcSt11char_traitsIcESaIcEE5c_strEv	 #
 # E:/Projects/Simulation_Projects/cva_cpp/build/_deps/googletest-src/googletest/include/gtest/gtest-assertion-result.h:208:     message_->append(a_message.GetString().c_str());
	.loc 17 208 21 is_stmt 0 discriminator 5
	movq	%rax, %rdx	 # _5,
	movq	%rbx, %rcx	 # _4,
.LEHB3:
	call	_ZNSt7__cxx1112basic_stringIcSt11char_traitsIcESaIcEE6appendEPKc	 #
.LEHE3:
 # E:/Projects/Simulation_Projects/cva_cpp/build/_deps/googletest-src/googletest/include/gtest/gtest-assertion-result.h:208:     message_->append(a_message.GetString().c_str());
	.loc 17 208 41 is_stmt 1 discriminator 8
	leaq	-32(%rbp), %rax	 #, tmp114
	movq	%rax, %rcx	 # tmp114,
	call	_ZNSt7__cxx1112basic_stringIcSt11char_traitsIcESaIcEED1Ev	 #
 # E:/Projects/Simulation_Projects/cva_cpp/build/_deps/googletest-src/googletest/include/gtest/gtest-assertion-result.h:209:   }
	.loc 17 209 3
	jmp	.L96	 #
.L95:
 # E:/Projects/Simulation_Projects/cva_cpp/build/_deps/googletest-src/googletest/include/gtest/gtest-assertion-result.h:208:     message_->append(a_message.GetString().c_str());
	.loc 17 208 41 discriminator 7
	movq	%rax, %rbx	 #, tmp116
	leaq	-32(%rbp), %rax	 #, tmp115
	movq	%rax, %rcx	 # tmp115,
	call	_ZNSt7__cxx1112basic_stringIcSt11char_traitsIcESaIcEED1Ev	 #
	movq	%rbx, %rax	 # tmp116, D.248470
	movq	%rax, %rcx	 # D.248470,
.LEHB4:
	call	_Unwind_Resume	 #
	nop	
.LEHE4:
.L96:
 # E:/Projects/Simulation_Projects/cva_cpp/build/_deps/googletest-src/googletest/include/gtest/gtest-assertion-result.h:209:   }
	.loc 17 209 3
	addq	$88, %rsp	 #,
	popq	%rbx	 #
	.cfi_restore 3
	popq	%rbp	 #
	.cfi_restore 6
	.cfi_def_cfa 7, -72
	ret	
	.cfi_endproc
.LFE7898:
	.seh_handler	__gxx_personality_seh0, @unwind, @except
	.seh_handlerdata
.LLSDA7898:
	.byte	0xff
	.byte	0xff
	.byte	0x1
	.uleb128 .LLSDACSE7898-.LLSDACSB7898
.LLSDACSB7898:
	.uleb128 .LEHB2-.LFB7898
	.uleb128 .LEHE2-.LEHB2
	.uleb128 0
	.uleb128 0
	.uleb128 .LEHB3-.LFB7898
	.uleb128 .LEHE3-.LEHB3
	.uleb128 .L95-.LFB7898
	.uleb128 0
	.uleb128 .LEHB4-.LFB7898
	.uleb128 .LEHE4-.LEHB4
	.uleb128 0
	.uleb128 0
.LLSDACSE7898:
	.section	.text$_ZN7testing15AssertionResult13AppendMessageERKNS_7MessageE,"x"
	.linkonce discard
	.seh_endproc
	.section	.text$_ZSt3minIyERKT_S2_S2_,"x"
	.linkonce discard
	.globl	_ZSt3minIyERKT_S2_S2_
	.def	_ZSt3minIyERKT_S2_S2_;	.scl	2;	.type	32;	.endef
	.seh_proc	_ZSt3minIyERKT_S2_S2_
_ZSt3minIyERKT_S2_S2_:
.LFB7999:
	.file 20 "D:/msys64/ucrt64/include/c++/15.2.0/bits/stl_algobase.h"
	.loc 20 234 5
	.cfi_startproc
	pushq	%rbp	 #
	.seh_pushreg	%rbp
	.cfi_def_cfa_offset 16
	.cfi_offset 6, -16
	movq	%rsp, %rbp	 #,
	.seh_setframe	%rbp, 0
	.cfi_def_cfa_register 6
	.seh_endprologue
	movq	%rcx, 16(%rbp)	 # __a, __a
	movq	%rdx, 24(%rbp)	 # __b, __b
 # D:/msys64/ucrt64/include/c++/15.2.0/bits/stl_algobase.h:239:       if (__b < __a)
	.loc 20 239 15
	movq	24(%rbp), %rax	 # __b, tmp102
	movq	(%rax), %rdx	 # *__b_5(D), _1
	movq	16(%rbp), %rax	 # __a, tmp103
	movq	(%rax), %rax	 # *__a_6(D), _2
 # D:/msys64/ucrt64/include/c++/15.2.0/bits/stl_algobase.h:239:       if (__b < __a)
	.loc 20 239 7
	cmpq	%rax, %rdx	 # _2, _1
	jnb	.L98	 #,
 # D:/msys64/ucrt64/include/c++/15.2.0/bits/stl_algobase.h:240: 	return __b;
	.loc 20 240 9
	movq	24(%rbp), %rax	 # __b, _3
	jmp	.L99	 #
.L98:
 # D:/msys64/ucrt64/include/c++/15.2.0/bits/stl_algobase.h:241:       return __a;
	.loc 20 241 14
	movq	16(%rbp), %rax	 # __a, _3
.L99:
 # D:/msys64/ucrt64/include/c++/15.2.0/bits/stl_algobase.h:242:     }
	.loc 20 242 5
	popq	%rbp	 #
	.cfi_restore 6
	.cfi_def_cfa 7, 8
	ret	
	.cfi_endproc
.LFE7999:
	.seh_endproc
	.section	.text$_ZN7testing8internal15TestFactoryBaseC2Ev,"x"
	.linkonce discard
	.align 2
	.globl	_ZN7testing8internal15TestFactoryBaseC2Ev
	.def	_ZN7testing8internal15TestFactoryBaseC2Ev;	.scl	2;	.type	32;	.endef
	.seh_proc	_ZN7testing8internal15TestFactoryBaseC2Ev
_ZN7testing8internal15TestFactoryBaseC2Ev:
.LFB8698:
	.file 21 "E:/Projects/Simulation_Projects/cva_cpp/build/_deps/googletest-src/googletest/include/gtest/internal/gtest-internal.h"
	.loc 21 445 3
	.cfi_startproc
	pushq	%rbp	 #
	.seh_pushreg	%rbp
	.cfi_def_cfa_offset 16
	.cfi_offset 6, -16
	movq	%rsp, %rbp	 #,
	.seh_setframe	%rbp, 0
	.cfi_def_cfa_register 6
	.seh_endprologue
	movq	%rcx, 16(%rbp)	 # this, this
.LBB336:
 # E:/Projects/Simulation_Projects/cva_cpp/build/_deps/googletest-src/googletest/include/gtest/internal/gtest-internal.h:445:   TestFactoryBase() {}
	.loc 21 445 21
	leaq	16+_ZTVN7testing8internal15TestFactoryBaseE(%rip), %rdx	 #, _1
	movq	16(%rbp), %rax	 # this, tmp99
	movq	%rdx, (%rax)	 # _1, this_3(D)->_vptr.TestFactoryBase
.LBE336:
 # E:/Projects/Simulation_Projects/cva_cpp/build/_deps/googletest-src/googletest/include/gtest/internal/gtest-internal.h:445:   TestFactoryBase() {}
	.loc 21 445 22
	nop	
	popq	%rbp	 #
	.cfi_restore 6
	.cfi_def_cfa 7, 8
	ret	
	.cfi_endproc
.LFE8698:
	.seh_endproc
	.section	.text$_ZN7testing8internal12CodeLocationC1ERKNSt7__cxx1112basic_stringIcSt11char_traitsIcESaIcEEEi,"x"
	.linkonce discard
	.align 2
	.globl	_ZN7testing8internal12CodeLocationC1ERKNSt7__cxx1112basic_stringIcSt11char_traitsIcESaIcEEEi
	.def	_ZN7testing8internal12CodeLocationC1ERKNSt7__cxx1112basic_stringIcSt11char_traitsIcESaIcEEEi;	.scl	2;	.type	32;	.endef
	.seh_proc	_ZN7testing8internal12CodeLocationC1ERKNSt7__cxx1112basic_stringIcSt11char_traitsIcESaIcEEEi
_ZN7testing8internal12CodeLocationC1ERKNSt7__cxx1112basic_stringIcSt11char_traitsIcESaIcEEEi:
.LFB8703:
	.loc 21 478 3
	.cfi_startproc
	pushq	%rbp	 #
	.seh_pushreg	%rbp
	.cfi_def_cfa_offset 16
	.cfi_offset 6, -16
	movq	%rsp, %rbp	 #,
	.seh_setframe	%rbp, 0
	.cfi_def_cfa_register 6
	subq	$32, %rsp	 #,
	.seh_stackalloc	32
	.seh_endprologue
	movq	%rcx, 16(%rbp)	 # this, this
	movq	%rdx, 24(%rbp)	 # a_file, a_file
	movl	%r8d, 32(%rbp)	 # a_line, a_line
.LBB337:
 # E:/Projects/Simulation_Projects/cva_cpp/build/_deps/googletest-src/googletest/include/gtest/internal/gtest-internal.h:479:       : file(a_file), line(a_line) {}
	.loc 21 479 9
	movq	16(%rbp), %rax	 # this, _1
	movq	24(%rbp), %rdx	 # a_file, tmp100
	movq	%rax, %rcx	 # _1,
	call	_ZNSt7__cxx1112basic_stringIcSt11char_traitsIcESaIcEEC1ERKS4_	 #
 # E:/Projects/Simulation_Projects/cva_cpp/build/_deps/googletest-src/googletest/include/gtest/internal/gtest-internal.h:479:       : file(a_file), line(a_line) {}
	.loc 21 479 23 discriminator 1
	movq	16(%rbp), %rax	 # this, tmp101
	movl	32(%rbp), %edx	 # a_line, tmp102
	movl	%edx, 32(%rax)	 # tmp102, this_4(D)->line
.LBE337:
 # E:/Projects/Simulation_Projects/cva_cpp/build/_deps/googletest-src/googletest/include/gtest/internal/gtest-internal.h:479:       : file(a_file), line(a_line) {}
	.loc 21 479 37
	nop	
	addq	$32, %rsp	 #,
	popq	%rbp	 #
	.cfi_restore 6
	.cfi_def_cfa 7, 8
	ret	
	.cfi_endproc
.LFE8703:
	.seh_endproc
	.section	.text$_ZN7testing8internal19GetNotDefaultOrNullEPFvvES2_,"x"
	.linkonce discard
	.globl	_ZN7testing8internal19GetNotDefaultOrNullEPFvvES2_
	.def	_ZN7testing8internal19GetNotDefaultOrNullEPFvvES2_;	.scl	2;	.type	32;	.endef
	.seh_proc	_ZN7testing8internal19GetNotDefaultOrNullEPFvvES2_
_ZN7testing8internal19GetNotDefaultOrNullEPFvvES2_:
.LFB8704:
	.loc 21 492 67
	.cfi_startproc
	pushq	%rbp	 #
	.seh_pushreg	%rbp
	.cfi_def_cfa_offset 16
	.cfi_offset 6, -16
	movq	%rsp, %rbp	 #,
	.seh_setframe	%rbp, 0
	.cfi_def_cfa_register 6
	.seh_endprologue
	movq	%rcx, 16(%rbp)	 # a, a
	movq	%rdx, 24(%rbp)	 # def, def
 # E:/Projects/Simulation_Projects/cva_cpp/build/_deps/googletest-src/googletest/include/gtest/internal/gtest-internal.h:493:   return a == def ? nullptr : a;
	.loc 21 493 19
	movq	16(%rbp), %rax	 # a, tmp100
	cmpq	24(%rbp), %rax	 # def, tmp100
	je	.L103	 #,
 # E:/Projects/Simulation_Projects/cva_cpp/build/_deps/googletest-src/googletest/include/gtest/internal/gtest-internal.h:493:   return a == def ? nullptr : a;
	.loc 21 493 31 discriminator 1
	movq	16(%rbp), %rax	 # a, _1
 # E:/Projects/Simulation_Projects/cva_cpp/build/_deps/googletest-src/googletest/include/gtest/internal/gtest-internal.h:493:   return a == def ? nullptr : a;
	.loc 21 493 31 is_stmt 0
	jmp	.L105	 #
.L103:
 # E:/Projects/Simulation_Projects/cva_cpp/build/_deps/googletest-src/googletest/include/gtest/internal/gtest-internal.h:493:   return a == def ? nullptr : a;
	.loc 21 493 31 discriminator 2
	movl	$0, %eax	 #, _1
.L105:
 # E:/Projects/Simulation_Projects/cva_cpp/build/_deps/googletest-src/googletest/include/gtest/internal/gtest-internal.h:494: }
	.loc 21 494 1 is_stmt 1
	popq	%rbp	 #
	.cfi_restore 6
	.cfi_def_cfa 7, 8
	ret	
	.cfi_endproc
.LFE8704:
	.seh_endproc
	.section	.text$_ZN7testing8internal12CodeLocationD1Ev,"x"
	.linkonce discard
	.align 2
	.globl	_ZN7testing8internal12CodeLocationD1Ev
	.def	_ZN7testing8internal12CodeLocationD1Ev;	.scl	2;	.type	32;	.endef
	.seh_proc	_ZN7testing8internal12CodeLocationD1Ev
_ZN7testing8internal12CodeLocationD1Ev:
.LFB8728:
	.loc 21 477 8
	.cfi_startproc
	pushq	%rbp	 #
	.seh_pushreg	%rbp
	.cfi_def_cfa_offset 16
	.cfi_offset 6, -16
	movq	%rsp, %rbp	 #,
	.seh_setframe	%rbp, 0
	.cfi_def_cfa_register 6
	subq	$32, %rsp	 #,
	.seh_stackalloc	32
	.seh_endprologue
	movq	%rcx, 16(%rbp)	 # this, this
.LBB338:
 # E:/Projects/Simulation_Projects/cva_cpp/build/_deps/googletest-src/googletest/include/gtest/internal/gtest-internal.h:477: struct CodeLocation {
	.loc 21 477 8
	movq	16(%rbp), %rax	 # this, _1
	movq	%rax, %rcx	 # _1,
	call	_ZNSt7__cxx1112basic_stringIcSt11char_traitsIcESaIcEED1Ev	 #
.LBE338:
	nop	
	addq	$32, %rsp	 #,
	popq	%rbp	 #
	.cfi_restore 6
	.cfi_def_cfa 7, 8
	ret	
	.cfi_endproc
.LFE8728:
	.seh_endproc
	.section	.text$_ZN7testing8internal7PrintToEdPSo,"x"
	.linkonce discard
	.globl	_ZN7testing8internal7PrintToEdPSo
	.def	_ZN7testing8internal7PrintToEdPSo;	.scl	2;	.type	32;	.endef
	.seh_proc	_ZN7testing8internal7PrintToEdPSo
_ZN7testing8internal7PrintToEdPSo:
.LFB8852:
	.file 22 "E:/Projects/Simulation_Projects/cva_cpp/build/_deps/googletest-src/googletest/include/gtest/gtest-printers.h"
	.loc 22 586 51
	.cfi_startproc
	pushq	%rbp	 #
	.seh_pushreg	%rbp
	.cfi_def_cfa_offset 16
	.cfi_offset 6, -16
	pushq	%rbx	 #
	.seh_pushreg	%rbx
	.cfi_def_cfa_offset 24
	.cfi_offset 3, -24
	subq	$56, %rsp	 #,
	.seh_stackalloc	56
	.cfi_def_cfa_offset 80
	leaq	48(%rsp), %rbp	 #,
	.seh_setframe	%rbp, 48
	.cfi_def_cfa 6, 32
	.seh_endprologue
	movsd	%xmm0, 32(%rbp)	 # d, d
	movq	%rdx, 40(%rbp)	 # os, os
 # E:/Projects/Simulation_Projects/cva_cpp/build/_deps/googletest-src/googletest/include/gtest/gtest-printers.h:587:   auto old_precision = os->precision();
	.loc 22 587 37
	movq	40(%rbp), %rax	 # os, tmp115
	movq	(%rax), %rax	 # os_19(D)->_vptr.basic_ostream, _1
	subq	$24, %rax	 #, _2
	movq	(%rax), %rax	 # MEM[(long long int *)_2], _3
	movq	%rax, %rdx	 # _3, _4
	movq	40(%rbp), %rax	 # os, tmp116
	addq	%rdx, %rax	 # _4, _5
	movq	%rax, %rcx	 # _5,
	call	_ZNKSt8ios_base9precisionEv	 #
	movq	%rax, -8(%rbp)	 # tmp117, old_precision
 # E:/Projects/Simulation_Projects/cva_cpp/build/_deps/googletest-src/googletest/include/gtest/gtest-printers.h:588:   os->precision(AppropriateResolution(d));
	.loc 22 588 16
	movq	40(%rbp), %rax	 # os, tmp118
	movq	(%rax), %rax	 # os_19(D)->_vptr.basic_ostream, _6
	subq	$24, %rax	 #, _7
	movq	(%rax), %rax	 # MEM[(long long int *)_7], _8
	movq	%rax, %rdx	 # _8, _9
	movq	40(%rbp), %rax	 # os, tmp119
	leaq	(%rdx,%rax), %rbx	 #, _10
 # E:/Projects/Simulation_Projects/cva_cpp/build/_deps/googletest-src/googletest/include/gtest/gtest-printers.h:588:   os->precision(AppropriateResolution(d));
	.loc 22 588 38
	movq	32(%rbp), %rax	 # d, tmp120
	movq	%rax, %xmm0	 # tmp120,
	call	_ZN7testing8internal21AppropriateResolutionIdEEiT_	 #
 # E:/Projects/Simulation_Projects/cva_cpp/build/_deps/googletest-src/googletest/include/gtest/gtest-printers.h:588:   os->precision(AppropriateResolution(d));
	.loc 22 588 16 discriminator 1
	cltq
	movq	%rax, %rdx	 # _12,
	movq	%rbx, %rcx	 # _10,
	call	_ZNSt8ios_base9precisionEx	 #
 # E:/Projects/Simulation_Projects/cva_cpp/build/_deps/googletest-src/googletest/include/gtest/gtest-printers.h:589:   *os << d;
	.loc 22 589 10
	movsd	32(%rbp), %xmm0	 # d, tmp121
	movq	40(%rbp), %rax	 # os, tmp122
	movapd	%xmm0, %xmm1	 # tmp121,
	movq	%rax, %rcx	 # tmp122,
	call	_ZNSolsEd	 #
 # E:/Projects/Simulation_Projects/cva_cpp/build/_deps/googletest-src/googletest/include/gtest/gtest-printers.h:590:   os->precision(old_precision);
	.loc 22 590 16
	movq	40(%rbp), %rax	 # os, tmp123
	movq	(%rax), %rax	 # os_19(D)->_vptr.basic_ostream, _13
	subq	$24, %rax	 #, _14
	movq	(%rax), %rax	 # MEM[(long long int *)_14], _15
	movq	%rax, %rdx	 # _15, _16
	movq	40(%rbp), %rax	 # os, tmp124
	leaq	(%rdx,%rax), %rcx	 #, _17
	movq	-8(%rbp), %rax	 # old_precision, tmp125
	movq	%rax, %rdx	 # tmp125,
	call	_ZNSt8ios_base9precisionEx	 #
 # E:/Projects/Simulation_Projects/cva_cpp/build/_deps/googletest-src/googletest/include/gtest/gtest-printers.h:591: }
	.loc 22 591 1
	nop	
	addq	$56, %rsp	 #,
	popq	%rbx	 #
	.cfi_restore 3
	popq	%rbp	 #
	.cfi_restore 6
	.cfi_def_cfa 7, -40
	ret	
	.cfi_endproc
.LFE8852:
	.seh_endproc
	.section .rdata,"dr"
	.align 16
_ZN7testing8internalL19kDeathTestStyleFlagE:
	.ascii "death_test_style\0"
	.align 16
_ZN7testing8internalL17kDeathTestUseForkE:
	.ascii "death_test_use_fork\0"
	.align 16
_ZN7testing8internalL25kInternalRunDeathTestFlagE:
	.ascii "internal_run_death_test\0"
	.align 4
_ZN7testingL19kMaxStackTraceDepthE:
	.long	100
	.section	.text$_ZN7testing4Test14SetUpTestSuiteEv,"x"
	.linkonce discard
	.globl	_ZN7testing4Test14SetUpTestSuiteEv
	.def	_ZN7testing4Test14SetUpTestSuiteEv;	.scl	2;	.type	32;	.endef
	.seh_proc	_ZN7testing4Test14SetUpTestSuiteEv
_ZN7testing4Test14SetUpTestSuiteEv:
.LFB9245:
	.file 23 "E:/Projects/Simulation_Projects/cva_cpp/build/_deps/googletest-src/googletest/include/gtest/gtest.h"
	.loc 23 256 15
	.cfi_startproc
	pushq	%rbp	 #
	.seh_pushreg	%rbp
	.cfi_def_cfa_offset 16
	.cfi_offset 6, -16
	movq	%rsp, %rbp	 #,
	.seh_setframe	%rbp, 0
	.cfi_def_cfa_register 6
	.seh_endprologue
 # E:/Projects/Simulation_Projects/cva_cpp/build/_deps/googletest-src/googletest/include/gtest/gtest.h:256:   static void SetUpTestSuite() {}
	.loc 23 256 33
	nop	
	popq	%rbp	 #
	.cfi_restore 6
	.cfi_def_cfa 7, 8
	ret	
	.cfi_endproc
.LFE9245:
	.seh_endproc
	.section	.text$_ZN7testing4Test17TearDownTestSuiteEv,"x"
	.linkonce discard
	.globl	_ZN7testing4Test17TearDownTestSuiteEv
	.def	_ZN7testing4Test17TearDownTestSuiteEv;	.scl	2;	.type	32;	.endef
	.seh_proc	_ZN7testing4Test17TearDownTestSuiteEv
_ZN7testing4Test17TearDownTestSuiteEv:
.LFB9246:
	.loc 23 264 15
	.cfi_startproc
	pushq	%rbp	 #
	.seh_pushreg	%rbp
	.cfi_def_cfa_offset 16
	.cfi_offset 6, -16
	movq	%rsp, %rbp	 #,
	.seh_setframe	%rbp, 0
	.cfi_def_cfa_register 6
	.seh_endprologue
 # E:/Projects/Simulation_Projects/cva_cpp/build/_deps/googletest-src/googletest/include/gtest/gtest.h:264:   static void TearDownTestSuite() {}
	.loc 23 264 36
	nop	
	popq	%rbp	 #
	.cfi_restore 6
	.cfi_def_cfa 7, 8
	ret	
	.cfi_endproc
.LFE9246:
	.seh_endproc
	.section	.text$_ZN7testing4Test16TearDownTestCaseEv,"x"
	.linkonce discard
	.globl	_ZN7testing4Test16TearDownTestCaseEv
	.def	_ZN7testing4Test16TearDownTestCaseEv;	.scl	2;	.type	32;	.endef
	.seh_proc	_ZN7testing4Test16TearDownTestCaseEv
_ZN7testing4Test16TearDownTestCaseEv:
.LFB9247:
	.loc 23 269 15
	.cfi_startproc
	pushq	%rbp	 #
	.seh_pushreg	%rbp
	.cfi_def_cfa_offset 16
	.cfi_offset 6, -16
	movq	%rsp, %rbp	 #,
	.seh_setframe	%rbp, 0
	.cfi_def_cfa_register 6
	.seh_endprologue
 # E:/Projects/Simulation_Projects/cva_cpp/build/_deps/googletest-src/googletest/include/gtest/gtest.h:269:   static void TearDownTestCase() {}
	.loc 23 269 35
	nop	
	popq	%rbp	 #
	.cfi_restore 6
	.cfi_def_cfa 7, 8
	ret	
	.cfi_endproc
.LFE9247:
	.seh_endproc
	.section	.text$_ZN7testing4Test13SetUpTestCaseEv,"x"
	.linkonce discard
	.globl	_ZN7testing4Test13SetUpTestCaseEv
	.def	_ZN7testing4Test13SetUpTestCaseEv;	.scl	2;	.type	32;	.endef
	.seh_proc	_ZN7testing4Test13SetUpTestCaseEv
_ZN7testing4Test13SetUpTestCaseEv:
.LFB9248:
	.loc 23 270 15
	.cfi_startproc
	pushq	%rbp	 #
	.seh_pushreg	%rbp
	.cfi_def_cfa_offset 16
	.cfi_offset 6, -16
	movq	%rsp, %rbp	 #,
	.seh_setframe	%rbp, 0
	.cfi_def_cfa_register 6
	.seh_endprologue
 # E:/Projects/Simulation_Projects/cva_cpp/build/_deps/googletest-src/googletest/include/gtest/gtest.h:270:   static void SetUpTestCase() {}
	.loc 23 270 32
	nop	
	popq	%rbp	 #
	.cfi_restore 6
	.cfi_def_cfa 7, 8
	ret	
	.cfi_endproc
.LFE9248:
	.seh_endproc
	.section	.text$_ZN7testing4Test5SetupEv,"x"
	.linkonce discard
	.align 2
	.globl	_ZN7testing4Test5SetupEv
	.def	_ZN7testing4Test5SetupEv;	.scl	2;	.type	32;	.endef
	.seh_proc	_ZN7testing4Test5SetupEv
_ZN7testing4Test5SetupEv:
.LFB9252:
	.loc 23 357 42
	.cfi_startproc
	pushq	%rbp	 #
	.seh_pushreg	%rbp
	.cfi_def_cfa_offset 16
	.cfi_offset 6, -16
	movq	%rsp, %rbp	 #,
	.seh_setframe	%rbp, 0
	.cfi_def_cfa_register 6
	.seh_endprologue
	movq	%rcx, 16(%rbp)	 # this, this
 # E:/Projects/Simulation_Projects/cva_cpp/build/_deps/googletest-src/googletest/include/gtest/gtest.h:357:   virtual Setup_should_be_spelled_SetUp* Setup() { return nullptr; }
	.loc 23 357 59
	movl	$0, %eax	 #, _1
 # E:/Projects/Simulation_Projects/cva_cpp/build/_deps/googletest-src/googletest/include/gtest/gtest.h:357:   virtual Setup_should_be_spelled_SetUp* Setup() { return nullptr; }
	.loc 23 357 68
	popq	%rbp	 #
	.cfi_restore 6
	.cfi_def_cfa 7, 8
	ret	
	.cfi_endproc
.LFE9252:
	.seh_endproc
	.section	.text$_ZN7testing15AssertionResultD1Ev,"x"
	.linkonce discard
	.align 2
	.globl	_ZN7testing15AssertionResultD1Ev
	.def	_ZN7testing15AssertionResultD1Ev;	.scl	2;	.type	32;	.endef
	.seh_proc	_ZN7testing15AssertionResultD1Ev
_ZN7testing15AssertionResultD1Ev:
.LFB9352:
	.loc 17 133 46
	.cfi_startproc
	pushq	%rbp	 #
	.seh_pushreg	%rbp
	.cfi_def_cfa_offset 16
	.cfi_offset 6, -16
	movq	%rsp, %rbp	 #,
	.seh_setframe	%rbp, 0
	.cfi_def_cfa_register 6
	subq	$32, %rsp	 #,
	.seh_stackalloc	32
	.seh_endprologue
	movq	%rcx, 16(%rbp)	 # this, this
.LBB339:
 # E:/Projects/Simulation_Projects/cva_cpp/build/_deps/googletest-src/googletest/include/gtest/gtest-assertion-result.h:133: class GTEST_API_ AssertionResult {
	.loc 17 133 46
	movq	16(%rbp), %rax	 # this, tmp99
	addq	$8, %rax	 #, _1
	movq	%rax, %rcx	 # _1,
	call	_ZNSt10unique_ptrINSt7__cxx1112basic_stringIcSt11char_traitsIcESaIcEEESt14default_deleteIS5_EED1Ev	 #
.LBE339:
	nop	
	addq	$32, %rsp	 #,
	popq	%rbp	 #
	.cfi_restore 6
	.cfi_def_cfa 7, 8
	ret	
	.cfi_endproc
.LFE9352:
	.seh_endproc
	.section	.text$_ZN7testing8internal15TestFactoryBaseD2Ev,"x"
	.linkonce discard
	.align 2
	.globl	_ZN7testing8internal15TestFactoryBaseD2Ev
	.def	_ZN7testing8internal15TestFactoryBaseD2Ev;	.scl	2;	.type	32;	.endef
	.seh_proc	_ZN7testing8internal15TestFactoryBaseD2Ev
_ZN7testing8internal15TestFactoryBaseD2Ev:
.LFB9380:
	.loc 21 438 11
	.cfi_startproc
	pushq	%rbp	 #
	.seh_pushreg	%rbp
	.cfi_def_cfa_offset 16
	.cfi_offset 6, -16
	movq	%rsp, %rbp	 #,
	.seh_setframe	%rbp, 0
	.cfi_def_cfa_register 6
	.seh_endprologue
	movq	%rcx, 16(%rbp)	 # this, this
.LBB340:
 # E:/Projects/Simulation_Projects/cva_cpp/build/_deps/googletest-src/googletest/include/gtest/internal/gtest-internal.h:438:   virtual ~TestFactoryBase() = default;
	.loc 21 438 11
	leaq	16+_ZTVN7testing8internal15TestFactoryBaseE(%rip), %rdx	 #, _1
	movq	16(%rbp), %rax	 # this, tmp99
	movq	%rdx, (%rax)	 # _1, this_3(D)->_vptr.TestFactoryBase
.LBE340:
	nop	
	popq	%rbp	 #
	.cfi_restore 6
	.cfi_def_cfa 7, 8
	ret	
	.cfi_endproc
.LFE9380:
	.seh_endproc
	.section	.text$_ZN7testing8internal15TestFactoryImplI24MatrixTest_Addition_TestEC1Ev,"x"
	.linkonce discard
	.align 2
	.globl	_ZN7testing8internal15TestFactoryImplI24MatrixTest_Addition_TestEC1Ev
	.def	_ZN7testing8internal15TestFactoryImplI24MatrixTest_Addition_TestEC1Ev;	.scl	2;	.type	32;	.endef
	.seh_proc	_ZN7testing8internal15TestFactoryImplI24MatrixTest_Addition_TestEC1Ev
_ZN7testing8internal15TestFactoryImplI24MatrixTest_Addition_TestEC1Ev:
.LFB9384:
	.loc 21 455 7
	.cfi_startproc
	pushq	%rbp	 #
	.seh_pushreg	%rbp
	.cfi_def_cfa_offset 16
	.cfi_offset 6, -16
	movq	%rsp, %rbp	 #,
	.seh_setframe	%rbp, 0
	.cfi_def_cfa_register 6
	subq	$32, %rsp	 #,
	.seh_stackalloc	32
	.seh_endprologue
	movq	%rcx, 16(%rbp)	 # this, this
.LBB341:
 # E:/Projects/Simulation_Projects/cva_cpp/build/_deps/googletest-src/googletest/include/gtest/internal/gtest-internal.h:455: class TestFactoryImpl : public TestFactoryBase {
	.loc 21 455 7
	movq	16(%rbp), %rax	 # this, _1
	movq	%rax, %rcx	 # _1,
	call	_ZN7testing8internal15TestFactoryBaseC2Ev	 #
 # E:/Projects/Simulation_Projects/cva_cpp/build/_deps/googletest-src/googletest/include/gtest/internal/gtest-internal.h:455: class TestFactoryImpl : public TestFactoryBase {
	.loc 21 455 7 is_stmt 0 discriminator 1
	leaq	16+_ZTVN7testing8internal15TestFactoryImplI24MatrixTest_Addition_TestEE(%rip), %rdx	 #, _2
	movq	16(%rbp), %rax	 # this, tmp101
	movq	%rdx, (%rax)	 # _2, this_4(D)->D.199919._vptr.TestFactoryBase
.LBE341:
 # E:/Projects/Simulation_Projects/cva_cpp/build/_deps/googletest-src/googletest/include/gtest/internal/gtest-internal.h:455: class TestFactoryImpl : public TestFactoryBase {
	.loc 21 455 7
	nop	
	addq	$32, %rsp	 #,
	popq	%rbp	 #
	.cfi_restore 6
	.cfi_def_cfa 7, 8
	ret	
	.cfi_endproc
.LFE9384:
	.seh_endproc
	.globl	_ZN24MatrixTest_Addition_Test10test_info_E
	.bss
	.align 8
_ZN24MatrixTest_Addition_Test10test_info_E:
	.space 8
	.section	.text$_ZN3cva4math6MatrixD1Ev,"x"
	.linkonce discard
	.align 2
	.globl	_ZN3cva4math6MatrixD1Ev
	.def	_ZN3cva4math6MatrixD1Ev;	.scl	2;	.type	32;	.endef
	.seh_proc	_ZN3cva4math6MatrixD1Ev
_ZN3cva4math6MatrixD1Ev:
.LFB9388:
	.loc 14 13 11 is_stmt 1
	.cfi_startproc
	pushq	%rbp	 #
	.seh_pushreg	%rbp
	.cfi_def_cfa_offset 16
	.cfi_offset 6, -16
	movq	%rsp, %rbp	 #,
	.seh_setframe	%rbp, 0
	.cfi_def_cfa_register 6
	subq	$32, %rsp	 #,
	.seh_stackalloc	32
	.seh_endprologue
	movq	%rcx, 16(%rbp)	 # this, this
.LBB342:
 # E:/Projects/Simulation_Projects/cva_cpp/includes_hpp/math/matrix.hpp:13:     class Matrix {
	.loc 14 13 11
	movq	16(%rbp), %rax	 # this, tmp99
	addq	$16, %rax	 #, _1
	movq	%rax, %rcx	 # _1,
	call	_ZNSt6vectorIdSaIdEED1Ev	 #
.LBE342:
	nop	
	addq	$32, %rsp	 #,
	popq	%rbp	 #
	.cfi_restore 6
	.cfi_def_cfa 7, 8
	ret	
	.cfi_endproc
.LFE9388:
	.seh_endproc
	.section .rdata,"dr"
.LC11:
	.ascii "2.0\0"
.LC12:
	.ascii "m(0, 0)\0"
	.align 8
.LC13:
	.ascii "E:\\Projects\\Simulation_Projects\\cva_cpp\\tests\\gtest_basic.cpp\0"
.LC14:
	.ascii "3.0\0"
.LC15:
	.ascii "m(0, 1)\0"
.LC16:
	.ascii "4.0\0"
.LC17:
	.ascii "m(1, 0)\0"
.LC18:
	.ascii "5.0\0"
.LC19:
	.ascii "m(1, 1)\0"
	.text
	.align 2
	.globl	_ZN24MatrixTest_Addition_Test8TestBodyEv
	.def	_ZN24MatrixTest_Addition_Test8TestBodyEv;	.scl	2;	.type	32;	.endef
	.seh_proc	_ZN24MatrixTest_Addition_Test8TestBodyEv
_ZN24MatrixTest_Addition_Test8TestBodyEv:
.LFB9385:
	.file 24 "E:/Projects/Simulation_Projects/cva_cpp/tests/gtest_basic.cpp"
	.loc 24 14 27
	.cfi_startproc
	pushq	%rbp	 #
	.seh_pushreg	%rbp
	.cfi_def_cfa_offset 16
	.cfi_offset 6, -16
	pushq	%rbx	 #
	.seh_pushreg	%rbx
	.cfi_def_cfa_offset 24
	.cfi_offset 3, -24
	subq	$280, %rsp	 #,
	.seh_stackalloc	280
	.cfi_def_cfa_offset 304
	leaq	128(%rsp), %rbp	 #,
	.seh_setframe	%rbp, 128
	.cfi_def_cfa 6, 176
	.seh_endprologue
	movq	%rcx, 176(%rbp)	 # this, this
 # E:\Projects\Simulation_Projects\cva_cpp\tests\gtest_basic.cpp:15:     cva::math::Matrix m(2, 2);
	.loc 24 15 29
	leaq	32(%rbp), %rax	 #, tmp119
	pxor	%xmm3, %xmm3	 #
	movl	$2, %r8d	 #,
	movl	$2, %edx	 #,
	movq	%rax, %rcx	 # tmp119,
.LEHB5:
	call	_ZN3cva4math6MatrixC1Eyyd	 #
.LEHE5:
 # E:\Projects\Simulation_Projects\cva_cpp\tests\gtest_basic.cpp:16:     m(0, 0) = 1.0; m(0, 1) = 2.0;
	.loc 24 16 6
	leaq	32(%rbp), %rax	 #, tmp120
	movl	$0, %r8d	 #,
	movl	$0, %edx	 #,
	movq	%rax, %rcx	 # tmp120,
	call	_ZN3cva4math6MatrixclEyy	 #
 # E:\Projects\Simulation_Projects\cva_cpp\tests\gtest_basic.cpp:16:     m(0, 0) = 1.0; m(0, 1) = 2.0;
	.loc 24 16 13 discriminator 1
	movsd	.LC7(%rip), %xmm0	 #, tmp121
	movsd	%xmm0, (%rax)	 # tmp121, *_1
 # E:\Projects\Simulation_Projects\cva_cpp\tests\gtest_basic.cpp:16:     m(0, 0) = 1.0; m(0, 1) = 2.0;
	.loc 24 16 21 discriminator 1
	leaq	32(%rbp), %rax	 #, tmp122
	movl	$1, %r8d	 #,
	movl	$0, %edx	 #,
	movq	%rax, %rcx	 # tmp122,
	call	_ZN3cva4math6MatrixclEyy	 #
 # E:\Projects\Simulation_Projects\cva_cpp\tests\gtest_basic.cpp:16:     m(0, 0) = 1.0; m(0, 1) = 2.0;
	.loc 24 16 28 discriminator 2
	movsd	.LC8(%rip), %xmm0	 #, tmp123
	movsd	%xmm0, (%rax)	 # tmp123, *_2
 # E:\Projects\Simulation_Projects\cva_cpp\tests\gtest_basic.cpp:17:     m(1, 0) = 3.0; m(1, 1) = 4.0;
	.loc 24 17 6
	leaq	32(%rbp), %rax	 #, tmp124
	movl	$0, %r8d	 #,
	movl	$1, %edx	 #,
	movq	%rax, %rcx	 # tmp124,
	call	_ZN3cva4math6MatrixclEyy	 #
 # E:\Projects\Simulation_Projects\cva_cpp\tests\gtest_basic.cpp:17:     m(1, 0) = 3.0; m(1, 1) = 4.0;
	.loc 24 17 13 discriminator 1
	movsd	.LC9(%rip), %xmm0	 #, tmp125
	movsd	%xmm0, (%rax)	 # tmp125, *_3
 # E:\Projects\Simulation_Projects\cva_cpp\tests\gtest_basic.cpp:17:     m(1, 0) = 3.0; m(1, 1) = 4.0;
	.loc 24 17 21 discriminator 1
	leaq	32(%rbp), %rax	 #, tmp126
	movl	$1, %r8d	 #,
	movl	$1, %edx	 #,
	movq	%rax, %rcx	 # tmp126,
	call	_ZN3cva4math6MatrixclEyy	 #
 # E:\Projects\Simulation_Projects\cva_cpp\tests\gtest_basic.cpp:17:     m(1, 0) = 3.0; m(1, 1) = 4.0;
	.loc 24 17 28 discriminator 2
	movsd	.LC10(%rip), %xmm0	 #, tmp127
	movsd	%xmm0, (%rax)	 # tmp127, *_4
 # E:\Projects\Simulation_Projects\cva_cpp\tests\gtest_basic.cpp:19:     cva::math::Matrix m2(2, 2, 1.0);
	.loc 24 19 35
	movsd	.LC7(%rip), %xmm0	 #, tmp128
	leaq	-16(%rbp), %rax	 #, tmp129
	movapd	%xmm0, %xmm3	 # tmp128,
	movl	$2, %r8d	 #,
	movl	$2, %edx	 #,
	movq	%rax, %rcx	 # tmp129,
.LEHB6:
	call	_ZN3cva4math6MatrixC1Eyyd	 #
.LEHE6:
 # E:\Projects\Simulation_Projects\cva_cpp\tests\gtest_basic.cpp:20:     m += m2;
	.loc 24 20 10
	leaq	-16(%rbp), %rdx	 #, tmp130
	leaq	32(%rbp), %rax	 #, tmp131
	movq	%rax, %rcx	 # tmp131,
.LEHB7:
	call	_ZN3cva4math6MatrixpLERKS1_	 #
.LBB343:
.LBB344:
.LBB345:
 # E:\Projects\Simulation_Projects\cva_cpp\tests\gtest_basic.cpp:22:     EXPECT_DOUBLE_EQ(m(0, 0), 2.0);
	.loc 24 22 5 discriminator 1
	leaq	32(%rbp), %rax	 #, tmp132
	movl	$0, %r8d	 #,
	movl	$0, %edx	 #,
	movq	%rax, %rcx	 # tmp132,
	call	_ZN3cva4math6MatrixclEyy	 #
 # E:\Projects\Simulation_Projects\cva_cpp\tests\gtest_basic.cpp:22:     EXPECT_DOUBLE_EQ(m(0, 0), 2.0);
	.loc 24 22 5 discriminator 2
	movsd	(%rax), %xmm1	 # *_5, _6
	leaq	-32(%rbp), %rax	 #, tmp133
	leaq	.LC11(%rip), %rcx	 #, tmp134
	leaq	.LC12(%rip), %rdx	 #, tmp135
	movsd	.LC8(%rip), %xmm0	 #, tmp136
	movsd	%xmm0, 32(%rsp)	 # tmp136,
	movapd	%xmm1, %xmm3	 # _6,
	movq	%rcx, %r8	 # tmp134,
	movq	%rax, %rcx	 # tmp133,
	call	_ZN7testing8internal24CmpHelperFloatingPointEQIdEENS_15AssertionResultEPKcS4_T_S5_	 #
.LEHE7:
 # E:\Projects\Simulation_Projects\cva_cpp\tests\gtest_basic.cpp:22:     EXPECT_DOUBLE_EQ(m(0, 0), 2.0);
	.loc 24 22 6 discriminator 4
	leaq	-32(%rbp), %rax	 #, tmp137
	movq	%rax, %rcx	 # tmp137,
	call	_ZNK7testing15AssertionResultcvbEv	 #
 # E:\Projects\Simulation_Projects\cva_cpp\tests\gtest_basic.cpp:22:     EXPECT_DOUBLE_EQ(m(0, 0), 2.0);
	.loc 24 22 32 discriminator 5
	testb	%al, %al	 # retval.0_51
	jne	.L119	 #,
 # E:\Projects\Simulation_Projects\cva_cpp\tests\gtest_basic.cpp:22:     EXPECT_DOUBLE_EQ(m(0, 0), 2.0);
	.loc 24 22 217 discriminator 6
	leaq	80(%rbp), %rax	 #, tmp138
	movq	%rax, %rcx	 # tmp138,
.LEHB8:
	call	_ZN7testing7MessageC1Ev	 #
.LEHE8:
 # E:\Projects\Simulation_Projects\cva_cpp\tests\gtest_basic.cpp:22:     EXPECT_DOUBLE_EQ(m(0, 0), 2.0);
	.loc 24 22 194 discriminator 9
	leaq	-32(%rbp), %rax	 #, tmp139
	movq	%rax, %rcx	 # tmp139,
	call	_ZNK7testing15AssertionResult15failure_messageEv	 #
	movq	%rax, %rdx	 #, _7
 # E:\Projects\Simulation_Projects\cva_cpp\tests\gtest_basic.cpp:22:     EXPECT_DOUBLE_EQ(m(0, 0), 2.0);
	.loc 24 22 194 is_stmt 0 discriminator 10
	leaq	.LC13(%rip), %rcx	 #, tmp140
	leaq	88(%rbp), %rax	 #, tmp141
	movq	%rdx, 32(%rsp)	 # _7,
	movl	$22, %r9d	 #,
	movq	%rcx, %r8	 # tmp140,
	movl	$1, %edx	 #,
	movq	%rax, %rcx	 # tmp141,
.LEHB9:
	call	_ZN7testing8internal12AssertHelperC1ENS_14TestPartResult4TypeEPKciS5_	 #
.LEHE9:
 # E:\Projects\Simulation_Projects\cva_cpp\tests\gtest_basic.cpp:22:     EXPECT_DOUBLE_EQ(m(0, 0), 2.0);
	.loc 24 22 196 is_stmt 1 discriminator 13
	leaq	80(%rbp), %rdx	 #, tmp142
	leaq	88(%rbp), %rax	 #, tmp143
	movq	%rax, %rcx	 # tmp143,
.LEHB10:
	call	_ZNK7testing8internal12AssertHelperaSERKNS_7MessageE	 #
.LEHE10:
 # E:\Projects\Simulation_Projects\cva_cpp\tests\gtest_basic.cpp:22:     EXPECT_DOUBLE_EQ(m(0, 0), 2.0);
	.loc 24 22 36 discriminator 16
	leaq	88(%rbp), %rax	 #, tmp144
	movq	%rax, %rcx	 # tmp144,
	call	_ZN7testing8internal12AssertHelperD1Ev	 #
 # E:\Projects\Simulation_Projects\cva_cpp\tests\gtest_basic.cpp:22:     EXPECT_DOUBLE_EQ(m(0, 0), 2.0);
	.loc 24 22 209 discriminator 17
	leaq	80(%rbp), %rax	 #, tmp145
	movq	%rax, %rcx	 # tmp145,
	call	_ZN7testing7MessageD1Ev	 #
.L119:
 # E:\Projects\Simulation_Projects\cva_cpp\tests\gtest_basic.cpp:22:     EXPECT_DOUBLE_EQ(m(0, 0), 2.0);
	.loc 24 22 34 discriminator 19
	leaq	-32(%rbp), %rax	 #, tmp146
	movq	%rax, %rcx	 # tmp146,
	call	_ZN7testing15AssertionResultD1Ev	 #
.LBE345:
.LBE344:
.LBE343:
.LBB348:
.LBB349:
.LBB350:
 # E:\Projects\Simulation_Projects\cva_cpp\tests\gtest_basic.cpp:23:     EXPECT_DOUBLE_EQ(m(0, 1), 3.0);
	.loc 24 23 5 discriminator 1
	leaq	32(%rbp), %rax	 #, tmp147
	movl	$1, %r8d	 #,
	movl	$0, %edx	 #,
	movq	%rax, %rcx	 # tmp147,
	call	_ZN3cva4math6MatrixclEyy	 #
 # E:\Projects\Simulation_Projects\cva_cpp\tests\gtest_basic.cpp:23:     EXPECT_DOUBLE_EQ(m(0, 1), 3.0);
	.loc 24 23 5 discriminator 2
	movsd	(%rax), %xmm1	 # *_8, _9
	leaq	-48(%rbp), %rax	 #, tmp148
	leaq	.LC14(%rip), %rcx	 #, tmp149
	leaq	.LC15(%rip), %rdx	 #, tmp150
	movsd	.LC9(%rip), %xmm0	 #, tmp151
	movsd	%xmm0, 32(%rsp)	 # tmp151,
	movapd	%xmm1, %xmm3	 # _9,
	movq	%rcx, %r8	 # tmp149,
	movq	%rax, %rcx	 # tmp148,
.LEHB11:
	call	_ZN7testing8internal24CmpHelperFloatingPointEQIdEENS_15AssertionResultEPKcS4_T_S5_	 #
.LEHE11:
 # E:\Projects\Simulation_Projects\cva_cpp\tests\gtest_basic.cpp:23:     EXPECT_DOUBLE_EQ(m(0, 1), 3.0);
	.loc 24 23 6 discriminator 4
	leaq	-48(%rbp), %rax	 #, tmp152
	movq	%rax, %rcx	 # tmp152,
	call	_ZNK7testing15AssertionResultcvbEv	 #
 # E:\Projects\Simulation_Projects\cva_cpp\tests\gtest_basic.cpp:23:     EXPECT_DOUBLE_EQ(m(0, 1), 3.0);
	.loc 24 23 32 discriminator 5
	testb	%al, %al	 # retval.1_70
	jne	.L120	 #,
 # E:\Projects\Simulation_Projects\cva_cpp\tests\gtest_basic.cpp:23:     EXPECT_DOUBLE_EQ(m(0, 1), 3.0);
	.loc 24 23 217 discriminator 6
	leaq	96(%rbp), %rax	 #, tmp153
	movq	%rax, %rcx	 # tmp153,
.LEHB12:
	call	_ZN7testing7MessageC1Ev	 #
.LEHE12:
 # E:\Projects\Simulation_Projects\cva_cpp\tests\gtest_basic.cpp:23:     EXPECT_DOUBLE_EQ(m(0, 1), 3.0);
	.loc 24 23 194 discriminator 9
	leaq	-48(%rbp), %rax	 #, tmp154
	movq	%rax, %rcx	 # tmp154,
	call	_ZNK7testing15AssertionResult15failure_messageEv	 #
	movq	%rax, %rdx	 #, _10
 # E:\Projects\Simulation_Projects\cva_cpp\tests\gtest_basic.cpp:23:     EXPECT_DOUBLE_EQ(m(0, 1), 3.0);
	.loc 24 23 194 is_stmt 0 discriminator 10
	leaq	.LC13(%rip), %rcx	 #, tmp155
	leaq	104(%rbp), %rax	 #, tmp156
	movq	%rdx, 32(%rsp)	 # _10,
	movl	$23, %r9d	 #,
	movq	%rcx, %r8	 # tmp155,
	movl	$1, %edx	 #,
	movq	%rax, %rcx	 # tmp156,
.LEHB13:
	call	_ZN7testing8internal12AssertHelperC1ENS_14TestPartResult4TypeEPKciS5_	 #
.LEHE13:
 # E:\Projects\Simulation_Projects\cva_cpp\tests\gtest_basic.cpp:23:     EXPECT_DOUBLE_EQ(m(0, 1), 3.0);
	.loc 24 23 196 is_stmt 1 discriminator 13
	leaq	96(%rbp), %rdx	 #, tmp157
	leaq	104(%rbp), %rax	 #, tmp158
	movq	%rax, %rcx	 # tmp158,
.LEHB14:
	call	_ZNK7testing8internal12AssertHelperaSERKNS_7MessageE	 #
.LEHE14:
 # E:\Projects\Simulation_Projects\cva_cpp\tests\gtest_basic.cpp:23:     EXPECT_DOUBLE_EQ(m(0, 1), 3.0);
	.loc 24 23 36 discriminator 16
	leaq	104(%rbp), %rax	 #, tmp159
	movq	%rax, %rcx	 # tmp159,
	call	_ZN7testing8internal12AssertHelperD1Ev	 #
 # E:\Projects\Simulation_Projects\cva_cpp\tests\gtest_basic.cpp:23:     EXPECT_DOUBLE_EQ(m(0, 1), 3.0);
	.loc 24 23 209 discriminator 17
	leaq	96(%rbp), %rax	 #, tmp160
	movq	%rax, %rcx	 # tmp160,
	call	_ZN7testing7MessageD1Ev	 #
.L120:
 # E:\Projects\Simulation_Projects\cva_cpp\tests\gtest_basic.cpp:23:     EXPECT_DOUBLE_EQ(m(0, 1), 3.0);
	.loc 24 23 34 discriminator 19
	leaq	-48(%rbp), %rax	 #, tmp161
	movq	%rax, %rcx	 # tmp161,
	call	_ZN7testing15AssertionResultD1Ev	 #
.LBE350:
.LBE349:
.LBE348:
.LBB353:
.LBB354:
.LBB355:
 # E:\Projects\Simulation_Projects\cva_cpp\tests\gtest_basic.cpp:24:     EXPECT_DOUBLE_EQ(m(1, 0), 4.0);
	.loc 24 24 5 discriminator 1
	leaq	32(%rbp), %rax	 #, tmp162
	movl	$0, %r8d	 #,
	movl	$1, %edx	 #,
	movq	%rax, %rcx	 # tmp162,
	call	_ZN3cva4math6MatrixclEyy	 #
 # E:\Projects\Simulation_Projects\cva_cpp\tests\gtest_basic.cpp:24:     EXPECT_DOUBLE_EQ(m(1, 0), 4.0);
	.loc 24 24 5 discriminator 2
	movsd	(%rax), %xmm1	 # *_11, _12
	leaq	-64(%rbp), %rax	 #, tmp163
	leaq	.LC16(%rip), %rcx	 #, tmp164
	leaq	.LC17(%rip), %rdx	 #, tmp165
	movsd	.LC10(%rip), %xmm0	 #, tmp166
	movsd	%xmm0, 32(%rsp)	 # tmp166,
	movapd	%xmm1, %xmm3	 # _12,
	movq	%rcx, %r8	 # tmp164,
	movq	%rax, %rcx	 # tmp163,
.LEHB15:
	call	_ZN7testing8internal24CmpHelperFloatingPointEQIdEENS_15AssertionResultEPKcS4_T_S5_	 #
.LEHE15:
 # E:\Projects\Simulation_Projects\cva_cpp\tests\gtest_basic.cpp:24:     EXPECT_DOUBLE_EQ(m(1, 0), 4.0);
	.loc 24 24 6 discriminator 4
	leaq	-64(%rbp), %rax	 #, tmp167
	movq	%rax, %rcx	 # tmp167,
	call	_ZNK7testing15AssertionResultcvbEv	 #
 # E:\Projects\Simulation_Projects\cva_cpp\tests\gtest_basic.cpp:24:     EXPECT_DOUBLE_EQ(m(1, 0), 4.0);
	.loc 24 24 32 discriminator 5
	testb	%al, %al	 # retval.2_89
	jne	.L121	 #,
 # E:\Projects\Simulation_Projects\cva_cpp\tests\gtest_basic.cpp:24:     EXPECT_DOUBLE_EQ(m(1, 0), 4.0);
	.loc 24 24 217 discriminator 6
	leaq	112(%rbp), %rax	 #, tmp168
	movq	%rax, %rcx	 # tmp168,
.LEHB16:
	call	_ZN7testing7MessageC1Ev	 #
.LEHE16:
 # E:\Projects\Simulation_Projects\cva_cpp\tests\gtest_basic.cpp:24:     EXPECT_DOUBLE_EQ(m(1, 0), 4.0);
	.loc 24 24 194 discriminator 9
	leaq	-64(%rbp), %rax	 #, tmp169
	movq	%rax, %rcx	 # tmp169,
	call	_ZNK7testing15AssertionResult15failure_messageEv	 #
	movq	%rax, %rdx	 #, _13
 # E:\Projects\Simulation_Projects\cva_cpp\tests\gtest_basic.cpp:24:     EXPECT_DOUBLE_EQ(m(1, 0), 4.0);
	.loc 24 24 194 is_stmt 0 discriminator 10
	leaq	.LC13(%rip), %rcx	 #, tmp170
	leaq	120(%rbp), %rax	 #, tmp171
	movq	%rdx, 32(%rsp)	 # _13,
	movl	$24, %r9d	 #,
	movq	%rcx, %r8	 # tmp170,
	movl	$1, %edx	 #,
	movq	%rax, %rcx	 # tmp171,
.LEHB17:
	call	_ZN7testing8internal12AssertHelperC1ENS_14TestPartResult4TypeEPKciS5_	 #
.LEHE17:
 # E:\Projects\Simulation_Projects\cva_cpp\tests\gtest_basic.cpp:24:     EXPECT_DOUBLE_EQ(m(1, 0), 4.0);
	.loc 24 24 196 is_stmt 1 discriminator 13
	leaq	112(%rbp), %rdx	 #, tmp172
	leaq	120(%rbp), %rax	 #, tmp173
	movq	%rax, %rcx	 # tmp173,
.LEHB18:
	call	_ZNK7testing8internal12AssertHelperaSERKNS_7MessageE	 #
.LEHE18:
 # E:\Projects\Simulation_Projects\cva_cpp\tests\gtest_basic.cpp:24:     EXPECT_DOUBLE_EQ(m(1, 0), 4.0);
	.loc 24 24 36 discriminator 16
	leaq	120(%rbp), %rax	 #, tmp174
	movq	%rax, %rcx	 # tmp174,
	call	_ZN7testing8internal12AssertHelperD1Ev	 #
 # E:\Projects\Simulation_Projects\cva_cpp\tests\gtest_basic.cpp:24:     EXPECT_DOUBLE_EQ(m(1, 0), 4.0);
	.loc 24 24 209 discriminator 17
	leaq	112(%rbp), %rax	 #, tmp175
	movq	%rax, %rcx	 # tmp175,
	call	_ZN7testing7MessageD1Ev	 #
.L121:
 # E:\Projects\Simulation_Projects\cva_cpp\tests\gtest_basic.cpp:24:     EXPECT_DOUBLE_EQ(m(1, 0), 4.0);
	.loc 24 24 34 discriminator 19
	leaq	-64(%rbp), %rax	 #, tmp176
	movq	%rax, %rcx	 # tmp176,
	call	_ZN7testing15AssertionResultD1Ev	 #
.LBE355:
.LBE354:
.LBE353:
.LBB358:
.LBB359:
.LBB360:
 # E:\Projects\Simulation_Projects\cva_cpp\tests\gtest_basic.cpp:25:     EXPECT_DOUBLE_EQ(m(1, 1), 5.0);
	.loc 24 25 5 discriminator 1
	leaq	32(%rbp), %rax	 #, tmp177
	movl	$1, %r8d	 #,
	movl	$1, %edx	 #,
	movq	%rax, %rcx	 # tmp177,
	call	_ZN3cva4math6MatrixclEyy	 #
 # E:\Projects\Simulation_Projects\cva_cpp\tests\gtest_basic.cpp:25:     EXPECT_DOUBLE_EQ(m(1, 1), 5.0);
	.loc 24 25 5 discriminator 2
	movsd	(%rax), %xmm1	 # *_14, _15
	leaq	-80(%rbp), %rax	 #, tmp178
	leaq	.LC18(%rip), %rcx	 #, tmp179
	leaq	.LC19(%rip), %rdx	 #, tmp180
	movsd	.LC20(%rip), %xmm0	 #, tmp181
	movsd	%xmm0, 32(%rsp)	 # tmp181,
	movapd	%xmm1, %xmm3	 # _15,
	movq	%rcx, %r8	 # tmp179,
	movq	%rax, %rcx	 # tmp178,
.LEHB19:
	call	_ZN7testing8internal24CmpHelperFloatingPointEQIdEENS_15AssertionResultEPKcS4_T_S5_	 #
.LEHE19:
 # E:\Projects\Simulation_Projects\cva_cpp\tests\gtest_basic.cpp:25:     EXPECT_DOUBLE_EQ(m(1, 1), 5.0);
	.loc 24 25 6 discriminator 4
	leaq	-80(%rbp), %rax	 #, tmp182
	movq	%rax, %rcx	 # tmp182,
	call	_ZNK7testing15AssertionResultcvbEv	 #
 # E:\Projects\Simulation_Projects\cva_cpp\tests\gtest_basic.cpp:25:     EXPECT_DOUBLE_EQ(m(1, 1), 5.0);
	.loc 24 25 32 discriminator 5
	testb	%al, %al	 # retval.3_108
	jne	.L122	 #,
 # E:\Projects\Simulation_Projects\cva_cpp\tests\gtest_basic.cpp:25:     EXPECT_DOUBLE_EQ(m(1, 1), 5.0);
	.loc 24 25 217 discriminator 6
	leaq	128(%rbp), %rax	 #, tmp183
	movq	%rax, %rcx	 # tmp183,
.LEHB20:
	call	_ZN7testing7MessageC1Ev	 #
.LEHE20:
 # E:\Projects\Simulation_Projects\cva_cpp\tests\gtest_basic.cpp:25:     EXPECT_DOUBLE_EQ(m(1, 1), 5.0);
	.loc 24 25 194 discriminator 9
	leaq	-80(%rbp), %rax	 #, tmp184
	movq	%rax, %rcx	 # tmp184,
	call	_ZNK7testing15AssertionResult15failure_messageEv	 #
	movq	%rax, %rdx	 #, _16
 # E:\Projects\Simulation_Projects\cva_cpp\tests\gtest_basic.cpp:25:     EXPECT_DOUBLE_EQ(m(1, 1), 5.0);
	.loc 24 25 194 is_stmt 0 discriminator 10
	leaq	.LC13(%rip), %rcx	 #, tmp185
	leaq	136(%rbp), %rax	 #, tmp186
	movq	%rdx, 32(%rsp)	 # _16,
	movl	$25, %r9d	 #,
	movq	%rcx, %r8	 # tmp185,
	movl	$1, %edx	 #,
	movq	%rax, %rcx	 # tmp186,
.LEHB21:
	call	_ZN7testing8internal12AssertHelperC1ENS_14TestPartResult4TypeEPKciS5_	 #
.LEHE21:
 # E:\Projects\Simulation_Projects\cva_cpp\tests\gtest_basic.cpp:25:     EXPECT_DOUBLE_EQ(m(1, 1), 5.0);
	.loc 24 25 196 is_stmt 1 discriminator 13
	leaq	128(%rbp), %rdx	 #, tmp187
	leaq	136(%rbp), %rax	 #, tmp188
	movq	%rax, %rcx	 # tmp188,
.LEHB22:
	call	_ZNK7testing8internal12AssertHelperaSERKNS_7MessageE	 #
.LEHE22:
 # E:\Projects\Simulation_Projects\cva_cpp\tests\gtest_basic.cpp:25:     EXPECT_DOUBLE_EQ(m(1, 1), 5.0);
	.loc 24 25 36 discriminator 16
	leaq	136(%rbp), %rax	 #, tmp189
	movq	%rax, %rcx	 # tmp189,
	call	_ZN7testing8internal12AssertHelperD1Ev	 #
 # E:\Projects\Simulation_Projects\cva_cpp\tests\gtest_basic.cpp:25:     EXPECT_DOUBLE_EQ(m(1, 1), 5.0);
	.loc 24 25 209 discriminator 17
	leaq	128(%rbp), %rax	 #, tmp190
	movq	%rax, %rcx	 # tmp190,
	call	_ZN7testing7MessageD1Ev	 #
.L122:
 # E:\Projects\Simulation_Projects\cva_cpp\tests\gtest_basic.cpp:25:     EXPECT_DOUBLE_EQ(m(1, 1), 5.0);
	.loc 24 25 34 discriminator 19
	leaq	-80(%rbp), %rax	 #, tmp191
	movq	%rax, %rcx	 # tmp191,
	call	_ZN7testing15AssertionResultD1Ev	 #
.LBE360:
.LBE359:
.LBE358:
 # E:\Projects\Simulation_Projects\cva_cpp\tests\gtest_basic.cpp:26: }
	.loc 24 26 1
	leaq	-16(%rbp), %rax	 #, tmp192
	movq	%rax, %rcx	 # tmp192,
	call	_ZN3cva4math6MatrixD1Ev	 #
 # E:\Projects\Simulation_Projects\cva_cpp\tests\gtest_basic.cpp:26: }
	.loc 24 26 1 is_stmt 0 discriminator 1
	leaq	32(%rbp), %rax	 #, tmp193
	movq	%rax, %rcx	 # tmp193,
	call	_ZN3cva4math6MatrixD1Ev	 #
 # E:\Projects\Simulation_Projects\cva_cpp\tests\gtest_basic.cpp:26: }
	.loc 24 26 1
	jmp	.L151	 #
.L141:
.LBB363:
.LBB347:
.LBB346:
 # E:\Projects\Simulation_Projects\cva_cpp\tests\gtest_basic.cpp:22:     EXPECT_DOUBLE_EQ(m(0, 0), 2.0);
	.loc 24 22 36 is_stmt 1 discriminator 15
	movq	%rax, %rbx	 #, tmp196
	leaq	88(%rbp), %rax	 #, tmp194
	movq	%rax, %rcx	 # tmp194,
	call	_ZN7testing8internal12AssertHelperD1Ev	 #
	jmp	.L124	 #
.L140:
 # E:\Projects\Simulation_Projects\cva_cpp\tests\gtest_basic.cpp:22:     EXPECT_DOUBLE_EQ(m(0, 0), 2.0);
	.loc 24 22 209
	movq	%rax, %rbx	 #, tmp195
.L124:
	leaq	80(%rbp), %rax	 #, tmp199
	movq	%rax, %rcx	 # tmp199,
	call	_ZN7testing7MessageD1Ev	 #
	jmp	.L125	 #
.L139:
 # E:\Projects\Simulation_Projects\cva_cpp\tests\gtest_basic.cpp:22:     EXPECT_DOUBLE_EQ(m(0, 0), 2.0);
	.loc 24 22 34
	movq	%rax, %rbx	 #, tmp200
.L125:
	leaq	-32(%rbp), %rax	 #, tmp202
	movq	%rax, %rcx	 # tmp202,
	call	_ZN7testing15AssertionResultD1Ev	 #
	jmp	.L126	 #
.L144:
.LBE346:
.LBE347:
.LBE363:
.LBB364:
.LBB352:
.LBB351:
 # E:\Projects\Simulation_Projects\cva_cpp\tests\gtest_basic.cpp:23:     EXPECT_DOUBLE_EQ(m(0, 1), 3.0);
	.loc 24 23 36 discriminator 15
	movq	%rax, %rbx	 #, tmp207
	leaq	104(%rbp), %rax	 #, tmp205
	movq	%rax, %rcx	 # tmp205,
	call	_ZN7testing8internal12AssertHelperD1Ev	 #
	jmp	.L128	 #
.L143:
 # E:\Projects\Simulation_Projects\cva_cpp\tests\gtest_basic.cpp:23:     EXPECT_DOUBLE_EQ(m(0, 1), 3.0);
	.loc 24 23 209
	movq	%rax, %rbx	 #, tmp206
.L128:
	leaq	96(%rbp), %rax	 #, tmp210
	movq	%rax, %rcx	 # tmp210,
	call	_ZN7testing7MessageD1Ev	 #
	jmp	.L129	 #
.L142:
 # E:\Projects\Simulation_Projects\cva_cpp\tests\gtest_basic.cpp:23:     EXPECT_DOUBLE_EQ(m(0, 1), 3.0);
	.loc 24 23 34
	movq	%rax, %rbx	 #, tmp211
.L129:
	leaq	-48(%rbp), %rax	 #, tmp213
	movq	%rax, %rcx	 # tmp213,
	call	_ZN7testing15AssertionResultD1Ev	 #
	jmp	.L126	 #
.L147:
.LBE351:
.LBE352:
.LBE364:
.LBB365:
.LBB357:
.LBB356:
 # E:\Projects\Simulation_Projects\cva_cpp\tests\gtest_basic.cpp:24:     EXPECT_DOUBLE_EQ(m(1, 0), 4.0);
	.loc 24 24 36 discriminator 15
	movq	%rax, %rbx	 #, tmp216
	leaq	120(%rbp), %rax	 #, tmp214
	movq	%rax, %rcx	 # tmp214,
	call	_ZN7testing8internal12AssertHelperD1Ev	 #
	jmp	.L131	 #
.L146:
 # E:\Projects\Simulation_Projects\cva_cpp\tests\gtest_basic.cpp:24:     EXPECT_DOUBLE_EQ(m(1, 0), 4.0);
	.loc 24 24 209
	movq	%rax, %rbx	 #, tmp215
.L131:
	leaq	112(%rbp), %rax	 #, tmp219
	movq	%rax, %rcx	 # tmp219,
	call	_ZN7testing7MessageD1Ev	 #
	jmp	.L132	 #
.L145:
 # E:\Projects\Simulation_Projects\cva_cpp\tests\gtest_basic.cpp:24:     EXPECT_DOUBLE_EQ(m(1, 0), 4.0);
	.loc 24 24 34
	movq	%rax, %rbx	 #, tmp220
.L132:
	leaq	-64(%rbp), %rax	 #, tmp222
	movq	%rax, %rcx	 # tmp222,
	call	_ZN7testing15AssertionResultD1Ev	 #
	jmp	.L126	 #
.L150:
.LBE356:
.LBE357:
.LBE365:
.LBB366:
.LBB362:
.LBB361:
 # E:\Projects\Simulation_Projects\cva_cpp\tests\gtest_basic.cpp:25:     EXPECT_DOUBLE_EQ(m(1, 1), 5.0);
	.loc 24 25 36 discriminator 15
	movq	%rax, %rbx	 #, tmp225
	leaq	136(%rbp), %rax	 #, tmp223
	movq	%rax, %rcx	 # tmp223,
	call	_ZN7testing8internal12AssertHelperD1Ev	 #
	jmp	.L134	 #
.L149:
 # E:\Projects\Simulation_Projects\cva_cpp\tests\gtest_basic.cpp:25:     EXPECT_DOUBLE_EQ(m(1, 1), 5.0);
	.loc 24 25 209
	movq	%rax, %rbx	 #, tmp224
.L134:
	leaq	128(%rbp), %rax	 #, tmp228
	movq	%rax, %rcx	 # tmp228,
	call	_ZN7testing7MessageD1Ev	 #
	jmp	.L135	 #
.L148:
 # E:\Projects\Simulation_Projects\cva_cpp\tests\gtest_basic.cpp:25:     EXPECT_DOUBLE_EQ(m(1, 1), 5.0);
	.loc 24 25 34
	movq	%rax, %rbx	 #, tmp229
.L135:
	leaq	-80(%rbp), %rax	 #, tmp231
	movq	%rax, %rcx	 # tmp231,
	call	_ZN7testing15AssertionResultD1Ev	 #
	jmp	.L126	 #
.L138:
.LBE361:
.LBE362:
.LBE366:
 # E:\Projects\Simulation_Projects\cva_cpp\tests\gtest_basic.cpp:26: }
	.loc 24 26 1
	movq	%rax, %rbx	 #, tmp203
.L126:
	leaq	-16(%rbp), %rax	 #, tmp232
	movq	%rax, %rcx	 # tmp232,
	call	_ZN3cva4math6MatrixD1Ev	 #
	jmp	.L136	 #
.L137:
	movq	%rax, %rbx	 #, tmp233
.L136:
	leaq	32(%rbp), %rax	 #, tmp235
	movq	%rax, %rcx	 # tmp235,
	call	_ZN3cva4math6MatrixD1Ev	 #
	movq	%rbx, %rax	 # tmp233, D.248473
	movq	%rax, %rcx	 # D.248473,
.LEHB23:
	call	_Unwind_Resume	 #
	nop	
.LEHE23:
.L151:
	addq	$280, %rsp	 #,
	popq	%rbx	 #
	.cfi_restore 3
	popq	%rbp	 #
	.cfi_restore 6
	.cfi_def_cfa 7, -264
	ret	
	.cfi_endproc
.LFE9385:
	.seh_handler	__gxx_personality_seh0, @unwind, @except
	.seh_handlerdata
.LLSDA9385:
	.byte	0xff
	.byte	0xff
	.byte	0x1
	.uleb128 .LLSDACSE9385-.LLSDACSB9385
.LLSDACSB9385:
	.uleb128 .LEHB5-.LFB9385
	.uleb128 .LEHE5-.LEHB5
	.uleb128 0
	.uleb128 0
	.uleb128 .LEHB6-.LFB9385
	.uleb128 .LEHE6-.LEHB6
	.uleb128 .L137-.LFB9385
	.uleb128 0
	.uleb128 .LEHB7-.LFB9385
	.uleb128 .LEHE7-.LEHB7
	.uleb128 .L138-.LFB9385
	.uleb128 0
	.uleb128 .LEHB8-.LFB9385
	.uleb128 .LEHE8-.LEHB8
	.uleb128 .L139-.LFB9385
	.uleb128 0
	.uleb128 .LEHB9-.LFB9385
	.uleb128 .LEHE9-.LEHB9
	.uleb128 .L140-.LFB9385
	.uleb128 0
	.uleb128 .LEHB10-.LFB9385
	.uleb128 .LEHE10-.LEHB10
	.uleb128 .L141-.LFB9385
	.uleb128 0
	.uleb128 .LEHB11-.LFB9385
	.uleb128 .LEHE11-.LEHB11
	.uleb128 .L138-.LFB9385
	.uleb128 0
	.uleb128 .LEHB12-.LFB9385
	.uleb128 .LEHE12-.LEHB12
	.uleb128 .L142-.LFB9385
	.uleb128 0
	.uleb128 .LEHB13-.LFB9385
	.uleb128 .LEHE13-.LEHB13
	.uleb128 .L143-.LFB9385
	.uleb128 0
	.uleb128 .LEHB14-.LFB9385
	.uleb128 .LEHE14-.LEHB14
	.uleb128 .L144-.LFB9385
	.uleb128 0
	.uleb128 .LEHB15-.LFB9385
	.uleb128 .LEHE15-.LEHB15
	.uleb128 .L138-.LFB9385
	.uleb128 0
	.uleb128 .LEHB16-.LFB9385
	.uleb128 .LEHE16-.LEHB16
	.uleb128 .L145-.LFB9385
	.uleb128 0
	.uleb128 .LEHB17-.LFB9385
	.uleb128 .LEHE17-.LEHB17
	.uleb128 .L146-.LFB9385
	.uleb128 0
	.uleb128 .LEHB18-.LFB9385
	.uleb128 .LEHE18-.LEHB18
	.uleb128 .L147-.LFB9385
	.uleb128 0
	.uleb128 .LEHB19-.LFB9385
	.uleb128 .LEHE19-.LEHB19
	.uleb128 .L138-.LFB9385
	.uleb128 0
	.uleb128 .LEHB20-.LFB9385
	.uleb128 .LEHE20-.LEHB20
	.uleb128 .L148-.LFB9385
	.uleb128 0
	.uleb128 .LEHB21-.LFB9385
	.uleb128 .LEHE21-.LEHB21
	.uleb128 .L149-.LFB9385
	.uleb128 0
	.uleb128 .LEHB22-.LFB9385
	.uleb128 .LEHE22-.LEHB22
	.uleb128 .L150-.LFB9385
	.uleb128 0
	.uleb128 .LEHB23-.LFB9385
	.uleb128 .LEHE23-.LEHB23
	.uleb128 0
	.uleb128 0
.LLSDACSE9385:
	.text
	.seh_endproc
	.section	.text$_ZN7testing8internal15TestFactoryImplI58RandomGeneratorTest_MeanVarianceRoughlyStandardNormal_TestEC1Ev,"x"
	.linkonce discard
	.align 2
	.globl	_ZN7testing8internal15TestFactoryImplI58RandomGeneratorTest_MeanVarianceRoughlyStandardNormal_TestEC1Ev
	.def	_ZN7testing8internal15TestFactoryImplI58RandomGeneratorTest_MeanVarianceRoughlyStandardNormal_TestEC1Ev;	.scl	2;	.type	32;	.endef
	.seh_proc	_ZN7testing8internal15TestFactoryImplI58RandomGeneratorTest_MeanVarianceRoughlyStandardNormal_TestEC1Ev
_ZN7testing8internal15TestFactoryImplI58RandomGeneratorTest_MeanVarianceRoughlyStandardNormal_TestEC1Ev:
.LFB9391:
	.loc 21 455 7
	.cfi_startproc
	pushq	%rbp	 #
	.seh_pushreg	%rbp
	.cfi_def_cfa_offset 16
	.cfi_offset 6, -16
	movq	%rsp, %rbp	 #,
	.seh_setframe	%rbp, 0
	.cfi_def_cfa_register 6
	subq	$32, %rsp	 #,
	.seh_stackalloc	32
	.seh_endprologue
	movq	%rcx, 16(%rbp)	 # this, this
.LBB367:
 # E:/Projects/Simulation_Projects/cva_cpp/build/_deps/googletest-src/googletest/include/gtest/internal/gtest-internal.h:455: class TestFactoryImpl : public TestFactoryBase {
	.loc 21 455 7
	movq	16(%rbp), %rax	 # this, _1
	movq	%rax, %rcx	 # _1,
	call	_ZN7testing8internal15TestFactoryBaseC2Ev	 #
 # E:/Projects/Simulation_Projects/cva_cpp/build/_deps/googletest-src/googletest/include/gtest/internal/gtest-internal.h:455: class TestFactoryImpl : public TestFactoryBase {
	.loc 21 455 7 is_stmt 0 discriminator 1
	leaq	16+_ZTVN7testing8internal15TestFactoryImplI58RandomGeneratorTest_MeanVarianceRoughlyStandardNormal_TestEE(%rip), %rdx	 #, _2
	movq	16(%rbp), %rax	 # this, tmp101
	movq	%rdx, (%rax)	 # _2, this_4(D)->D.200107._vptr.TestFactoryBase
.LBE367:
 # E:/Projects/Simulation_Projects/cva_cpp/build/_deps/googletest-src/googletest/include/gtest/internal/gtest-internal.h:455: class TestFactoryImpl : public TestFactoryBase {
	.loc 21 455 7
	nop	
	addq	$32, %rsp	 #,
	popq	%rbp	 #
	.cfi_restore 6
	.cfi_def_cfa 7, 8
	ret	
	.cfi_endproc
.LFE9391:
	.seh_endproc
	.globl	_ZN58RandomGeneratorTest_MeanVarianceRoughlyStandardNormal_Test10test_info_E
	.bss
	.align 8
_ZN58RandomGeneratorTest_MeanVarianceRoughlyStandardNormal_Test10test_info_E:
	.space 8
	.section .rdata,"dr"
.LC23:
	.ascii "0.4\0"
.LC24:
	.ascii "std::abs(mean)\0"
.LC25:
	.ascii "std::abs(var - 1.0)\0"
	.text
	.align 2
	.globl	_ZN58RandomGeneratorTest_MeanVarianceRoughlyStandardNormal_Test8TestBodyEv
	.def	_ZN58RandomGeneratorTest_MeanVarianceRoughlyStandardNormal_Test8TestBodyEv;	.scl	2;	.type	32;	.endef
	.seh_proc	_ZN58RandomGeneratorTest_MeanVarianceRoughlyStandardNormal_Test8TestBodyEv
_ZN58RandomGeneratorTest_MeanVarianceRoughlyStandardNormal_Test8TestBodyEv:
.LFB9392:
	.loc 24 28 61 is_stmt 1
	.cfi_startproc
	pushq	%rbp	 #
	.seh_pushreg	%rbp
	.cfi_def_cfa_offset 16
	.cfi_offset 6, -16
	pushq	%rbx	 #
	.seh_pushreg	%rbx
	.cfi_def_cfa_offset 24
	.cfi_offset 3, -24
	subq	$2792, %rsp	 #,
	.seh_stackalloc	2792
	.cfi_def_cfa_offset 2816
	leaq	128(%rsp), %rbp	 #,
	.seh_setframe	%rbp, 128
	.cfi_def_cfa 6, 2688
	.seh_endprologue
	movq	%rcx, 2688(%rbp)	 # this, this
 # E:\Projects\Simulation_Projects\cva_cpp\tests\gtest_basic.cpp:29:     cva::math::RandomGenerator rng(123);
	.loc 24 29 39
	movq	%rbp, %rax	 #, tmp110
	movl	$123, %edx	 #,
	movq	%rax, %rcx	 # tmp110,
.LEHB24:
	call	_ZN3cva4math15RandomGeneratorC1Em	 #
 # E:\Projects\Simulation_Projects\cva_cpp\tests\gtest_basic.cpp:30:     cva::math::Matrix m(200, 1);
	.loc 24 30 31
	leaq	-48(%rbp), %rax	 #, tmp111
	pxor	%xmm3, %xmm3	 #
	movl	$1, %r8d	 #,
	movl	$200, %edx	 #,
	movq	%rax, %rcx	 # tmp111,
	call	_ZN3cva4math6MatrixC1Eyyd	 #
.LEHE24:
 # E:\Projects\Simulation_Projects\cva_cpp\tests\gtest_basic.cpp:31:     rng.generate_standard_normal(m);
	.loc 24 31 33
	leaq	-48(%rbp), %rdx	 #, tmp112
	movq	%rbp, %rax	 #, tmp113
	movq	%rax, %rcx	 # tmp113,
.LEHB25:
	call	_ZN3cva4math15RandomGenerator24generate_standard_normalERNS0_6MatrixE	 #
 # E:\Projects\Simulation_Projects\cva_cpp\tests\gtest_basic.cpp:33:     double sum = 0.0;
	.loc 24 33 12
	pxor	%xmm0, %xmm0	 # tmp114
	movsd	%xmm0, 2648(%rbp)	 # tmp114, sum
 # E:\Projects\Simulation_Projects\cva_cpp\tests\gtest_basic.cpp:34:     double sum_sq = 0.0;
	.loc 24 34 12
	pxor	%xmm0, %xmm0	 # tmp115
	movsd	%xmm0, 2640(%rbp)	 # tmp115, sum_sq
.LBB368:
 # E:\Projects\Simulation_Projects\cva_cpp\tests\gtest_basic.cpp:35:     for (size_t i = 0; i < 200; ++i) {
	.loc 24 35 17
	movq	$0, 2632(%rbp)	 #, i
 # E:\Projects\Simulation_Projects\cva_cpp\tests\gtest_basic.cpp:35:     for (size_t i = 0; i < 200; ++i) {
	.loc 24 35 5
	jmp	.L154	 #
.L155:
.LBB369:
 # E:\Projects\Simulation_Projects\cva_cpp\tests\gtest_basic.cpp:36:         double val = m(i, 0);
	.loc 24 36 23
	movq	2632(%rbp), %rdx	 # i, tmp116
	leaq	-48(%rbp), %rax	 #, tmp117
	movl	$0, %r8d	 #,
	movq	%rax, %rcx	 # tmp117,
	call	_ZN3cva4math6MatrixclEyy	 #
 # E:\Projects\Simulation_Projects\cva_cpp\tests\gtest_basic.cpp:36:         double val = m(i, 0);
	.loc 24 36 28 discriminator 1
	movsd	(%rax), %xmm0	 # *_1, tmp118
	movsd	%xmm0, 2608(%rbp)	 # tmp118, val
 # E:\Projects\Simulation_Projects\cva_cpp\tests\gtest_basic.cpp:37:         sum += val;
	.loc 24 37 13
	movsd	2648(%rbp), %xmm0	 # sum, tmp120
	addsd	2608(%rbp), %xmm0	 # val, sum_90
	movsd	%xmm0, 2648(%rbp)	 # sum_90, sum
 # E:\Projects\Simulation_Projects\cva_cpp\tests\gtest_basic.cpp:38:         sum_sq += val * val;
	.loc 24 38 23
	movsd	2608(%rbp), %xmm0	 # val, tmp121
	mulsd	%xmm0, %xmm0	 # tmp121, _2
 # E:\Projects\Simulation_Projects\cva_cpp\tests\gtest_basic.cpp:38:         sum_sq += val * val;
	.loc 24 38 16
	movsd	2640(%rbp), %xmm1	 # sum_sq, tmp123
	addsd	%xmm1, %xmm0	 # tmp123, sum_sq_91
	movsd	%xmm0, 2640(%rbp)	 # sum_sq_91, sum_sq
.LBE369:
 # E:\Projects\Simulation_Projects\cva_cpp\tests\gtest_basic.cpp:35:     for (size_t i = 0; i < 200; ++i) {
	.loc 24 35 5 discriminator 3
	addq	$1, 2632(%rbp)	 #, i
.L154:
 # E:\Projects\Simulation_Projects\cva_cpp\tests\gtest_basic.cpp:35:     for (size_t i = 0; i < 200; ++i) {
	.loc 24 35 26 discriminator 1
	cmpq	$199, 2632(%rbp)	 #, i
	jbe	.L155	 #,
.LBE368:
 # E:\Projects\Simulation_Projects\cva_cpp\tests\gtest_basic.cpp:41:     double mean = sum / 200.0;
	.loc 24 41 12
	movsd	2648(%rbp), %xmm0	 # sum, tmp125
	movsd	.LC21(%rip), %xmm1	 #, tmp126
	divsd	%xmm1, %xmm0	 # tmp126, mean_31
	movsd	%xmm0, 2624(%rbp)	 # mean_31, mean
 # E:\Projects\Simulation_Projects\cva_cpp\tests\gtest_basic.cpp:42:     double var = (sum_sq / 200.0) - (mean * mean);
	.loc 24 42 26
	movsd	2640(%rbp), %xmm0	 # sum_sq, tmp127
	movsd	.LC21(%rip), %xmm2	 #, tmp128
	movapd	%xmm0, %xmm1	 # tmp127, tmp127
	divsd	%xmm2, %xmm1	 # tmp128, tmp127
 # E:\Projects\Simulation_Projects\cva_cpp\tests\gtest_basic.cpp:42:     double var = (sum_sq / 200.0) - (mean * mean);
	.loc 24 42 43
	movsd	2624(%rbp), %xmm0	 # mean, tmp129
	movapd	%xmm0, %xmm2	 # tmp129, tmp129
	mulsd	%xmm0, %xmm2	 # tmp129, tmp129
 # E:\Projects\Simulation_Projects\cva_cpp\tests\gtest_basic.cpp:42:     double var = (sum_sq / 200.0) - (mean * mean);
	.loc 24 42 12
	subsd	%xmm2, %xmm1	 # _4, _3
	movapd	%xmm1, %xmm0	 # _3, var_32
	movsd	%xmm0, 2616(%rbp)	 # var_32, var
.LBB370:
.LBB371:
.LBB372:
 # E:\Projects\Simulation_Projects\cva_cpp\tests\gtest_basic.cpp:44:     EXPECT_LT(std::abs(mean), 0.4);
	.loc 24 44 4 discriminator 1
	movsd	.LC22(%rip), %xmm0	 #, tmp131
	movsd	%xmm0, 2544(%rbp)	 # tmp131, D.200649
 # E:\Projects\Simulation_Projects\cva_cpp\tests\gtest_basic.cpp:44:     EXPECT_LT(std::abs(mean), 0.4);
	.loc 24 44 12 discriminator 1
	movq	2624(%rbp), %rax	 # mean, tmp132
	movq	%rax, %xmm0	 # tmp132,
	call	_ZSt3absd	 #
	movq	%xmm0, %rax	 #, _5
 # E:\Projects\Simulation_Projects\cva_cpp\tests\gtest_basic.cpp:44:     EXPECT_LT(std::abs(mean), 0.4);
	.loc 24 44 12 is_stmt 0 discriminator 2
	movq	%rax, 2552(%rbp)	 # _5, D.200648
 # E:\Projects\Simulation_Projects\cva_cpp\tests\gtest_basic.cpp:44:     EXPECT_LT(std::abs(mean), 0.4);
	.loc 24 44 5 is_stmt 1 discriminator 2
	leaq	-64(%rbp), %rax	 #, tmp133
	leaq	2552(%rbp), %r8	 #, tmp134
	leaq	.LC23(%rip), %r10	 #, tmp135
	leaq	.LC24(%rip), %rdx	 #, tmp136
	leaq	2544(%rbp), %rcx	 #, tmp137
	movq	%rcx, 32(%rsp)	 # tmp137,
	movq	%r8, %r9	 # tmp134,
	movq	%r10, %r8	 # tmp135,
	movq	%rax, %rcx	 # tmp133,
	call	_ZN7testing8internal11CmpHelperLTIddEENS_15AssertionResultEPKcS4_RKT_RKT0_	 #
.LEHE25:
 # E:\Projects\Simulation_Projects\cva_cpp\tests\gtest_basic.cpp:44:     EXPECT_LT(std::abs(mean), 0.4);
	.loc 24 44 6 discriminator 5
	leaq	-64(%rbp), %rax	 #, tmp138
	movq	%rax, %rcx	 # tmp138,
	call	_ZNK7testing15AssertionResultcvbEv	 #
 # E:\Projects\Simulation_Projects\cva_cpp\tests\gtest_basic.cpp:44:     EXPECT_LT(std::abs(mean), 0.4);
	.loc 24 44 32 discriminator 6
	testb	%al, %al	 # retval.31_40
	jne	.L156	 #,
 # E:\Projects\Simulation_Projects\cva_cpp\tests\gtest_basic.cpp:44:     EXPECT_LT(std::abs(mean), 0.4);
	.loc 24 44 217 discriminator 7
	leaq	2560(%rbp), %rax	 #, tmp139
	movq	%rax, %rcx	 # tmp139,
.LEHB26:
	call	_ZN7testing7MessageC1Ev	 #
.LEHE26:
 # E:\Projects\Simulation_Projects\cva_cpp\tests\gtest_basic.cpp:44:     EXPECT_LT(std::abs(mean), 0.4);
	.loc 24 44 194 discriminator 10
	leaq	-64(%rbp), %rax	 #, tmp140
	movq	%rax, %rcx	 # tmp140,
	call	_ZNK7testing15AssertionResult15failure_messageEv	 #
	movq	%rax, %rdx	 #, _6
 # E:\Projects\Simulation_Projects\cva_cpp\tests\gtest_basic.cpp:44:     EXPECT_LT(std::abs(mean), 0.4);
	.loc 24 44 194 is_stmt 0 discriminator 11
	leaq	.LC13(%rip), %rcx	 #, tmp141
	leaq	2568(%rbp), %rax	 #, tmp142
	movq	%rdx, 32(%rsp)	 # _6,
	movl	$44, %r9d	 #,
	movq	%rcx, %r8	 # tmp141,
	movl	$1, %edx	 #,
	movq	%rax, %rcx	 # tmp142,
.LEHB27:
	call	_ZN7testing8internal12AssertHelperC1ENS_14TestPartResult4TypeEPKciS5_	 #
.LEHE27:
 # E:\Projects\Simulation_Projects\cva_cpp\tests\gtest_basic.cpp:44:     EXPECT_LT(std::abs(mean), 0.4);
	.loc 24 44 196 is_stmt 1 discriminator 14
	leaq	2560(%rbp), %rdx	 #, tmp143
	leaq	2568(%rbp), %rax	 #, tmp144
	movq	%rax, %rcx	 # tmp144,
.LEHB28:
	call	_ZNK7testing8internal12AssertHelperaSERKNS_7MessageE	 #
.LEHE28:
 # E:\Projects\Simulation_Projects\cva_cpp\tests\gtest_basic.cpp:44:     EXPECT_LT(std::abs(mean), 0.4);
	.loc 24 44 36 discriminator 17
	leaq	2568(%rbp), %rax	 #, tmp145
	movq	%rax, %rcx	 # tmp145,
	call	_ZN7testing8internal12AssertHelperD1Ev	 #
 # E:\Projects\Simulation_Projects\cva_cpp\tests\gtest_basic.cpp:44:     EXPECT_LT(std::abs(mean), 0.4);
	.loc 24 44 209 discriminator 18
	leaq	2560(%rbp), %rax	 #, tmp146
	movq	%rax, %rcx	 # tmp146,
	call	_ZN7testing7MessageD1Ev	 #
.L156:
 # E:\Projects\Simulation_Projects\cva_cpp\tests\gtest_basic.cpp:44:     EXPECT_LT(std::abs(mean), 0.4);
	.loc 24 44 34 discriminator 20
	leaq	-64(%rbp), %rax	 #, tmp147
	movq	%rax, %rcx	 # tmp147,
	call	_ZN7testing15AssertionResultD1Ev	 #
.LBE372:
.LBE371:
.LBE370:
.LBB375:
.LBB376:
.LBB377:
 # E:\Projects\Simulation_Projects\cva_cpp\tests\gtest_basic.cpp:45:     EXPECT_LT(std::abs(var - 1.0), 0.4);
	.loc 24 45 4 discriminator 1
	movsd	.LC22(%rip), %xmm0	 #, tmp148
	movsd	%xmm0, 2576(%rbp)	 # tmp148, D.200657
 # E:\Projects\Simulation_Projects\cva_cpp\tests\gtest_basic.cpp:45:     EXPECT_LT(std::abs(var - 1.0), 0.4);
	.loc 24 45 12 discriminator 1
	movsd	2616(%rbp), %xmm0	 # var, tmp149
	movsd	.LC7(%rip), %xmm1	 #, tmp150
	subsd	%xmm1, %xmm0	 # tmp150, tmp149
	movq	%xmm0, %rax	 # tmp149, _7
	movq	%rax, %xmm0	 # _7,
	call	_ZSt3absd	 #
	movq	%xmm0, %rax	 #, _8
 # E:\Projects\Simulation_Projects\cva_cpp\tests\gtest_basic.cpp:45:     EXPECT_LT(std::abs(var - 1.0), 0.4);
	.loc 24 45 12 is_stmt 0 discriminator 2
	movq	%rax, 2584(%rbp)	 # _8, D.200656
 # E:\Projects\Simulation_Projects\cva_cpp\tests\gtest_basic.cpp:45:     EXPECT_LT(std::abs(var - 1.0), 0.4);
	.loc 24 45 5 is_stmt 1 discriminator 2
	leaq	-80(%rbp), %rax	 #, tmp151
	leaq	2584(%rbp), %r8	 #, tmp152
	leaq	.LC23(%rip), %r10	 #, tmp153
	leaq	.LC25(%rip), %rdx	 #, tmp154
	leaq	2576(%rbp), %rcx	 #, tmp155
	movq	%rcx, 32(%rsp)	 # tmp155,
	movq	%r8, %r9	 # tmp152,
	movq	%r10, %r8	 # tmp153,
	movq	%rax, %rcx	 # tmp151,
.LEHB29:
	call	_ZN7testing8internal11CmpHelperLTIddEENS_15AssertionResultEPKcS4_RKT_RKT0_	 #
.LEHE29:
 # E:\Projects\Simulation_Projects\cva_cpp\tests\gtest_basic.cpp:45:     EXPECT_LT(std::abs(var - 1.0), 0.4);
	.loc 24 45 6 discriminator 5
	leaq	-80(%rbp), %rax	 #, tmp156
	movq	%rax, %rcx	 # tmp156,
	call	_ZNK7testing15AssertionResultcvbEv	 #
 # E:\Projects\Simulation_Projects\cva_cpp\tests\gtest_basic.cpp:45:     EXPECT_LT(std::abs(var - 1.0), 0.4);
	.loc 24 45 32 discriminator 6
	testb	%al, %al	 # retval.32_63
	jne	.L157	 #,
 # E:\Projects\Simulation_Projects\cva_cpp\tests\gtest_basic.cpp:45:     EXPECT_LT(std::abs(var - 1.0), 0.4);
	.loc 24 45 217 discriminator 7
	leaq	2592(%rbp), %rax	 #, tmp157
	movq	%rax, %rcx	 # tmp157,
.LEHB30:
	call	_ZN7testing7MessageC1Ev	 #
.LEHE30:
 # E:\Projects\Simulation_Projects\cva_cpp\tests\gtest_basic.cpp:45:     EXPECT_LT(std::abs(var - 1.0), 0.4);
	.loc 24 45 194 discriminator 10
	leaq	-80(%rbp), %rax	 #, tmp158
	movq	%rax, %rcx	 # tmp158,
	call	_ZNK7testing15AssertionResult15failure_messageEv	 #
	movq	%rax, %rdx	 #, _9
 # E:\Projects\Simulation_Projects\cva_cpp\tests\gtest_basic.cpp:45:     EXPECT_LT(std::abs(var - 1.0), 0.4);
	.loc 24 45 194 is_stmt 0 discriminator 11
	leaq	.LC13(%rip), %rcx	 #, tmp159
	leaq	2600(%rbp), %rax	 #, tmp160
	movq	%rdx, 32(%rsp)	 # _9,
	movl	$45, %r9d	 #,
	movq	%rcx, %r8	 # tmp159,
	movl	$1, %edx	 #,
	movq	%rax, %rcx	 # tmp160,
.LEHB31:
	call	_ZN7testing8internal12AssertHelperC1ENS_14TestPartResult4TypeEPKciS5_	 #
.LEHE31:
 # E:\Projects\Simulation_Projects\cva_cpp\tests\gtest_basic.cpp:45:     EXPECT_LT(std::abs(var - 1.0), 0.4);
	.loc 24 45 196 is_stmt 1 discriminator 14
	leaq	2592(%rbp), %rdx	 #, tmp161
	leaq	2600(%rbp), %rax	 #, tmp162
	movq	%rax, %rcx	 # tmp162,
.LEHB32:
	call	_ZNK7testing8internal12AssertHelperaSERKNS_7MessageE	 #
.LEHE32:
 # E:\Projects\Simulation_Projects\cva_cpp\tests\gtest_basic.cpp:45:     EXPECT_LT(std::abs(var - 1.0), 0.4);
	.loc 24 45 36 discriminator 17
	leaq	2600(%rbp), %rax	 #, tmp163
	movq	%rax, %rcx	 # tmp163,
	call	_ZN7testing8internal12AssertHelperD1Ev	 #
 # E:\Projects\Simulation_Projects\cva_cpp\tests\gtest_basic.cpp:45:     EXPECT_LT(std::abs(var - 1.0), 0.4);
	.loc 24 45 209 discriminator 18
	leaq	2592(%rbp), %rax	 #, tmp164
	movq	%rax, %rcx	 # tmp164,
	call	_ZN7testing7MessageD1Ev	 #
.L157:
 # E:\Projects\Simulation_Projects\cva_cpp\tests\gtest_basic.cpp:45:     EXPECT_LT(std::abs(var - 1.0), 0.4);
	.loc 24 45 39 discriminator 20
	leaq	-80(%rbp), %rax	 #, tmp165
	movq	%rax, %rcx	 # tmp165,
	call	_ZN7testing15AssertionResultD1Ev	 #
.LBE377:
.LBE376:
.LBE375:
 # E:\Projects\Simulation_Projects\cva_cpp\tests\gtest_basic.cpp:46: }
	.loc 24 46 1
	leaq	-48(%rbp), %rax	 #, tmp166
	movq	%rax, %rcx	 # tmp166,
	call	_ZN3cva4math6MatrixD1Ev	 #
	jmp	.L172	 #
.L168:
.LBB380:
.LBB374:
.LBB373:
 # E:\Projects\Simulation_Projects\cva_cpp\tests\gtest_basic.cpp:44:     EXPECT_LT(std::abs(mean), 0.4);
	.loc 24 44 36 discriminator 16
	movq	%rax, %rbx	 #, tmp169
	leaq	2568(%rbp), %rax	 #, tmp167
	movq	%rax, %rcx	 # tmp167,
	call	_ZN7testing8internal12AssertHelperD1Ev	 #
	jmp	.L159	 #
.L167:
 # E:\Projects\Simulation_Projects\cva_cpp\tests\gtest_basic.cpp:44:     EXPECT_LT(std::abs(mean), 0.4);
	.loc 24 44 209
	movq	%rax, %rbx	 #, tmp168
.L159:
	leaq	2560(%rbp), %rax	 #, tmp172
	movq	%rax, %rcx	 # tmp172,
	call	_ZN7testing7MessageD1Ev	 #
	jmp	.L160	 #
.L166:
 # E:\Projects\Simulation_Projects\cva_cpp\tests\gtest_basic.cpp:44:     EXPECT_LT(std::abs(mean), 0.4);
	.loc 24 44 34
	movq	%rax, %rbx	 #, tmp173
.L160:
	leaq	-64(%rbp), %rax	 #, tmp175
	movq	%rax, %rcx	 # tmp175,
	call	_ZN7testing15AssertionResultD1Ev	 #
	jmp	.L161	 #
.L171:
.LBE373:
.LBE374:
.LBE380:
.LBB381:
.LBB379:
.LBB378:
 # E:\Projects\Simulation_Projects\cva_cpp\tests\gtest_basic.cpp:45:     EXPECT_LT(std::abs(var - 1.0), 0.4);
	.loc 24 45 36 discriminator 16
	movq	%rax, %rbx	 #, tmp180
	leaq	2600(%rbp), %rax	 #, tmp178
	movq	%rax, %rcx	 # tmp178,
	call	_ZN7testing8internal12AssertHelperD1Ev	 #
	jmp	.L163	 #
.L170:
 # E:\Projects\Simulation_Projects\cva_cpp\tests\gtest_basic.cpp:45:     EXPECT_LT(std::abs(var - 1.0), 0.4);
	.loc 24 45 209
	movq	%rax, %rbx	 #, tmp179
.L163:
	leaq	2592(%rbp), %rax	 #, tmp183
	movq	%rax, %rcx	 # tmp183,
	call	_ZN7testing7MessageD1Ev	 #
	jmp	.L164	 #
.L169:
 # E:\Projects\Simulation_Projects\cva_cpp\tests\gtest_basic.cpp:45:     EXPECT_LT(std::abs(var - 1.0), 0.4);
	.loc 24 45 39
	movq	%rax, %rbx	 #, tmp184
.L164:
	leaq	-80(%rbp), %rax	 #, tmp186
	movq	%rax, %rcx	 # tmp186,
	call	_ZN7testing15AssertionResultD1Ev	 #
	jmp	.L161	 #
.L165:
.LBE378:
.LBE379:
.LBE381:
 # E:\Projects\Simulation_Projects\cva_cpp\tests\gtest_basic.cpp:46: }
	.loc 24 46 1
	movq	%rax, %rbx	 #, tmp176
.L161:
	leaq	-48(%rbp), %rax	 #, tmp187
	movq	%rax, %rcx	 # tmp187,
	call	_ZN3cva4math6MatrixD1Ev	 #
	movq	%rbx, %rax	 # tmp176, D.248487
	movq	%rax, %rcx	 # D.248487,
.LEHB33:
	call	_Unwind_Resume	 #
	nop	
.LEHE33:
.L172:
	addq	$2792, %rsp	 #,
	popq	%rbx	 #
	.cfi_restore 3
	popq	%rbp	 #
	.cfi_restore 6
	.cfi_def_cfa 7, -2776
	ret	
	.cfi_endproc
.LFE9392:
	.seh_handler	__gxx_personality_seh0, @unwind, @except
	.seh_handlerdata
.LLSDA9392:
	.byte	0xff
	.byte	0xff
	.byte	0x1
	.uleb128 .LLSDACSE9392-.LLSDACSB9392
.LLSDACSB9392:
	.uleb128 .LEHB24-.LFB9392
	.uleb128 .LEHE24-.LEHB24
	.uleb128 0
	.uleb128 0
	.uleb128 .LEHB25-.LFB9392
	.uleb128 .LEHE25-.LEHB25
	.uleb128 .L165-.LFB9392
	.uleb128 0
	.uleb128 .LEHB26-.LFB9392
	.uleb128 .LEHE26-.LEHB26
	.uleb128 .L166-.LFB9392
	.uleb128 0
	.uleb128 .LEHB27-.LFB9392
	.uleb128 .LEHE27-.LEHB27
	.uleb128 .L167-.LFB9392
	.uleb128 0
	.uleb128 .LEHB28-.LFB9392
	.uleb128 .LEHE28-.LEHB28
	.uleb128 .L168-.LFB9392
	.uleb128 0
	.uleb128 .LEHB29-.LFB9392
	.uleb128 .LEHE29-.LEHB29
	.uleb128 .L165-.LFB9392
	.uleb128 0
	.uleb128 .LEHB30-.LFB9392
	.uleb128 .LEHE30-.LEHB30
	.uleb128 .L169-.LFB9392
	.uleb128 0
	.uleb128 .LEHB31-.LFB9392
	.uleb128 .LEHE31-.LEHB31
	.uleb128 .L170-.LFB9392
	.uleb128 0
	.uleb128 .LEHB32-.LFB9392
	.uleb128 .LEHE32-.LEHB32
	.uleb128 .L171-.LFB9392
	.uleb128 0
	.uleb128 .LEHB33-.LFB9392
	.uleb128 .LEHE33-.LEHB33
	.uleb128 0
	.uleb128 0
.LLSDACSE9392:
	.text
	.seh_endproc
	.section	.text$_ZN7testing8internal15TestFactoryImplI38EuropeanOptionTest_PayoffAtExpiry_TestEC1Ev,"x"
	.linkonce discard
	.align 2
	.globl	_ZN7testing8internal15TestFactoryImplI38EuropeanOptionTest_PayoffAtExpiry_TestEC1Ev
	.def	_ZN7testing8internal15TestFactoryImplI38EuropeanOptionTest_PayoffAtExpiry_TestEC1Ev;	.scl	2;	.type	32;	.endef
	.seh_proc	_ZN7testing8internal15TestFactoryImplI38EuropeanOptionTest_PayoffAtExpiry_TestEC1Ev
_ZN7testing8internal15TestFactoryImplI38EuropeanOptionTest_PayoffAtExpiry_TestEC1Ev:
.LFB9395:
	.loc 21 455 7
	.cfi_startproc
	pushq	%rbp	 #
	.seh_pushreg	%rbp
	.cfi_def_cfa_offset 16
	.cfi_offset 6, -16
	movq	%rsp, %rbp	 #,
	.seh_setframe	%rbp, 0
	.cfi_def_cfa_register 6
	subq	$32, %rsp	 #,
	.seh_stackalloc	32
	.seh_endprologue
	movq	%rcx, 16(%rbp)	 # this, this
.LBB382:
 # E:/Projects/Simulation_Projects/cva_cpp/build/_deps/googletest-src/googletest/include/gtest/internal/gtest-internal.h:455: class TestFactoryImpl : public TestFactoryBase {
	.loc 21 455 7
	movq	16(%rbp), %rax	 # this, _1
	movq	%rax, %rcx	 # _1,
	call	_ZN7testing8internal15TestFactoryBaseC2Ev	 #
 # E:/Projects/Simulation_Projects/cva_cpp/build/_deps/googletest-src/googletest/include/gtest/internal/gtest-internal.h:455: class TestFactoryImpl : public TestFactoryBase {
	.loc 21 455 7 is_stmt 0 discriminator 1
	leaq	16+_ZTVN7testing8internal15TestFactoryImplI38EuropeanOptionTest_PayoffAtExpiry_TestEE(%rip), %rdx	 #, _2
	movq	16(%rbp), %rax	 # this, tmp101
	movq	%rdx, (%rax)	 # _2, this_4(D)->D.200745._vptr.TestFactoryBase
.LBE382:
 # E:/Projects/Simulation_Projects/cva_cpp/build/_deps/googletest-src/googletest/include/gtest/internal/gtest-internal.h:455: class TestFactoryImpl : public TestFactoryBase {
	.loc 21 455 7
	nop	
	addq	$32, %rsp	 #,
	popq	%rbp	 #
	.cfi_restore 6
	.cfi_def_cfa 7, 8
	ret	
	.cfi_endproc
.LFE9395:
	.seh_endproc
	.globl	_ZN38EuropeanOptionTest_PayoffAtExpiry_Test10test_info_E
	.bss
	.align 8
_ZN38EuropeanOptionTest_PayoffAtExpiry_Test10test_info_E:
	.space 8
	.section	.text$_ZN3cva11instruments14EuropeanOptionD1Ev,"x"
	.linkonce discard
	.align 2
	.globl	_ZN3cva11instruments14EuropeanOptionD1Ev
	.def	_ZN3cva11instruments14EuropeanOptionD1Ev;	.scl	2;	.type	32;	.endef
	.seh_proc	_ZN3cva11instruments14EuropeanOptionD1Ev
_ZN3cva11instruments14EuropeanOptionD1Ev:
.LFB9399:
	.loc 5 13 11 is_stmt 1
	.cfi_startproc
	pushq	%rbp	 #
	.seh_pushreg	%rbp
	.cfi_def_cfa_offset 16
	.cfi_offset 6, -16
	movq	%rsp, %rbp	 #,
	.seh_setframe	%rbp, 0
	.cfi_def_cfa_register 6
	subq	$32, %rsp	 #,
	.seh_stackalloc	32
	.seh_endprologue
	movq	%rcx, 16(%rbp)	 # this, this
.LBB383:
 # E:/Projects/Simulation_Projects/cva_cpp/includes_hpp/instruments/vanilla.hpp:13:     class EuropeanOption : public Instrument {
	.loc 5 13 11
	leaq	16+_ZTVN3cva11instruments14EuropeanOptionE(%rip), %rdx	 #, _1
	movq	16(%rbp), %rax	 # this, tmp100
	movq	%rdx, (%rax)	 # _1, this_4(D)->D.38335._vptr.Instrument
	movq	16(%rbp), %rax	 # this, _2
	movq	%rax, %rcx	 # _2,
	call	_ZN3cva11instruments10InstrumentD2Ev	 #
.LBE383:
	nop	
	addq	$32, %rsp	 #,
	popq	%rbp	 #
	.cfi_restore 6
	.cfi_def_cfa 7, 8
	ret	
	.cfi_endproc
.LFE9399:
	.seh_endproc
	.section	.text$_ZN3cva11instruments14EuropeanOptionD0Ev,"x"
	.linkonce discard
	.align 2
	.globl	_ZN3cva11instruments14EuropeanOptionD0Ev
	.def	_ZN3cva11instruments14EuropeanOptionD0Ev;	.scl	2;	.type	32;	.endef
	.seh_proc	_ZN3cva11instruments14EuropeanOptionD0Ev
_ZN3cva11instruments14EuropeanOptionD0Ev:
.LFB9400:
	.loc 5 13 11
	.cfi_startproc
	pushq	%rbp	 #
	.seh_pushreg	%rbp
	.cfi_def_cfa_offset 16
	.cfi_offset 6, -16
	movq	%rsp, %rbp	 #,
	.seh_setframe	%rbp, 0
	.cfi_def_cfa_register 6
	subq	$32, %rsp	 #,
	.seh_stackalloc	32
	.seh_endprologue
	movq	%rcx, 16(%rbp)	 # this, this
 # E:/Projects/Simulation_Projects/cva_cpp/includes_hpp/instruments/vanilla.hpp:13:     class EuropeanOption : public Instrument {
	.loc 5 13 11
	movq	16(%rbp), %rax	 # this, tmp98
	movq	%rax, %rcx	 # tmp98,
	call	_ZN3cva11instruments14EuropeanOptionD1Ev	 #
 # E:/Projects/Simulation_Projects/cva_cpp/includes_hpp/instruments/vanilla.hpp:13:     class EuropeanOption : public Instrument {
	.loc 5 13 11 is_stmt 0 discriminator 1
	movq	16(%rbp), %rax	 # this, tmp99
	movl	$48, %edx	 #,
	movq	%rax, %rcx	 # tmp99,
	call	_ZdlPvy	 #
	nop	
 # E:/Projects/Simulation_Projects/cva_cpp/includes_hpp/instruments/vanilla.hpp:13:     class EuropeanOption : public Instrument {
	.loc 5 13 11
	addq	$32, %rsp	 #,
	popq	%rbp	 #
	.cfi_restore 6
	.cfi_def_cfa 7, 8
	ret	
	.cfi_endproc
.LFE9400:
	.seh_endproc
	.section .rdata,"dr"
.LC30:
	.ascii "10.0\0"
.LC31:
	.ascii "call.value(110.0, 1.0)\0"
.LC34:
	.ascii "0.0\0"
.LC35:
	.ascii "call.value(90.0, 1.0)\0"
	.text
	.align 2
	.globl	_ZN38EuropeanOptionTest_PayoffAtExpiry_Test8TestBodyEv
	.def	_ZN38EuropeanOptionTest_PayoffAtExpiry_Test8TestBodyEv;	.scl	2;	.type	32;	.endef
	.seh_proc	_ZN38EuropeanOptionTest_PayoffAtExpiry_Test8TestBodyEv
_ZN38EuropeanOptionTest_PayoffAtExpiry_Test8TestBodyEv:
.LFB9396:
	.loc 24 48 41 is_stmt 1
	.cfi_startproc
	pushq	%rbp	 #
	.seh_pushreg	%rbp
	.cfi_def_cfa_offset 16
	.cfi_offset 6, -16
	pushq	%rbx	 #
	.seh_pushreg	%rbx
	.cfi_def_cfa_offset 24
	.cfi_offset 3, -24
	subq	$200, %rsp	 #,
	.seh_stackalloc	200
	.cfi_def_cfa_offset 224
	leaq	192(%rsp), %rbp	 #,
	.seh_setframe	%rbp, 192
	.cfi_def_cfa 6, 32
	.seh_endprologue
	movq	%rcx, 32(%rbp)	 # this, this
 # E:\Projects\Simulation_Projects\cva_cpp\tests\gtest_basic.cpp:49:     double k = 100.0;
	.loc 24 49 12
	movsd	.LC26(%rip), %xmm0	 #, tmp105
	movsd	%xmm0, -8(%rbp)	 # tmp105, k
 # E:\Projects\Simulation_Projects\cva_cpp\tests\gtest_basic.cpp:50:     double t = 1.0;
	.loc 24 50 12
	movsd	.LC7(%rip), %xmm0	 #, tmp106
	movsd	%xmm0, -16(%rbp)	 # tmp106, t
 # E:\Projects\Simulation_Projects\cva_cpp\tests\gtest_basic.cpp:51:     double r = 0.05;
	.loc 24 51 12
	movsd	.LC27(%rip), %xmm0	 #, tmp107
	movsd	%xmm0, -24(%rbp)	 # tmp107, r
 # E:\Projects\Simulation_Projects\cva_cpp\tests\gtest_basic.cpp:52:     double vol = 0.2;
	.loc 24 52 12
	movsd	.LC28(%rip), %xmm0	 #, tmp108
	movsd	%xmm0, -32(%rbp)	 # tmp108, vol
 # E:\Projects\Simulation_Projects\cva_cpp\tests\gtest_basic.cpp:57:     );
	.loc 24 57 5
	movsd	-16(%rbp), %xmm2	 # t, tmp109
	movsd	-8(%rbp), %xmm1	 # k, tmp110
	leaq	-112(%rbp), %rax	 #, tmp111
	movsd	-32(%rbp), %xmm0	 # vol, tmp112
	movsd	%xmm0, 40(%rsp)	 # tmp112,
	movsd	-24(%rbp), %xmm0	 # r, tmp113
	movsd	%xmm0, 32(%rsp)	 # tmp113,
	movapd	%xmm2, %xmm3	 # tmp109,
	movapd	%xmm1, %xmm2	 # tmp110,
	movl	$0, %edx	 #,
	movq	%rax, %rcx	 # tmp111,
	call	_ZN3cva11instruments14EuropeanOptionC1ENS0_10OptionTypeEdddd	 #
.LBB384:
.LBB385:
.LBB386:
 # E:\Projects\Simulation_Projects\cva_cpp\tests\gtest_basic.cpp:59:     EXPECT_DOUBLE_EQ(call.value(110.0, 1.0), 10.0);
	.loc 24 59 5 discriminator 1
	movsd	.LC7(%rip), %xmm1	 #, tmp114
	movsd	.LC29(%rip), %xmm0	 #, tmp115
	leaq	-112(%rbp), %rax	 #, tmp116
	movapd	%xmm1, %xmm2	 # tmp114,
	movapd	%xmm0, %xmm1	 # tmp115,
	movq	%rax, %rcx	 # tmp116,
	call	_ZNK3cva11instruments14EuropeanOption5valueEdd	 #
	movq	%xmm0, %rcx	 #, _1
 # E:\Projects\Simulation_Projects\cva_cpp\tests\gtest_basic.cpp:59:     EXPECT_DOUBLE_EQ(call.value(110.0, 1.0), 10.0);
	.loc 24 59 5 is_stmt 0 discriminator 3
	leaq	-128(%rbp), %rax	 #, tmp117
	leaq	.LC30(%rip), %r8	 #, tmp118
	leaq	.LC31(%rip), %rdx	 #, tmp119
	movsd	.LC32(%rip), %xmm0	 #, tmp120
	movsd	%xmm0, 32(%rsp)	 # tmp120,
	movq	%rcx, %xmm3	 # _1,
	movq	%rax, %rcx	 # tmp117,
.LEHB34:
	call	_ZN7testing8internal24CmpHelperFloatingPointEQIdEENS_15AssertionResultEPKcS4_T_S5_	 #
.LEHE34:
 # E:\Projects\Simulation_Projects\cva_cpp\tests\gtest_basic.cpp:59:     EXPECT_DOUBLE_EQ(call.value(110.0, 1.0), 10.0);
	.loc 24 59 6 is_stmt 1 discriminator 5
	leaq	-128(%rbp), %rax	 #, tmp121
	movq	%rax, %rcx	 # tmp121,
	call	_ZNK7testing15AssertionResultcvbEv	 #
 # E:\Projects\Simulation_Projects\cva_cpp\tests\gtest_basic.cpp:59:     EXPECT_DOUBLE_EQ(call.value(110.0, 1.0), 10.0);
	.loc 24 59 32 discriminator 6
	testb	%al, %al	 # retval.57_24
	jne	.L177	 #,
 # E:\Projects\Simulation_Projects\cva_cpp\tests\gtest_basic.cpp:59:     EXPECT_DOUBLE_EQ(call.value(110.0, 1.0), 10.0);
	.loc 24 59 217 discriminator 7
	leaq	-64(%rbp), %rax	 #, tmp122
	movq	%rax, %rcx	 # tmp122,
.LEHB35:
	call	_ZN7testing7MessageC1Ev	 #
.LEHE35:
 # E:\Projects\Simulation_Projects\cva_cpp\tests\gtest_basic.cpp:59:     EXPECT_DOUBLE_EQ(call.value(110.0, 1.0), 10.0);
	.loc 24 59 194 discriminator 10
	leaq	-128(%rbp), %rax	 #, tmp123
	movq	%rax, %rcx	 # tmp123,
	call	_ZNK7testing15AssertionResult15failure_messageEv	 #
	movq	%rax, %rdx	 #, _2
 # E:\Projects\Simulation_Projects\cva_cpp\tests\gtest_basic.cpp:59:     EXPECT_DOUBLE_EQ(call.value(110.0, 1.0), 10.0);
	.loc 24 59 194 is_stmt 0 discriminator 11
	leaq	.LC13(%rip), %rcx	 #, tmp124
	leaq	-56(%rbp), %rax	 #, tmp125
	movq	%rdx, 32(%rsp)	 # _2,
	movl	$59, %r9d	 #,
	movq	%rcx, %r8	 # tmp124,
	movl	$1, %edx	 #,
	movq	%rax, %rcx	 # tmp125,
.LEHB36:
	call	_ZN7testing8internal12AssertHelperC1ENS_14TestPartResult4TypeEPKciS5_	 #
.LEHE36:
 # E:\Projects\Simulation_Projects\cva_cpp\tests\gtest_basic.cpp:59:     EXPECT_DOUBLE_EQ(call.value(110.0, 1.0), 10.0);
	.loc 24 59 196 is_stmt 1 discriminator 14
	leaq	-64(%rbp), %rdx	 #, tmp126
	leaq	-56(%rbp), %rax	 #, tmp127
	movq	%rax, %rcx	 # tmp127,
.LEHB37:
	call	_ZNK7testing8internal12AssertHelperaSERKNS_7MessageE	 #
.LEHE37:
 # E:\Projects\Simulation_Projects\cva_cpp\tests\gtest_basic.cpp:59:     EXPECT_DOUBLE_EQ(call.value(110.0, 1.0), 10.0);
	.loc 24 59 36 discriminator 17
	leaq	-56(%rbp), %rax	 #, tmp128
	movq	%rax, %rcx	 # tmp128,
	call	_ZN7testing8internal12AssertHelperD1Ev	 #
 # E:\Projects\Simulation_Projects\cva_cpp\tests\gtest_basic.cpp:59:     EXPECT_DOUBLE_EQ(call.value(110.0, 1.0), 10.0);
	.loc 24 59 209 discriminator 18
	leaq	-64(%rbp), %rax	 #, tmp129
	movq	%rax, %rcx	 # tmp129,
	call	_ZN7testing7MessageD1Ev	 #
.L177:
 # E:\Projects\Simulation_Projects\cva_cpp\tests\gtest_basic.cpp:59:     EXPECT_DOUBLE_EQ(call.value(110.0, 1.0), 10.0);
	.loc 24 59 50 discriminator 20
	leaq	-128(%rbp), %rax	 #, tmp130
	movq	%rax, %rcx	 # tmp130,
	call	_ZN7testing15AssertionResultD1Ev	 #
.LBE386:
.LBE385:
.LBE384:
.LBB389:
.LBB390:
.LBB391:
 # E:\Projects\Simulation_Projects\cva_cpp\tests\gtest_basic.cpp:60:     EXPECT_DOUBLE_EQ(call.value(90.0, 1.0), 0.0);
	.loc 24 60 5 discriminator 1
	movsd	.LC7(%rip), %xmm1	 #, tmp131
	movsd	.LC33(%rip), %xmm0	 #, tmp132
	leaq	-112(%rbp), %rax	 #, tmp133
	movapd	%xmm1, %xmm2	 # tmp131,
	movapd	%xmm0, %xmm1	 # tmp132,
	movq	%rax, %rcx	 # tmp133,
	call	_ZNK3cva11instruments14EuropeanOption5valueEdd	 #
	movq	%xmm0, %rcx	 #, _3
 # E:\Projects\Simulation_Projects\cva_cpp\tests\gtest_basic.cpp:60:     EXPECT_DOUBLE_EQ(call.value(90.0, 1.0), 0.0);
	.loc 24 60 5 is_stmt 0 discriminator 3
	leaq	-144(%rbp), %rax	 #, tmp134
	leaq	.LC34(%rip), %r8	 #, tmp135
	leaq	.LC35(%rip), %rdx	 #, tmp136
	pxor	%xmm0, %xmm0	 # tmp137
	movsd	%xmm0, 32(%rsp)	 # tmp137,
	movq	%rcx, %xmm3	 # _3,
	movq	%rax, %rcx	 # tmp134,
.LEHB38:
	call	_ZN7testing8internal24CmpHelperFloatingPointEQIdEENS_15AssertionResultEPKcS4_T_S5_	 #
.LEHE38:
 # E:\Projects\Simulation_Projects\cva_cpp\tests\gtest_basic.cpp:60:     EXPECT_DOUBLE_EQ(call.value(90.0, 1.0), 0.0);
	.loc 24 60 6 is_stmt 1 discriminator 5
	leaq	-144(%rbp), %rax	 #, tmp138
	movq	%rax, %rcx	 # tmp138,
	call	_ZNK7testing15AssertionResultcvbEv	 #
 # E:\Projects\Simulation_Projects\cva_cpp\tests\gtest_basic.cpp:60:     EXPECT_DOUBLE_EQ(call.value(90.0, 1.0), 0.0);
	.loc 24 60 32 discriminator 6
	testb	%al, %al	 # retval.58_44
	jne	.L178	 #,
 # E:\Projects\Simulation_Projects\cva_cpp\tests\gtest_basic.cpp:60:     EXPECT_DOUBLE_EQ(call.value(90.0, 1.0), 0.0);
	.loc 24 60 217 discriminator 7
	leaq	-48(%rbp), %rax	 #, tmp139
	movq	%rax, %rcx	 # tmp139,
.LEHB39:
	call	_ZN7testing7MessageC1Ev	 #
.LEHE39:
 # E:\Projects\Simulation_Projects\cva_cpp\tests\gtest_basic.cpp:60:     EXPECT_DOUBLE_EQ(call.value(90.0, 1.0), 0.0);
	.loc 24 60 194 discriminator 10
	leaq	-144(%rbp), %rax	 #, tmp140
	movq	%rax, %rcx	 # tmp140,
	call	_ZNK7testing15AssertionResult15failure_messageEv	 #
	movq	%rax, %rdx	 #, _4
 # E:\Projects\Simulation_Projects\cva_cpp\tests\gtest_basic.cpp:60:     EXPECT_DOUBLE_EQ(call.value(90.0, 1.0), 0.0);
	.loc 24 60 194 is_stmt 0 discriminator 11
	leaq	.LC13(%rip), %rcx	 #, tmp141
	leaq	-40(%rbp), %rax	 #, tmp142
	movq	%rdx, 32(%rsp)	 # _4,
	movl	$60, %r9d	 #,
	movq	%rcx, %r8	 # tmp141,
	movl	$1, %edx	 #,
	movq	%rax, %rcx	 # tmp142,
.LEHB40:
	call	_ZN7testing8internal12AssertHelperC1ENS_14TestPartResult4TypeEPKciS5_	 #
.LEHE40:
 # E:\Projects\Simulation_Projects\cva_cpp\tests\gtest_basic.cpp:60:     EXPECT_DOUBLE_EQ(call.value(90.0, 1.0), 0.0);
	.loc 24 60 196 is_stmt 1 discriminator 14
	leaq	-48(%rbp), %rdx	 #, tmp143
	leaq	-40(%rbp), %rax	 #, tmp144
	movq	%rax, %rcx	 # tmp144,
.LEHB41:
	call	_ZNK7testing8internal12AssertHelperaSERKNS_7MessageE	 #
.LEHE41:
 # E:\Projects\Simulation_Projects\cva_cpp\tests\gtest_basic.cpp:60:     EXPECT_DOUBLE_EQ(call.value(90.0, 1.0), 0.0);
	.loc 24 60 36 discriminator 17
	leaq	-40(%rbp), %rax	 #, tmp145
	movq	%rax, %rcx	 # tmp145,
	call	_ZN7testing8internal12AssertHelperD1Ev	 #
 # E:\Projects\Simulation_Projects\cva_cpp\tests\gtest_basic.cpp:60:     EXPECT_DOUBLE_EQ(call.value(90.0, 1.0), 0.0);
	.loc 24 60 209 discriminator 18
	leaq	-48(%rbp), %rax	 #, tmp146
	movq	%rax, %rcx	 # tmp146,
	call	_ZN7testing7MessageD1Ev	 #
.L178:
 # E:\Projects\Simulation_Projects\cva_cpp\tests\gtest_basic.cpp:60:     EXPECT_DOUBLE_EQ(call.value(90.0, 1.0), 0.0);
	.loc 24 60 48 discriminator 20
	leaq	-144(%rbp), %rax	 #, tmp147
	movq	%rax, %rcx	 # tmp147,
	call	_ZN7testing15AssertionResultD1Ev	 #
.LBE391:
.LBE390:
.LBE389:
 # E:\Projects\Simulation_Projects\cva_cpp\tests\gtest_basic.cpp:61: }
	.loc 24 61 1
	leaq	-112(%rbp), %rax	 #, tmp148
	movq	%rax, %rcx	 # tmp148,
	call	_ZN3cva11instruments14EuropeanOptionD1Ev	 #
	jmp	.L193	 #
.L188:
.LBB394:
.LBB388:
.LBB387:
 # E:\Projects\Simulation_Projects\cva_cpp\tests\gtest_basic.cpp:59:     EXPECT_DOUBLE_EQ(call.value(110.0, 1.0), 10.0);
	.loc 24 59 36 discriminator 16
	movq	%rax, %rbx	 #, tmp151
	leaq	-56(%rbp), %rax	 #, tmp149
	movq	%rax, %rcx	 # tmp149,
	call	_ZN7testing8internal12AssertHelperD1Ev	 #
	jmp	.L180	 #
.L187:
 # E:\Projects\Simulation_Projects\cva_cpp\tests\gtest_basic.cpp:59:     EXPECT_DOUBLE_EQ(call.value(110.0, 1.0), 10.0);
	.loc 24 59 209
	movq	%rax, %rbx	 #, tmp150
.L180:
	leaq	-64(%rbp), %rax	 #, tmp154
	movq	%rax, %rcx	 # tmp154,
	call	_ZN7testing7MessageD1Ev	 #
	jmp	.L181	 #
.L186:
 # E:\Projects\Simulation_Projects\cva_cpp\tests\gtest_basic.cpp:59:     EXPECT_DOUBLE_EQ(call.value(110.0, 1.0), 10.0);
	.loc 24 59 50
	movq	%rax, %rbx	 #, tmp155
.L181:
	leaq	-128(%rbp), %rax	 #, tmp157
	movq	%rax, %rcx	 # tmp157,
	call	_ZN7testing15AssertionResultD1Ev	 #
	jmp	.L182	 #
.L192:
.LBE387:
.LBE388:
.LBE394:
.LBB395:
.LBB393:
.LBB392:
 # E:\Projects\Simulation_Projects\cva_cpp\tests\gtest_basic.cpp:60:     EXPECT_DOUBLE_EQ(call.value(90.0, 1.0), 0.0);
	.loc 24 60 36 discriminator 16
	movq	%rax, %rbx	 #, tmp162
	leaq	-40(%rbp), %rax	 #, tmp160
	movq	%rax, %rcx	 # tmp160,
	call	_ZN7testing8internal12AssertHelperD1Ev	 #
	jmp	.L184	 #
.L191:
 # E:\Projects\Simulation_Projects\cva_cpp\tests\gtest_basic.cpp:60:     EXPECT_DOUBLE_EQ(call.value(90.0, 1.0), 0.0);
	.loc 24 60 209
	movq	%rax, %rbx	 #, tmp161
.L184:
	leaq	-48(%rbp), %rax	 #, tmp165
	movq	%rax, %rcx	 # tmp165,
	call	_ZN7testing7MessageD1Ev	 #
	jmp	.L185	 #
.L190:
 # E:\Projects\Simulation_Projects\cva_cpp\tests\gtest_basic.cpp:60:     EXPECT_DOUBLE_EQ(call.value(90.0, 1.0), 0.0);
	.loc 24 60 48
	movq	%rax, %rbx	 #, tmp166
.L185:
	leaq	-144(%rbp), %rax	 #, tmp168
	movq	%rax, %rcx	 # tmp168,
	call	_ZN7testing15AssertionResultD1Ev	 #
	jmp	.L182	 #
.L189:
.LBE392:
.LBE393:
.LBE395:
 # E:\Projects\Simulation_Projects\cva_cpp\tests\gtest_basic.cpp:61: }
	.loc 24 61 1
	movq	%rax, %rbx	 #, tmp158
.L182:
	leaq	-112(%rbp), %rax	 #, tmp169
	movq	%rax, %rcx	 # tmp169,
	call	_ZN3cva11instruments14EuropeanOptionD1Ev	 #
	movq	%rbx, %rax	 # tmp158, D.248493
	movq	%rax, %rcx	 # D.248493,
.LEHB42:
	call	_Unwind_Resume	 #
	nop	
.LEHE42:
.L193:
	addq	$200, %rsp	 #,
	popq	%rbx	 #
	.cfi_restore 3
	popq	%rbp	 #
	.cfi_restore 6
	.cfi_def_cfa 7, -184
	ret	
	.cfi_endproc
.LFE9396:
	.seh_handler	__gxx_personality_seh0, @unwind, @except
	.seh_handlerdata
.LLSDA9396:
	.byte	0xff
	.byte	0xff
	.byte	0x1
	.uleb128 .LLSDACSE9396-.LLSDACSB9396
.LLSDACSB9396:
	.uleb128 .LEHB34-.LFB9396
	.uleb128 .LEHE34-.LEHB34
	.uleb128 .L189-.LFB9396
	.uleb128 0
	.uleb128 .LEHB35-.LFB9396
	.uleb128 .LEHE35-.LEHB35
	.uleb128 .L186-.LFB9396
	.uleb128 0
	.uleb128 .LEHB36-.LFB9396
	.uleb128 .LEHE36-.LEHB36
	.uleb128 .L187-.LFB9396
	.uleb128 0
	.uleb128 .LEHB37-.LFB9396
	.uleb128 .LEHE37-.LEHB37
	.uleb128 .L188-.LFB9396
	.uleb128 0
	.uleb128 .LEHB38-.LFB9396
	.uleb128 .LEHE38-.LEHB38
	.uleb128 .L189-.LFB9396
	.uleb128 0
	.uleb128 .LEHB39-.LFB9396
	.uleb128 .LEHE39-.LEHB39
	.uleb128 .L190-.LFB9396
	.uleb128 0
	.uleb128 .LEHB40-.LFB9396
	.uleb128 .LEHE40-.LEHB40
	.uleb128 .L191-.LFB9396
	.uleb128 0
	.uleb128 .LEHB41-.LFB9396
	.uleb128 .LEHE41-.LEHB41
	.uleb128 .L192-.LFB9396
	.uleb128 0
	.uleb128 .LEHB42-.LFB9396
	.uleb128 .LEHE42-.LEHB42
	.uleb128 0
	.uleb128 0
.LLSDACSE9396:
	.text
	.seh_endproc
	.section	.text$_ZSt3maxIdERKT_S2_S2_,"x"
	.linkonce discard
	.globl	_ZSt3maxIdERKT_S2_S2_
	.def	_ZSt3maxIdERKT_S2_S2_;	.scl	2;	.type	32;	.endef
	.seh_proc	_ZSt3maxIdERKT_S2_S2_
_ZSt3maxIdERKT_S2_S2_:
.LFB9452:
	.loc 20 258 5
	.cfi_startproc
	pushq	%rbp	 #
	.seh_pushreg	%rbp
	.cfi_def_cfa_offset 16
	.cfi_offset 6, -16
	movq	%rsp, %rbp	 #,
	.seh_setframe	%rbp, 0
	.cfi_def_cfa_register 6
	.seh_endprologue
	movq	%rcx, 16(%rbp)	 # __a, __a
	movq	%rdx, 24(%rbp)	 # __b, __b
 # D:/msys64/ucrt64/include/c++/15.2.0/bits/stl_algobase.h:263:       if (__a < __b)
	.loc 20 263 15
	movq	16(%rbp), %rax	 # __a, tmp102
	movsd	(%rax), %xmm1	 # *__a_5(D), _1
	movq	24(%rbp), %rax	 # __b, tmp103
	movsd	(%rax), %xmm0	 # *__b_6(D), _2
 # D:/msys64/ucrt64/include/c++/15.2.0/bits/stl_algobase.h:263:       if (__a < __b)
	.loc 20 263 7
	comisd	%xmm1, %xmm0	 # _1, _2
	jbe	.L199	 #,
 # D:/msys64/ucrt64/include/c++/15.2.0/bits/stl_algobase.h:264: 	return __b;
	.loc 20 264 9
	movq	24(%rbp), %rax	 # __b, _3
	jmp	.L197	 #
.L199:
 # D:/msys64/ucrt64/include/c++/15.2.0/bits/stl_algobase.h:265:       return __a;
	.loc 20 265 14
	movq	16(%rbp), %rax	 # __a, _3
.L197:
 # D:/msys64/ucrt64/include/c++/15.2.0/bits/stl_algobase.h:266:     }
	.loc 20 266 5
	popq	%rbp	 #
	.cfi_restore 6
	.cfi_def_cfa 7, 8
	ret	
	.cfi_endproc
.LFE9452:
	.seh_endproc
	.section	.text$_ZSt12construct_atIcJRKcEQaant20is_unbounded_array_vIT_ErqXgsnwcvPvLi0E_S2_pispcl7declvalIT0_EEEEEPS2_S5_DpOS4_,"x"
	.linkonce discard
	.globl	_ZSt12construct_atIcJRKcEQaant20is_unbounded_array_vIT_ErqXgsnwcvPvLi0E_S2_pispcl7declvalIT0_EEEEEPS2_S5_DpOS4_
	.def	_ZSt12construct_atIcJRKcEQaant20is_unbounded_array_vIT_ErqXgsnwcvPvLi0E_S2_pispcl7declvalIT0_EEEEEPS2_S5_DpOS4_;	.scl	2;	.type	32;	.endef
	.seh_proc	_ZSt12construct_atIcJRKcEQaant20is_unbounded_array_vIT_ErqXgsnwcvPvLi0E_S2_pispcl7declvalIT0_EEEEEPS2_S5_DpOS4_
_ZSt12construct_atIcJRKcEQaant20is_unbounded_array_vIT_ErqXgsnwcvPvLi0E_S2_pispcl7declvalIT0_EEEEEPS2_S5_DpOS4_:
.LFB9455:
	.file 25 "D:/msys64/ucrt64/include/c++/15.2.0/bits/stl_construct.h"
	.loc 25 96 5
	.cfi_startproc
	pushq	%rbp	 #
	.seh_pushreg	%rbp
	.cfi_def_cfa_offset 16
	.cfi_offset 6, -16
	pushq	%rsi	 #
	.seh_pushreg	%rsi
	.cfi_def_cfa_offset 24
	.cfi_offset 4, -24
	pushq	%rbx	 #
	.seh_pushreg	%rbx
	.cfi_def_cfa_offset 32
	.cfi_offset 3, -32
	subq	$48, %rsp	 #,
	.seh_stackalloc	48
	.cfi_def_cfa_offset 80
	leaq	48(%rsp), %rbp	 #,
	.seh_setframe	%rbp, 48
	.cfi_def_cfa 6, 32
	.seh_endprologue
	movq	%rcx, 32(%rbp)	 # __location, __location
	movq	%rdx, 40(%rbp)	 # __args#0, __args#0
 # D:/msys64/ucrt64/include/c++/15.2.0/bits/stl_construct.h:99:       void* __loc = __location;
	.loc 25 99 13
	movq	32(%rbp), %rax	 # __location, tmp105
	movq	%rax, -8(%rbp)	 # tmp105, __loc
 # D:/msys64/ucrt64/include/c++/15.2.0/bits/stl_construct.h:110: 	return ::new(__loc) _Tp(std::forward<_Args>(__args)...);
	.loc 25 110 15
	movq	-8(%rbp), %rsi	 # __loc, _6
 # D:/msys64/ucrt64/include/c++/15.2.0/bits/stl_construct.h:110: 	return ::new(__loc) _Tp(std::forward<_Args>(__args)...);
	.loc 25 110 9
	movq	%rsi, %rdx	 # _6,
	movl	$1, %ecx	 #,
	call	_ZnwyPv	 #
	movq	%rax, %rbx	 #, _9
	movq	40(%rbp), %rax	 # __args#0, tmp106
	movq	%rax, -16(%rbp)	 # tmp106, __t
.LBB396:
.LBB397:
 # D:/msys64/ucrt64/include/c++/15.2.0/bits/move.h:73:     { return static_cast<_Tp&&>(__t); }
	.loc 12 73 36
	movq	-16(%rbp), %rax	 # __t, D.248172
.LBE397:
.LBE396:
 # D:/msys64/ucrt64/include/c++/15.2.0/bits/stl_construct.h:110: 	return ::new(__loc) _Tp(std::forward<_Args>(__args)...);
	.loc 25 110 9 discriminator 2
	movzbl	(%rax), %eax	 # *_1, _2
	movb	%al, (%rbx)	 # _2, MEM[(char *)_9]
 # D:/msys64/ucrt64/include/c++/15.2.0/bits/stl_construct.h:110: 	return ::new(__loc) _Tp(std::forward<_Args>(__args)...);
	.loc 25 110 56 discriminator 2
	movl	$0, %eax	 #, _13
 # D:/msys64/ucrt64/include/c++/15.2.0/bits/stl_construct.h:110: 	return ::new(__loc) _Tp(std::forward<_Args>(__args)...);
	.loc 25 110 56 is_stmt 0 discriminator 3
	testb	%al, %al	 # _13
	je	.L203	 #,
 # D:/msys64/ucrt64/include/c++/15.2.0/bits/stl_construct.h:110: 	return ::new(__loc) _Tp(std::forward<_Args>(__args)...);
	.loc 25 110 9 is_stmt 1 discriminator 4
	movq	%rsi, %rdx	 # _6,
	movq	%rbx, %rcx	 # _9,
	call	_ZdlPvS_	 #
.L203:
 # D:/msys64/ucrt64/include/c++/15.2.0/bits/stl_construct.h:110: 	return ::new(__loc) _Tp(std::forward<_Args>(__args)...);
	.loc 25 110 56 discriminator 8
	movq	%rbx, %rax	 # _9, <retval>
 # D:/msys64/ucrt64/include/c++/15.2.0/bits/stl_construct.h:111:     }
	.loc 25 111 5
	addq	$48, %rsp	 #,
	popq	%rbx	 #
	.cfi_restore 3
	popq	%rsi	 #
	.cfi_restore 4
	popq	%rbp	 #
	.cfi_restore 6
	.cfi_def_cfa 7, -24
	ret	
	.cfi_endproc
.LFE9455:
	.seh_endproc
	.weak	_ZSt12construct_atIcJRKcEEPT_S3_DpOT0_
	.def	_ZSt12construct_atIcJRKcEEPT_S3_DpOT0_;	.scl	2;	.type	32;	.endef
	.set	_ZSt12construct_atIcJRKcEEPT_S3_DpOT0_,_ZSt12construct_atIcJRKcEQaant20is_unbounded_array_vIT_ErqXgsnwcvPvLi0E_S2_pispcl7declvalIT0_EEEEEPS2_S5_DpOS4_
	.section	.text$_ZN9__gnu_cxx11char_traitsIcE6lengthEPKc,"x"
	.linkonce discard
	.align 2
	.globl	_ZN9__gnu_cxx11char_traitsIcE6lengthEPKc
	.def	_ZN9__gnu_cxx11char_traitsIcE6lengthEPKc;	.scl	2;	.type	32;	.endef
	.seh_proc	_ZN9__gnu_cxx11char_traitsIcE6lengthEPKc
_ZN9__gnu_cxx11char_traitsIcE6lengthEPKc:
.LFB9456:
	.loc 6 201 5
	.cfi_startproc
	pushq	%rbp	 #
	.seh_pushreg	%rbp
	.cfi_def_cfa_offset 16
	.cfi_offset 6, -16
	movq	%rsp, %rbp	 #,
	.seh_setframe	%rbp, 0
	.cfi_def_cfa_register 6
	subq	$48, %rsp	 #,
	.seh_stackalloc	48
	.seh_endprologue
	movq	%rcx, 16(%rbp)	 # __p, __p
 # D:/msys64/ucrt64/include/c++/15.2.0/bits/char_traits.h:204:       std::size_t __i = 0;
	.loc 6 204 19
	movq	$0, -8(%rbp)	 #, __i
 # D:/msys64/ucrt64/include/c++/15.2.0/bits/char_traits.h:205:       while (!eq(__p[__i], char_type()))
	.loc 6 205 7
	jmp	.L205	 #
.L206:
 # D:/msys64/ucrt64/include/c++/15.2.0/bits/char_traits.h:206:         ++__i;
	.loc 6 206 9
	addq	$1, -8(%rbp)	 #, __i
.L205:
 # D:/msys64/ucrt64/include/c++/15.2.0/bits/char_traits.h:205:       while (!eq(__p[__i], char_type()))
	.loc 6 205 17
	movb	$0, -9(%rbp)	 #, D.201412
 # D:/msys64/ucrt64/include/c++/15.2.0/bits/char_traits.h:205:       while (!eq(__p[__i], char_type()))
	.loc 6 205 21
	movq	16(%rbp), %rdx	 # __p, tmp103
	movq	-8(%rbp), %rax	 # __i, tmp104
	leaq	(%rdx,%rax), %rcx	 #, _1
 # D:/msys64/ucrt64/include/c++/15.2.0/bits/char_traits.h:205:       while (!eq(__p[__i], char_type()))
	.loc 6 205 17
	leaq	-9(%rbp), %rax	 #, tmp105
	movq	%rax, %rdx	 # tmp105,
	call	_ZN9__gnu_cxx11char_traitsIcE2eqERKcS3_	 #
 # D:/msys64/ucrt64/include/c++/15.2.0/bits/char_traits.h:205:       while (!eq(__p[__i], char_type()))
	.loc 6 205 17 is_stmt 0 discriminator 1
	xorl	$1, %eax	 #, retval.40_10
	testb	%al, %al	 # retval.40_10
	jne	.L206	 #,
 # D:/msys64/ucrt64/include/c++/15.2.0/bits/char_traits.h:207:       return __i;
	.loc 6 207 14 is_stmt 1
	movq	-8(%rbp), %rax	 # __i, _12
 # D:/msys64/ucrt64/include/c++/15.2.0/bits/char_traits.h:208:     }
	.loc 6 208 5
	addq	$48, %rsp	 #,
	popq	%rbp	 #
	.cfi_restore 6
	.cfi_def_cfa 7, 8
	ret	
	.cfi_endproc
.LFE9456:
	.seh_endproc
	.section	.text$_ZN9__gnu_cxx11char_traitsIcE4copyEPcPKcy,"x"
	.linkonce discard
	.align 2
	.globl	_ZN9__gnu_cxx11char_traitsIcE4copyEPcPKcy
	.def	_ZN9__gnu_cxx11char_traitsIcE4copyEPcPKcy;	.scl	2;	.type	32;	.endef
	.seh_proc	_ZN9__gnu_cxx11char_traitsIcE4copyEPcPKcy
_ZN9__gnu_cxx11char_traitsIcE4copyEPcPKcy:
.LFB9459:
	.loc 6 255 5
	.cfi_startproc
	pushq	%rbp	 #
	.seh_pushreg	%rbp
	.cfi_def_cfa_offset 16
	.cfi_offset 6, -16
	movq	%rsp, %rbp	 #,
	.seh_setframe	%rbp, 0
	.cfi_def_cfa_register 6
	subq	$48, %rsp	 #,
	.seh_stackalloc	48
	.seh_endprologue
	movq	%rcx, 16(%rbp)	 # __s1, __s1
	movq	%rdx, 24(%rbp)	 # __s2, __s2
	movq	%r8, 32(%rbp)	 # __n, __n
 # D:/msys64/ucrt64/include/c++/15.2.0/bits/char_traits.h:258:       if (__n == 0)
	.loc 6 258 7
	cmpq	$0, 32(%rbp)	 #, __n
	jne	.L209	 #,
 # D:/msys64/ucrt64/include/c++/15.2.0/bits/char_traits.h:259: 	return __s1;
	.loc 6 259 9
	movq	16(%rbp), %rax	 # __s1, _4
	jmp	.L210	 #
.L209:
.LBB398:
.LBB399:
.LBB400:
 # D:/msys64/ucrt64/include/c++/15.2.0/x86_64-w64-mingw32/bits/c++config.h:589:     return __builtin_is_constant_evaluated();
	.loc 7 589 44
	movl	$0, %eax	 #, D.248178
.LBE400:
.LBE399:
 # D:/msys64/ucrt64/include/c++/15.2.0/bits/char_traits.h:261:       if (std::__is_constant_evaluated())
	.loc 6 261 7 discriminator 1
	testb	%al, %al	 # D.248178
	je	.L212	 #,
.LBB401:
.LBB402:
 # D:/msys64/ucrt64/include/c++/15.2.0/bits/char_traits.h:263: 	  for (std::size_t __i = 0; __i < __n; ++__i)
	.loc 6 263 21
	movq	$0, -8(%rbp)	 #, __i
 # D:/msys64/ucrt64/include/c++/15.2.0/bits/char_traits.h:263: 	  for (std::size_t __i = 0; __i < __n; ++__i)
	.loc 6 263 4
	jmp	.L213	 #
.L214:
 # D:/msys64/ucrt64/include/c++/15.2.0/bits/char_traits.h:264: 	    std::construct_at(__s1 + __i, __s2[__i]);
	.loc 6 264 40
	movq	24(%rbp), %rdx	 # __s2, tmp103
	movq	-8(%rbp), %rax	 # __i, tmp104
	addq	%rax, %rdx	 # tmp104, _1
 # D:/msys64/ucrt64/include/c++/15.2.0/bits/char_traits.h:264: 	    std::construct_at(__s1 + __i, __s2[__i]);
	.loc 6 264 23
	movq	16(%rbp), %rcx	 # __s1, tmp105
	movq	-8(%rbp), %rax	 # __i, tmp106
	addq	%rcx, %rax	 # tmp105, _2
	movq	%rax, %rcx	 # _2,
	call	_ZSt12construct_atIcJRKcEQaant20is_unbounded_array_vIT_ErqXgsnwcvPvLi0E_S2_pispcl7declvalIT0_EEEEEPS2_S5_DpOS4_	 #
 # D:/msys64/ucrt64/include/c++/15.2.0/bits/char_traits.h:263: 	  for (std::size_t __i = 0; __i < __n; ++__i)
	.loc 6 263 4 discriminator 3
	addq	$1, -8(%rbp)	 #, __i
.L213:
 # D:/msys64/ucrt64/include/c++/15.2.0/bits/char_traits.h:263: 	  for (std::size_t __i = 0; __i < __n; ++__i)
	.loc 6 263 34 discriminator 1
	movq	-8(%rbp), %rax	 # __i, tmp107
	cmpq	32(%rbp), %rax	 # __n, tmp107
	jb	.L214	 #,
.LBE402:
 # D:/msys64/ucrt64/include/c++/15.2.0/bits/char_traits.h:265: 	  return __s1;
	.loc 6 265 11
	movq	16(%rbp), %rax	 # __s1, _4
	jmp	.L210	 #
.L212:
.LBE401:
.LBE398:
 # D:/msys64/ucrt64/include/c++/15.2.0/bits/char_traits.h:268:       __builtin_memcpy(__s1, __s2, __n * sizeof(char_type));
	.loc 6 268 23
	movq	16(%rbp), %rdx	 # __s1, tmp108
	movq	24(%rbp), %rax	 # __s2, tmp109
	movq	%rdx, %rcx	 # tmp108, tmp111
	movq	%rax, %rdx	 # tmp109, tmp112
	movq	32(%rbp), %rax	 # __n, tmp113
	movq	%rax, %r8	 # tmp113,
	call	memcpy	 #
 # D:/msys64/ucrt64/include/c++/15.2.0/bits/char_traits.h:269:       return __s1;
	.loc 6 269 14
	movq	16(%rbp), %rax	 # __s1, _4
.L210:
 # D:/msys64/ucrt64/include/c++/15.2.0/bits/char_traits.h:270:     }
	.loc 6 270 5
	addq	$48, %rsp	 #,
	popq	%rbp	 #
	.cfi_restore 6
	.cfi_def_cfa 7, 8
	ret	
	.cfi_endproc
.LFE9459:
	.seh_endproc
	.section	.text$_ZNKSt7__cxx1112basic_stringIcSt11char_traitsIcESaIcEE5c_strEv,"x"
	.linkonce discard
	.align 2
	.globl	_ZNKSt7__cxx1112basic_stringIcSt11char_traitsIcESaIcEE5c_strEv
	.def	_ZNKSt7__cxx1112basic_stringIcSt11char_traitsIcESaIcEE5c_strEv;	.scl	2;	.type	32;	.endef
	.seh_proc	_ZNKSt7__cxx1112basic_stringIcSt11char_traitsIcESaIcEE5c_strEv
_ZNKSt7__cxx1112basic_stringIcSt11char_traitsIcESaIcEE5c_strEv:
.LFB9506:
	.loc 8 2873 7
	.cfi_startproc
	pushq	%rbp	 #
	.seh_pushreg	%rbp
	.cfi_def_cfa_offset 16
	.cfi_offset 6, -16
	movq	%rsp, %rbp	 #,
	.seh_setframe	%rbp, 0
	.cfi_def_cfa_register 6
	subq	$32, %rsp	 #,
	.seh_stackalloc	32
	.seh_endprologue
	movq	%rcx, 16(%rbp)	 # this, this
 # D:/msys64/ucrt64/include/c++/15.2.0/bits/basic_string.h:2874:       { return _M_data(); }
	.loc 8 2874 23
	movq	16(%rbp), %rax	 # this, tmp100
	movq	%rax, %rcx	 # tmp100,
	call	_ZNKSt7__cxx1112basic_stringIcSt11char_traitsIcESaIcEE7_M_dataEv	 #
 # D:/msys64/ucrt64/include/c++/15.2.0/bits/basic_string.h:2874:       { return _M_data(); }
	.loc 8 2874 27
	addq	$32, %rsp	 #,
	popq	%rbp	 #
	.cfi_restore 6
	.cfi_def_cfa 7, 8
	ret	
	.cfi_endproc
.LFE9506:
	.seh_endproc
	.section	.text$_ZNSt7__cxx1112basic_stringIcSt11char_traitsIcESaIcEE13_M_set_lengthEy,"x"
	.linkonce discard
	.align 2
	.globl	_ZNSt7__cxx1112basic_stringIcSt11char_traitsIcESaIcEE13_M_set_lengthEy
	.def	_ZNSt7__cxx1112basic_stringIcSt11char_traitsIcESaIcEE13_M_set_lengthEy;	.scl	2;	.type	32;	.endef
	.seh_proc	_ZNSt7__cxx1112basic_stringIcSt11char_traitsIcESaIcEE13_M_set_lengthEy
_ZNSt7__cxx1112basic_stringIcSt11char_traitsIcESaIcEE13_M_set_lengthEy:
.LFB9579:
	.loc 8 270 7
	.cfi_startproc
	pushq	%rbp	 #
	.seh_pushreg	%rbp
	.cfi_def_cfa_offset 16
	.cfi_offset 6, -16
	movq	%rsp, %rbp	 #,
	.seh_setframe	%rbp, 0
	.cfi_def_cfa_register 6
	subq	$48, %rsp	 #,
	.seh_stackalloc	48
	.seh_endprologue
	movq	%rcx, 16(%rbp)	 # this, this
	movq	%rdx, 24(%rbp)	 # __n, __n
 # D:/msys64/ucrt64/include/c++/15.2.0/bits/basic_string.h:272: 	_M_length(__n);
	.loc 8 272 11
	movq	24(%rbp), %rdx	 # __n, tmp100
	movq	16(%rbp), %rax	 # this, tmp101
	movq	%rax, %rcx	 # tmp101,
	call	_ZNSt7__cxx1112basic_stringIcSt11char_traitsIcESaIcEE9_M_lengthEy	 #
 # D:/msys64/ucrt64/include/c++/15.2.0/bits/basic_string.h:273: 	traits_type::assign(_M_data()[__n], _CharT());
	.loc 8 273 21
	movb	$0, -1(%rbp)	 #, D.202471
 # D:/msys64/ucrt64/include/c++/15.2.0/bits/basic_string.h:273: 	traits_type::assign(_M_data()[__n], _CharT());
	.loc 8 273 29
	movq	16(%rbp), %rax	 # this, tmp102
	movq	%rax, %rcx	 # tmp102,
	call	_ZNKSt7__cxx1112basic_stringIcSt11char_traitsIcESaIcEE7_M_dataEv	 #
 # D:/msys64/ucrt64/include/c++/15.2.0/bits/basic_string.h:273: 	traits_type::assign(_M_data()[__n], _CharT());
	.loc 8 273 31 discriminator 1
	movq	24(%rbp), %rdx	 # __n, tmp103
	leaq	(%rax,%rdx), %rcx	 #, _2
 # D:/msys64/ucrt64/include/c++/15.2.0/bits/basic_string.h:273: 	traits_type::assign(_M_data()[__n], _CharT());
	.loc 8 273 21 discriminator 1
	leaq	-1(%rbp), %rax	 #, tmp104
	movq	%rax, %rdx	 # tmp104,
	call	_ZNSt11char_traitsIcE6assignERcRKc	 #
 # D:/msys64/ucrt64/include/c++/15.2.0/bits/basic_string.h:274:       }
	.loc 8 274 7
	nop	
	addq	$48, %rsp	 #,
	popq	%rbp	 #
	.cfi_restore 6
	.cfi_def_cfa 7, 8
	ret	
	.cfi_endproc
.LFE9579:
	.seh_endproc
	.section	.text$_ZNSt7__cxx1112basic_stringIcSt11char_traitsIcESaIcEED1Ev,"x"
	.linkonce discard
	.align 2
	.globl	_ZNSt7__cxx1112basic_stringIcSt11char_traitsIcESaIcEED1Ev
	.def	_ZNSt7__cxx1112basic_stringIcSt11char_traitsIcESaIcEED1Ev;	.scl	2;	.type	32;	.endef
	.seh_proc	_ZNSt7__cxx1112basic_stringIcSt11char_traitsIcESaIcEED1Ev
_ZNSt7__cxx1112basic_stringIcSt11char_traitsIcESaIcEED1Ev:
.LFB9582:
	.loc 8 895 7
	.cfi_startproc
	pushq	%rbp	 #
	.seh_pushreg	%rbp
	.cfi_def_cfa_offset 16
	.cfi_offset 6, -16
	movq	%rsp, %rbp	 #,
	.seh_setframe	%rbp, 0
	.cfi_def_cfa_register 6
	subq	$32, %rsp	 #,
	.seh_stackalloc	32
	.seh_endprologue
	movq	%rcx, 16(%rbp)	 # this, this
.LBB403:
 # D:/msys64/ucrt64/include/c++/15.2.0/bits/basic_string.h:896:       { _M_dispose(); }
	.loc 8 896 19
	movq	16(%rbp), %rax	 # this, tmp99
	movq	%rax, %rcx	 # tmp99,
	call	_ZNSt7__cxx1112basic_stringIcSt11char_traitsIcESaIcEE10_M_disposeEv	 #
 # D:/msys64/ucrt64/include/c++/15.2.0/bits/basic_string.h:896:       { _M_dispose(); }
	.loc 8 896 23 discriminator 1
	movq	16(%rbp), %rax	 # this, _1
	movq	%rax, %rcx	 # _1,
	call	_ZNSt7__cxx1112basic_stringIcSt11char_traitsIcESaIcEE12_Alloc_hiderD1Ev	 #
.LBE403:
 # D:/msys64/ucrt64/include/c++/15.2.0/bits/basic_string.h:896:       { _M_dispose(); }
	.loc 8 896 23 is_stmt 0
	nop	
	addq	$32, %rsp	 #,
	popq	%rbp	 #
	.cfi_restore 6
	.cfi_def_cfa 7, 8
	ret	
	.cfi_endproc
.LFE9582:
	.seh_handler	__gxx_personality_seh0, @unwind, @except
	.seh_handlerdata
.LLSDA9582:
	.byte	0xff
	.byte	0xff
	.byte	0x1
	.uleb128 .LLSDACSE9582-.LLSDACSB9582
.LLSDACSB9582:
.LLSDACSE9582:
	.section	.text$_ZNSt7__cxx1112basic_stringIcSt11char_traitsIcESaIcEED1Ev,"x"
	.linkonce discard
	.seh_endproc
	.section	.text$_ZNSt6vectorIdSaIdEEC1EyRKdRKS0_,"x"
	.linkonce discard
	.align 2
	.globl	_ZNSt6vectorIdSaIdEEC1EyRKdRKS0_
	.def	_ZNSt6vectorIdSaIdEEC1EyRKdRKS0_;	.scl	2;	.type	32;	.endef
	.seh_proc	_ZNSt6vectorIdSaIdEEC1EyRKdRKS0_
_ZNSt6vectorIdSaIdEEC1EyRKdRKS0_:
.LFB9759:
	.file 26 "D:/msys64/ucrt64/include/c++/15.2.0/bits/stl_vector.h"
	.loc 26 599 7 is_stmt 1
	.cfi_startproc
	pushq	%rbp	 #
	.seh_pushreg	%rbp
	.cfi_def_cfa_offset 16
	.cfi_offset 6, -16
	pushq	%rbx	 #
	.seh_pushreg	%rbx
	.cfi_def_cfa_offset 24
	.cfi_offset 3, -24
	subq	$40, %rsp	 #,
	.seh_stackalloc	40
	.cfi_def_cfa_offset 64
	leaq	32(%rsp), %rbp	 #,
	.seh_setframe	%rbp, 32
	.cfi_def_cfa 6, 32
	.seh_endprologue
	movq	%rcx, 32(%rbp)	 # this, this
	movq	%rdx, 40(%rbp)	 # __n, __n
	movq	%r8, 48(%rbp)	 # __value, __value
	movq	%r9, 56(%rbp)	 # __a, __a
.LBB404:
 # D:/msys64/ucrt64/include/c++/15.2.0/bits/stl_vector.h:601:       : _Base(_S_check_init_len(__n, __a), __a)
	.loc 26 601 47
	movq	32(%rbp), %rbx	 # this, _1
	movq	56(%rbp), %rdx	 # __a, tmp102
	movq	40(%rbp), %rax	 # __n, tmp103
	movq	%rax, %rcx	 # tmp103,
.LEHB43:
	call	_ZNSt6vectorIdSaIdEE17_S_check_init_lenEyRKS0_	 #
 # D:/msys64/ucrt64/include/c++/15.2.0/bits/stl_vector.h:601:       : _Base(_S_check_init_len(__n, __a), __a)
	.loc 26 601 47 is_stmt 0 discriminator 1
	movq	56(%rbp), %rdx	 # __a, tmp104
	movq	%rdx, %r8	 # tmp104,
	movq	%rax, %rdx	 # _2,
	movq	%rbx, %rcx	 # _1,
	call	_ZNSt12_Vector_baseIdSaIdEEC2EyRKS0_	 #
.LEHE43:
 # D:/msys64/ucrt64/include/c++/15.2.0/bits/stl_vector.h:602:       { _M_fill_initialize(__n, __value); }
	.loc 26 602 27 is_stmt 1
	movq	48(%rbp), %rcx	 # __value, tmp105
	movq	40(%rbp), %rdx	 # __n, tmp106
	movq	32(%rbp), %rax	 # this, tmp107
	movq	%rcx, %r8	 # tmp105,
	movq	%rax, %rcx	 # tmp107,
.LEHB44:
	call	_ZNSt6vectorIdSaIdEE18_M_fill_initializeEyRKd	 #
.LEHE44:
.LBE404:
 # D:/msys64/ucrt64/include/c++/15.2.0/bits/stl_vector.h:602:       { _M_fill_initialize(__n, __value); }
	.loc 26 602 43
	jmp	.L222	 #
.L221:
.LBB405:
 # D:/msys64/ucrt64/include/c++/15.2.0/bits/stl_vector.h:602:       { _M_fill_initialize(__n, __value); }
	.loc 26 602 43 is_stmt 0 discriminator 2
	movq	%rax, %rbx	 #, tmp108
	movq	32(%rbp), %rax	 # this, _3
	movq	%rax, %rcx	 # _3,
	call	_ZNSt12_Vector_baseIdSaIdEED2Ev	 #
	movq	%rbx, %rax	 # tmp108, D.248503
	movq	%rax, %rcx	 # D.248503,
.LEHB45:
	call	_Unwind_Resume	 #
	nop	
.LEHE45:
.L222:
.LBE405:
 # D:/msys64/ucrt64/include/c++/15.2.0/bits/stl_vector.h:602:       { _M_fill_initialize(__n, __value); }
	.loc 26 602 43
	addq	$40, %rsp	 #,
	popq	%rbx	 #
	.cfi_restore 3
	popq	%rbp	 #
	.cfi_restore 6
	.cfi_def_cfa 7, -24
	ret	
	.cfi_endproc
.LFE9759:
	.seh_handler	__gxx_personality_seh0, @unwind, @except
	.seh_handlerdata
.LLSDA9759:
	.byte	0xff
	.byte	0xff
	.byte	0x1
	.uleb128 .LLSDACSE9759-.LLSDACSB9759
.LLSDACSB9759:
	.uleb128 .LEHB43-.LFB9759
	.uleb128 .LEHE43-.LEHB43
	.uleb128 0
	.uleb128 0
	.uleb128 .LEHB44-.LFB9759
	.uleb128 .LEHE44-.LEHB44
	.uleb128 .L221-.LFB9759
	.uleb128 0
	.uleb128 .LEHB45-.LFB9759
	.uleb128 .LEHE45-.LEHB45
	.uleb128 0
	.uleb128 0
.LLSDACSE9759:
	.section	.text$_ZNSt6vectorIdSaIdEEC1EyRKdRKS0_,"x"
	.linkonce discard
	.seh_endproc
	.section	.text$_ZNSt6vectorIdSaIdEED1Ev,"x"
	.linkonce discard
	.align 2
	.globl	_ZNSt6vectorIdSaIdEED1Ev
	.def	_ZNSt6vectorIdSaIdEED1Ev;	.scl	2;	.type	32;	.endef
	.seh_proc	_ZNSt6vectorIdSaIdEED1Ev
_ZNSt6vectorIdSaIdEED1Ev:
.LFB9762:
	.loc 26 800 7 is_stmt 1
	.cfi_startproc
	pushq	%rbp	 #
	.seh_pushreg	%rbp
	.cfi_def_cfa_offset 16
	.cfi_offset 6, -16
	movq	%rsp, %rbp	 #,
	.seh_setframe	%rbp, 0
	.cfi_def_cfa_register 6
	subq	$64, %rsp	 #,
	.seh_stackalloc	64
	.seh_endprologue
	movq	%rcx, 16(%rbp)	 # this, this
.LBB406:
 # D:/msys64/ucrt64/include/c++/15.2.0/bits/stl_vector.h:803: 		      _M_get_Tp_allocator());
	.loc 26 803 28
	movq	16(%rbp), %rax	 # this, _1
	movq	%rax, %rcx	 # _1,
	call	_ZNSt12_Vector_baseIdSaIdEE19_M_get_Tp_allocatorEv	 #
 # D:/msys64/ucrt64/include/c++/15.2.0/bits/stl_vector.h:802: 	std::_Destroy(this->_M_impl._M_start, this->_M_impl._M_finish,
	.loc 26 802 54
	movq	16(%rbp), %rdx	 # this, tmp103
	movq	8(%rdx), %rdx	 # this_6(D)->D.84971._M_impl.D.84277._M_finish, _3
 # D:/msys64/ucrt64/include/c++/15.2.0/bits/stl_vector.h:802: 	std::_Destroy(this->_M_impl._M_start, this->_M_impl._M_finish,
	.loc 26 802 30
	movq	16(%rbp), %rcx	 # this, tmp104
	movq	(%rcx), %rcx	 # this_6(D)->D.84971._M_impl.D.84277._M_start, _4
	movq	%rcx, -8(%rbp)	 # _4, __first
	movq	%rdx, -16(%rbp)	 # _3, __last
	movq	%rax, -24(%rbp)	 # _2, D.248302
.LBB407:
.LBB408:
 # D:/msys64/ucrt64/include/c++/15.2.0/bits/alloc_traits.h:1045:       std::_Destroy(__first, __last);
	.file 27 "D:/msys64/ucrt64/include/c++/15.2.0/bits/alloc_traits.h"
	.loc 27 1045 20
	movq	-16(%rbp), %rdx	 # __last, tmp105
	movq	-8(%rbp), %rax	 # __first, tmp106
	movq	%rax, %rcx	 # tmp106,
	call	_ZSt8_DestroyIPdEvT_S1_	 #
 # D:/msys64/ucrt64/include/c++/15.2.0/bits/alloc_traits.h:1046:     }
	.loc 27 1046 5
	nop	
.LBE408:
.LBE407:
 # D:/msys64/ucrt64/include/c++/15.2.0/bits/stl_vector.h:805:       }
	.loc 26 805 7
	movq	16(%rbp), %rax	 # this, _5
	movq	%rax, %rcx	 # _5,
	call	_ZNSt12_Vector_baseIdSaIdEED2Ev	 #
.LBE406:
	nop	
	addq	$64, %rsp	 #,
	popq	%rbp	 #
	.cfi_restore 6
	.cfi_def_cfa 7, 8
	ret	
	.cfi_endproc
.LFE9762:
	.seh_handler	__gxx_personality_seh0, @unwind, @except
	.seh_handlerdata
.LLSDA9762:
	.byte	0xff
	.byte	0xff
	.byte	0x1
	.uleb128 .LLSDACSE9762-.LLSDACSB9762
.LLSDACSB9762:
.LLSDACSE9762:
	.section	.text$_ZNSt6vectorIdSaIdEED1Ev,"x"
	.linkonce discard
	.seh_endproc
	.section .rdata,"dr"
.LC36:
	.ascii "__n < this->size()\0"
	.align 8
.LC37:
	.ascii "constexpr std::vector<_Tp, _Alloc>::reference std::vector<_Tp, _Alloc>::operator[](size_type) [with _Tp = double; _Alloc = std::allocator<double>; reference = double&; size_type = long long unsigned int]\0"
	.align 8
.LC38:
	.ascii "D:/msys64/ucrt64/include/c++/15.2.0/bits/stl_vector.h\0"
	.section	.text$_ZNSt6vectorIdSaIdEEixEy,"x"
	.linkonce discard
	.align 2
	.globl	_ZNSt6vectorIdSaIdEEixEy
	.def	_ZNSt6vectorIdSaIdEEixEy;	.scl	2;	.type	32;	.endef
	.seh_proc	_ZNSt6vectorIdSaIdEEixEy
_ZNSt6vectorIdSaIdEEixEy:
.LFB9763:
	.loc 26 1261 7
	.cfi_startproc
	pushq	%rbp	 #
	.seh_pushreg	%rbp
	.cfi_def_cfa_offset 16
	.cfi_offset 6, -16
	movq	%rsp, %rbp	 #,
	.seh_setframe	%rbp, 0
	.cfi_def_cfa_register 6
	subq	$32, %rsp	 #,
	.seh_stackalloc	32
	.seh_endprologue
	movq	%rcx, 16(%rbp)	 # this, this
	movq	%rdx, 24(%rbp)	 # __n, __n
 # D:/msys64/ucrt64/include/c++/15.2.0/bits/stl_vector.h:1263: 	__glibcxx_requires_subscript(__n);
	.loc 26 1263 50
	movq	16(%rbp), %rax	 # this, tmp107
	movq	%rax, %rcx	 # tmp107,
	call	_ZNKSt6vectorIdSaIdEE4sizeEv	 #
 # D:/msys64/ucrt64/include/c++/15.2.0/bits/stl_vector.h:1263: 	__glibcxx_requires_subscript(__n);
	.loc 26 1263 29 discriminator 1
	cmpq	%rax, 24(%rbp)	 # _1, __n
	setnb	%al	 #, _2
 # D:/msys64/ucrt64/include/c++/15.2.0/bits/stl_vector.h:1263: 	__glibcxx_requires_subscript(__n);
	.loc 26 1263 27 discriminator 1
	movzbl	%al, %eax	 # _2, _3
 # D:/msys64/ucrt64/include/c++/15.2.0/bits/stl_vector.h:1263: 	__glibcxx_requires_subscript(__n);
	.loc 26 1263 27 is_stmt 0 discriminator 2
	testl	%eax, %eax	 # _4
	setne	%al	 #, retval.21_11
 # D:/msys64/ucrt64/include/c++/15.2.0/bits/stl_vector.h:1263: 	__glibcxx_requires_subscript(__n);
	.loc 26 1263 7 is_stmt 1 discriminator 2
	testb	%al, %al	 # retval.21_11
	je	.L225	 #,
 # D:/msys64/ucrt64/include/c++/15.2.0/bits/stl_vector.h:1263: 	__glibcxx_requires_subscript(__n);
	.loc 26 1263 89 discriminator 3
	leaq	.LC36(%rip), %rcx	 #, tmp108
	leaq	.LC37(%rip), %rdx	 #, tmp109
	leaq	.LC38(%rip), %rax	 #, tmp110
	movq	%rcx, %r9	 # tmp108,
	movq	%rdx, %r8	 # tmp109,
	movl	$1263, %edx	 #,
	movq	%rax, %rcx	 # tmp110,
	call	_ZSt21__glibcxx_assert_failPKciS0_S0_	 #
.L225:
 # D:/msys64/ucrt64/include/c++/15.2.0/bits/stl_vector.h:1264: 	return *(this->_M_impl._M_start + __n);
	.loc 26 1264 25
	movq	16(%rbp), %rax	 # this, tmp111
	movq	(%rax), %rax	 # this_8(D)->D.84971._M_impl.D.84277._M_start, _5
 # D:/msys64/ucrt64/include/c++/15.2.0/bits/stl_vector.h:1264: 	return *(this->_M_impl._M_start + __n);
	.loc 26 1264 34
	movq	24(%rbp), %rdx	 # __n, tmp112
	salq	$3, %rdx	 #, _6
 # D:/msys64/ucrt64/include/c++/15.2.0/bits/stl_vector.h:1264: 	return *(this->_M_impl._M_start + __n);
	.loc 26 1264 39
	addq	%rdx, %rax	 # _6, _12
 # D:/msys64/ucrt64/include/c++/15.2.0/bits/stl_vector.h:1265:       }
	.loc 26 1265 7
	addq	$32, %rsp	 #,
	popq	%rbp	 #
	.cfi_restore 6
	.cfi_def_cfa 7, 8
	ret	
	.cfi_endproc
.LFE9763:
	.seh_endproc
	.section .rdata,"dr"
	.align 8
.LC39:
	.ascii "constexpr std::vector<_Tp, _Alloc>::const_reference std::vector<_Tp, _Alloc>::operator[](size_type) const [with _Tp = double; _Alloc = std::allocator<double>; const_reference = const double&; size_type = long long unsigned int]\0"
	.section	.text$_ZNKSt6vectorIdSaIdEEixEy,"x"
	.linkonce discard
	.align 2
	.globl	_ZNKSt6vectorIdSaIdEEixEy
	.def	_ZNKSt6vectorIdSaIdEEixEy;	.scl	2;	.type	32;	.endef
	.seh_proc	_ZNKSt6vectorIdSaIdEEixEy
_ZNKSt6vectorIdSaIdEEixEy:
.LFB9764:
	.loc 26 1280 7
	.cfi_startproc
	pushq	%rbp	 #
	.seh_pushreg	%rbp
	.cfi_def_cfa_offset 16
	.cfi_offset 6, -16
	movq	%rsp, %rbp	 #,
	.seh_setframe	%rbp, 0
	.cfi_def_cfa_register 6
	subq	$32, %rsp	 #,
	.seh_stackalloc	32
	.seh_endprologue
	movq	%rcx, 16(%rbp)	 # this, this
	movq	%rdx, 24(%rbp)	 # __n, __n
 # D:/msys64/ucrt64/include/c++/15.2.0/bits/stl_vector.h:1282: 	__glibcxx_requires_subscript(__n);
	.loc 26 1282 50
	movq	16(%rbp), %rax	 # this, tmp107
	movq	%rax, %rcx	 # tmp107,
	call	_ZNKSt6vectorIdSaIdEE4sizeEv	 #
 # D:/msys64/ucrt64/include/c++/15.2.0/bits/stl_vector.h:1282: 	__glibcxx_requires_subscript(__n);
	.loc 26 1282 29 discriminator 1
	cmpq	%rax, 24(%rbp)	 # _1, __n
	setnb	%al	 #, _2
 # D:/msys64/ucrt64/include/c++/15.2.0/bits/stl_vector.h:1282: 	__glibcxx_requires_subscript(__n);
	.loc 26 1282 27 discriminator 1
	movzbl	%al, %eax	 # _2, _3
 # D:/msys64/ucrt64/include/c++/15.2.0/bits/stl_vector.h:1282: 	__glibcxx_requires_subscript(__n);
	.loc 26 1282 27 is_stmt 0 discriminator 2
	testl	%eax, %eax	 # _4
	setne	%al	 #, retval.20_11
 # D:/msys64/ucrt64/include/c++/15.2.0/bits/stl_vector.h:1282: 	__glibcxx_requires_subscript(__n);
	.loc 26 1282 7 is_stmt 1 discriminator 2
	testb	%al, %al	 # retval.20_11
	je	.L228	 #,
 # D:/msys64/ucrt64/include/c++/15.2.0/bits/stl_vector.h:1282: 	__glibcxx_requires_subscript(__n);
	.loc 26 1282 89 discriminator 3
	leaq	.LC36(%rip), %rcx	 #, tmp108
	leaq	.LC39(%rip), %rdx	 #, tmp109
	leaq	.LC38(%rip), %rax	 #, tmp110
	movq	%rcx, %r9	 # tmp108,
	movq	%rdx, %r8	 # tmp109,
	movl	$1282, %edx	 #,
	movq	%rax, %rcx	 # tmp110,
	call	_ZSt21__glibcxx_assert_failPKciS0_S0_	 #
.L228:
 # D:/msys64/ucrt64/include/c++/15.2.0/bits/stl_vector.h:1283: 	return *(this->_M_impl._M_start + __n);
	.loc 26 1283 25
	movq	16(%rbp), %rax	 # this, tmp111
	movq	(%rax), %rax	 # this_8(D)->D.84971._M_impl.D.84277._M_start, _5
 # D:/msys64/ucrt64/include/c++/15.2.0/bits/stl_vector.h:1283: 	return *(this->_M_impl._M_start + __n);
	.loc 26 1283 34
	movq	24(%rbp), %rdx	 # __n, tmp112
	salq	$3, %rdx	 #, _6
 # D:/msys64/ucrt64/include/c++/15.2.0/bits/stl_vector.h:1283: 	return *(this->_M_impl._M_start + __n);
	.loc 26 1283 39
	addq	%rdx, %rax	 # _6, _12
 # D:/msys64/ucrt64/include/c++/15.2.0/bits/stl_vector.h:1284:       }
	.loc 26 1284 7
	addq	$32, %rsp	 #,
	popq	%rbp	 #
	.cfi_restore 6
	.cfi_def_cfa 7, 8
	ret	
	.cfi_endproc
.LFE9764:
	.seh_endproc
	.section	.text$_ZNKSt6vectorIdSaIdEE4sizeEv,"x"
	.linkonce discard
	.align 2
	.globl	_ZNKSt6vectorIdSaIdEE4sizeEv
	.def	_ZNKSt6vectorIdSaIdEE4sizeEv;	.scl	2;	.type	32;	.endef
	.seh_proc	_ZNKSt6vectorIdSaIdEE4sizeEv
_ZNKSt6vectorIdSaIdEE4sizeEv:
.LFB9767:
	.loc 26 1117 7
	.cfi_startproc
	pushq	%rbp	 #
	.seh_pushreg	%rbp
	.cfi_def_cfa_offset 16
	.cfi_offset 6, -16
	movq	%rsp, %rbp	 #,
	.seh_setframe	%rbp, 0
	.cfi_def_cfa_register 6
	subq	$16, %rsp	 #,
	.seh_stackalloc	16
	.seh_endprologue
	movq	%rcx, 16(%rbp)	 # this, this
 # D:/msys64/ucrt64/include/c++/15.2.0/bits/stl_vector.h:1119: 	ptrdiff_t __dif = this->_M_impl._M_finish - this->_M_impl._M_start;
	.loc 26 1119 34
	movq	16(%rbp), %rax	 # this, tmp103
	movq	8(%rax), %rdx	 # this_5(D)->D.84971._M_impl.D.84277._M_finish, _1
 # D:/msys64/ucrt64/include/c++/15.2.0/bits/stl_vector.h:1119: 	ptrdiff_t __dif = this->_M_impl._M_finish - this->_M_impl._M_start;
	.loc 26 1119 60
	movq	16(%rbp), %rax	 # this, tmp104
	movq	(%rax), %rax	 # this_5(D)->D.84971._M_impl.D.84277._M_start, _2
 # D:/msys64/ucrt64/include/c++/15.2.0/bits/stl_vector.h:1119: 	ptrdiff_t __dif = this->_M_impl._M_finish - this->_M_impl._M_start;
	.loc 26 1119 44
	subq	%rax, %rdx	 # _2, _3
 # D:/msys64/ucrt64/include/c++/15.2.0/bits/stl_vector.h:1119: 	ptrdiff_t __dif = this->_M_impl._M_finish - this->_M_impl._M_start;
	.loc 26 1119 12
	movq	%rdx, %rax	 # _3, _3
	sarq	$3, %rax	 #, _3
	movq	%rax, -8(%rbp)	 # __dif_6, __dif
 # D:/msys64/ucrt64/include/c++/15.2.0/bits/stl_vector.h:1120: 	if (__dif < 0)
	.loc 26 1120 2
	cmpq	$0, -8(%rbp)	 #, __dif
 # D:/msys64/ucrt64/include/c++/15.2.0/bits/stl_vector.h:1122: 	return size_type(__dif);
	.loc 26 1122 24
	movq	-8(%rbp), %rax	 # __dif, _7
 # D:/msys64/ucrt64/include/c++/15.2.0/bits/stl_vector.h:1123:       }
	.loc 26 1123 7
	addq	$16, %rsp	 #,
	popq	%rbp	 #
	.cfi_restore 6
	.cfi_def_cfa 7, 8
	ret	
	.cfi_endproc
.LFE9767:
	.seh_endproc
	.section .rdata,"dr"
	.align 8
.LC40:
	.ascii "basic_string: construction from null is not valid\0"
	.section	.text$_ZNSt7__cxx1112basic_stringIcSt11char_traitsIcESaIcEEC1IS3_EEPKcRKS3_,"x"
	.linkonce discard
	.align 2
	.globl	_ZNSt7__cxx1112basic_stringIcSt11char_traitsIcESaIcEEC1IS3_EEPKcRKS3_
	.def	_ZNSt7__cxx1112basic_stringIcSt11char_traitsIcESaIcEEC1IS3_EEPKcRKS3_;	.scl	2;	.type	32;	.endef
	.seh_proc	_ZNSt7__cxx1112basic_stringIcSt11char_traitsIcESaIcEEC1IS3_EEPKcRKS3_
_ZNSt7__cxx1112basic_stringIcSt11char_traitsIcESaIcEEC1IS3_EEPKcRKS3_:
.LFB9770:
	.loc 8 706 7
	.cfi_startproc
	pushq	%rbp	 #
	.seh_pushreg	%rbp
	.cfi_def_cfa_offset 16
	.cfi_offset 6, -16
	pushq	%rsi	 #
	.seh_pushreg	%rsi
	.cfi_def_cfa_offset 24
	.cfi_offset 4, -24
	pushq	%rbx	 #
	.seh_pushreg	%rbx
	.cfi_def_cfa_offset 32
	.cfi_offset 3, -32
	subq	$48, %rsp	 #,
	.seh_stackalloc	48
	.cfi_def_cfa_offset 80
	leaq	48(%rsp), %rbp	 #,
	.seh_setframe	%rbp, 48
	.cfi_def_cfa 6, 32
	.seh_endprologue
	movq	%rcx, 32(%rbp)	 # this, this
	movq	%rdx, 40(%rbp)	 # __s, __s
	movq	%r8, 48(%rbp)	 # __a, __a
.LBB409:
 # D:/msys64/ucrt64/include/c++/15.2.0/bits/basic_string.h:707:       : _M_dataplus(_M_local_data(), __a)
	.loc 8 707 9
	movq	32(%rbp), %rbx	 # this, _1
	movq	32(%rbp), %rax	 # this, tmp104
	movq	%rax, %rcx	 # tmp104,
	call	_ZNSt7__cxx1112basic_stringIcSt11char_traitsIcESaIcEE13_M_local_dataEv	 #
 # D:/msys64/ucrt64/include/c++/15.2.0/bits/basic_string.h:707:       : _M_dataplus(_M_local_data(), __a)
	.loc 8 707 9 is_stmt 0 discriminator 1
	movq	48(%rbp), %rdx	 # __a, tmp105
	movq	%rdx, %r8	 # tmp105,
	movq	%rax, %rdx	 # _2,
	movq	%rbx, %rcx	 # _1,
	call	_ZNSt7__cxx1112basic_stringIcSt11char_traitsIcESaIcEE12_Alloc_hiderC1EPcRKS3_	 #
.LBB410:
 # D:/msys64/ucrt64/include/c++/15.2.0/bits/basic_string.h:710: 	if (__s == 0)
	.loc 8 710 2 is_stmt 1
	cmpq	$0, 40(%rbp)	 #, __s
	jne	.L234	 #,
 # D:/msys64/ucrt64/include/c++/15.2.0/bits/basic_string.h:711: 	  std::__throw_logic_error(__N("basic_string: "
	.loc 8 711 28
	leaq	.LC40(%rip), %rax	 #, tmp106
	movq	%rax, %rcx	 # tmp106,
.LEHB46:
	call	_ZSt19__throw_logic_errorPKc	 #
.L234:
 # D:/msys64/ucrt64/include/c++/15.2.0/bits/basic_string.h:713: 	const _CharT* __end = __s + traits_type::length(__s);
	.loc 8 713 49
	movq	40(%rbp), %rax	 # __s, tmp107
	movq	%rax, %rcx	 # tmp107,
	call	_ZNSt11char_traitsIcE6lengthEPKc	 #
 # D:/msys64/ucrt64/include/c++/15.2.0/bits/basic_string.h:713: 	const _CharT* __end = __s + traits_type::length(__s);
	.loc 8 713 16 discriminator 2
	movq	40(%rbp), %rdx	 # __s, tmp111
	addq	%rdx, %rax	 # tmp111, __end_15
	movq	%rax, -8(%rbp)	 # __end_15, __end
 # D:/msys64/ucrt64/include/c++/15.2.0/bits/basic_string.h:714: 	_M_construct(__s, __end, forward_iterator_tag());
	.loc 8 714 14
	movq	-8(%rbp), %rcx	 # __end, tmp112
	movq	40(%rbp), %rdx	 # __s, tmp113
	movq	32(%rbp), %rax	 # this, tmp114
	movl	%esi, %r9d	 # D.203879,
	movq	%rcx, %r8	 # tmp112,
	movq	%rax, %rcx	 # tmp114,
	call	_ZNSt7__cxx1112basic_stringIcSt11char_traitsIcESaIcEE12_M_constructIPKcEEvT_S8_St20forward_iterator_tag	 #
.LEHE46:
.LBE410:
.LBE409:
 # D:/msys64/ucrt64/include/c++/15.2.0/bits/basic_string.h:715:       }
	.loc 8 715 7
	jmp	.L237	 #
.L236:
.LBB411:
	movq	%rax, %rbx	 #, tmp115
	movq	32(%rbp), %rax	 # this, _4
	movq	%rax, %rcx	 # _4,
	call	_ZNSt7__cxx1112basic_stringIcSt11char_traitsIcESaIcEE12_Alloc_hiderD1Ev	 #
	movq	%rbx, %rax	 # tmp115, D.248508
	movq	%rax, %rcx	 # D.248508,
.LEHB47:
	call	_Unwind_Resume	 #
	nop	
.LEHE47:
.L237:
.LBE411:
	addq	$48, %rsp	 #,
	popq	%rbx	 #
	.cfi_restore 3
	popq	%rsi	 #
	.cfi_restore 4
	popq	%rbp	 #
	.cfi_restore 6
	.cfi_def_cfa 7, -24
	ret	
	.cfi_endproc
.LFE9770:
	.seh_handler	__gxx_personality_seh0, @unwind, @except
	.seh_handlerdata
.LLSDA9770:
	.byte	0xff
	.byte	0xff
	.byte	0x1
	.uleb128 .LLSDACSE9770-.LLSDACSB9770
.LLSDACSB9770:
	.uleb128 .LEHB46-.LFB9770
	.uleb128 .LEHE46-.LEHB46
	.uleb128 .L236-.LFB9770
	.uleb128 0
	.uleb128 .LEHB47-.LFB9770
	.uleb128 .LEHE47-.LEHB47
	.uleb128 0
	.uleb128 0
.LLSDACSE9770:
	.section	.text$_ZNSt7__cxx1112basic_stringIcSt11char_traitsIcESaIcEEC1IS3_EEPKcRKS3_,"x"
	.linkonce discard
	.seh_endproc
	.section	.text$_ZNKSt7__cxx1112basic_stringIcSt11char_traitsIcESaIcEE16_M_get_allocatorEv,"x"
	.linkonce discard
	.align 2
	.globl	_ZNKSt7__cxx1112basic_stringIcSt11char_traitsIcESaIcEE16_M_get_allocatorEv
	.def	_ZNKSt7__cxx1112basic_stringIcSt11char_traitsIcESaIcEE16_M_get_allocatorEv;	.scl	2;	.type	32;	.endef
	.seh_proc	_ZNKSt7__cxx1112basic_stringIcSt11char_traitsIcESaIcEE16_M_get_allocatorEv
_ZNKSt7__cxx1112basic_stringIcSt11char_traitsIcESaIcEE16_M_get_allocatorEv:
.LFB9814:
	.loc 8 364 7
	.cfi_startproc
	pushq	%rbp	 #
	.seh_pushreg	%rbp
	.cfi_def_cfa_offset 16
	.cfi_offset 6, -16
	movq	%rsp, %rbp	 #,
	.seh_setframe	%rbp, 0
	.cfi_def_cfa_register 6
	.seh_endprologue
	movq	%rcx, 16(%rbp)	 # this, this
 # D:/msys64/ucrt64/include/c++/15.2.0/bits/basic_string.h:365:       { return _M_dataplus; }
	.loc 8 365 16
	movq	16(%rbp), %rax	 # this, _2
 # D:/msys64/ucrt64/include/c++/15.2.0/bits/basic_string.h:365:       { return _M_dataplus; }
	.loc 8 365 29
	popq	%rbp	 #
	.cfi_restore 6
	.cfi_def_cfa 7, 8
	ret	
	.cfi_endproc
.LFE9814:
	.seh_endproc
	.section	.text$_ZNKSt7__cxx1112basic_stringIcSt11char_traitsIcESaIcEE8max_sizeEv,"x"
	.linkonce discard
	.align 2
	.globl	_ZNKSt7__cxx1112basic_stringIcSt11char_traitsIcESaIcEE8max_sizeEv
	.def	_ZNKSt7__cxx1112basic_stringIcSt11char_traitsIcESaIcEE8max_sizeEv;	.scl	2;	.type	32;	.endef
	.seh_proc	_ZNKSt7__cxx1112basic_stringIcSt11char_traitsIcESaIcEE8max_sizeEv
_ZNKSt7__cxx1112basic_stringIcSt11char_traitsIcESaIcEE8max_sizeEv:
.LFB9812:
	.loc 8 1181 7
	.cfi_startproc
	pushq	%rbp	 #
	.seh_pushreg	%rbp
	.cfi_def_cfa_offset 16
	.cfi_offset 6, -16
	movq	%rsp, %rbp	 #,
	.seh_setframe	%rbp, 0
	.cfi_def_cfa_register 6
	subq	$48, %rsp	 #,
	.seh_stackalloc	48
	.seh_endprologue
	movq	%rcx, 16(%rbp)	 # this, this
 # D:/msys64/ucrt64/include/c++/15.2.0/bits/basic_string.h:1183: 	const size_t __diffmax
	.loc 8 1183 15
	movabsq	$9223372036854775807, %rax	 #, tmp106
	movq	%rax, -8(%rbp)	 # tmp106, __diffmax
 # D:/msys64/ucrt64/include/c++/15.2.0/bits/basic_string.h:1185: 	const size_t __allocmax = _Alloc_traits::max_size(_M_get_allocator());
	.loc 8 1185 15
	movq	$-1, -16(%rbp)	 #, __allocmax
 # D:/msys64/ucrt64/include/c++/15.2.0/bits/basic_string.h:1186: 	return (std::min)(__diffmax, __allocmax) - 1;
	.loc 8 1186 19
	leaq	-16(%rbp), %rdx	 #, tmp102
	leaq	-8(%rbp), %rax	 #, tmp103
	movq	%rax, %rcx	 # tmp103,
	call	_ZSt3minIyERKT_S2_S2_	 #
 # D:/msys64/ucrt64/include/c++/15.2.0/bits/basic_string.h:1186: 	return (std::min)(__diffmax, __allocmax) - 1;
	.loc 8 1186 43 discriminator 1
	movq	(%rax), %rax	 # *_1, _2
 # D:/msys64/ucrt64/include/c++/15.2.0/bits/basic_string.h:1186: 	return (std::min)(__diffmax, __allocmax) - 1;
	.loc 8 1186 45 discriminator 1
	subq	$1, %rax	 #, _7
 # D:/msys64/ucrt64/include/c++/15.2.0/bits/basic_string.h:1187:       }
	.loc 8 1187 7
	addq	$48, %rsp	 #,
	popq	%rbp	 #
	.cfi_restore 6
	.cfi_def_cfa 7, 8
	ret	
	.cfi_endproc
.LFE9812:
	.seh_endproc
	.section	.text$_ZNSt10unique_ptrINSt7__cxx1118basic_stringstreamIcSt11char_traitsIcESaIcEEESt14default_deleteIS5_EED1Ev,"x"
	.linkonce discard
	.align 2
	.globl	_ZNSt10unique_ptrINSt7__cxx1118basic_stringstreamIcSt11char_traitsIcESaIcEEESt14default_deleteIS5_EED1Ev
	.def	_ZNSt10unique_ptrINSt7__cxx1118basic_stringstreamIcSt11char_traitsIcESaIcEEESt14default_deleteIS5_EED1Ev;	.scl	2;	.type	32;	.endef
	.seh_proc	_ZNSt10unique_ptrINSt7__cxx1118basic_stringstreamIcSt11char_traitsIcESaIcEEESt14default_deleteIS5_EED1Ev
_ZNSt10unique_ptrINSt7__cxx1118basic_stringstreamIcSt11char_traitsIcESaIcEEESt14default_deleteIS5_EED1Ev:
.LFB10011:
	.loc 19 393 7
	.cfi_startproc
	pushq	%rbp	 #
	.seh_pushreg	%rbp
	.cfi_def_cfa_offset 16
	.cfi_offset 6, -16
	movq	%rsp, %rbp	 #,
	.seh_setframe	%rbp, 0
	.cfi_def_cfa_register 6
	subq	$48, %rsp	 #,
	.seh_stackalloc	48
	.seh_endprologue
	movq	%rcx, 16(%rbp)	 # this, this
.LBB412:
.LBB413:
 # D:/msys64/ucrt64/include/c++/15.2.0/bits/unique_ptr.h:397: 	auto& __ptr = _M_t._M_ptr();
	.loc 19 397 27
	movq	16(%rbp), %rax	 # this, _1
	movq	%rax, %rcx	 # _1,
	call	_ZNSt15__uniq_ptr_implINSt7__cxx1118basic_stringstreamIcSt11char_traitsIcESaIcEEESt14default_deleteIS5_EE6_M_ptrEv	 #
	movq	%rax, -8(%rbp)	 # tmp103, __ptr
 # D:/msys64/ucrt64/include/c++/15.2.0/bits/unique_ptr.h:398: 	if (__ptr != nullptr)
	.loc 19 398 12
	movq	-8(%rbp), %rax	 # __ptr, tmp104
	movq	(%rax), %rax	 # *__ptr_10, _2
 # D:/msys64/ucrt64/include/c++/15.2.0/bits/unique_ptr.h:398: 	if (__ptr != nullptr)
	.loc 19 398 2
	testq	%rax, %rax	 # _2
	je	.L243	 #,
 # D:/msys64/ucrt64/include/c++/15.2.0/bits/unique_ptr.h:399: 	  get_deleter()(std::move(__ptr));
	.loc 19 399 15
	movq	16(%rbp), %rax	 # this, tmp105
	movq	%rax, %rcx	 # tmp105,
	call	_ZNSt10unique_ptrINSt7__cxx1118basic_stringstreamIcSt11char_traitsIcESaIcEEESt14default_deleteIS5_EE11get_deleterEv	 #
	movq	%rax, %rcx	 #, _3
	movq	-8(%rbp), %rax	 # __ptr, tmp106
	movq	%rax, -16(%rbp)	 # tmp106, __t
.LBB414:
.LBB415:
 # D:/msys64/ucrt64/include/c++/15.2.0/bits/move.h:139:     { return static_cast<typename std::remove_reference<_Tp>::type&&>(__t); }
	.loc 12 139 74
	movq	-16(%rbp), %rax	 # __t, D.248331
.LBE415:
.LBE414:
 # D:/msys64/ucrt64/include/c++/15.2.0/bits/unique_ptr.h:399: 	  get_deleter()(std::move(__ptr));
	.loc 19 399 17 discriminator 2
	movq	(%rax), %rax	 # *_4, _5
	movq	%rax, %rdx	 # _5,
	call	_ZNKSt14default_deleteINSt7__cxx1118basic_stringstreamIcSt11char_traitsIcESaIcEEEEclEPS5_	 #
.L243:
 # D:/msys64/ucrt64/include/c++/15.2.0/bits/unique_ptr.h:400: 	__ptr = pointer();
	.loc 19 400 8
	movq	-8(%rbp), %rax	 # __ptr, tmp107
	movq	$0, (%rax)	 #, *__ptr_10
.LBE413:
.LBE412:
 # D:/msys64/ucrt64/include/c++/15.2.0/bits/unique_ptr.h:401:       }
	.loc 19 401 7
	nop	
	addq	$48, %rsp	 #,
	popq	%rbp	 #
	.cfi_restore 6
	.cfi_def_cfa 7, 8
	ret	
	.cfi_endproc
.LFE10011:
	.seh_endproc
	.section .rdata,"dr"
.LC41:
	.ascii "get() != pointer()\0"
	.align 8
.LC42:
	.ascii "typename std::add_lvalue_reference<_Tp>::type std::unique_ptr<_Tp, _Dp>::operator*() const [with _Tp = std::__cxx11::basic_stringstream<char>; _Dp = std::default_delete<std::__cxx11::basic_stringstream<char> >; typename std::add_lvalue_reference<_Tp>::type = std::__cxx11::basic_stringstream<char>&]\0"
	.align 8
.LC43:
	.ascii "D:/msys64/ucrt64/include/c++/15.2.0/bits/unique_ptr.h\0"
	.section	.text$_ZNKSt10unique_ptrINSt7__cxx1118basic_stringstreamIcSt11char_traitsIcESaIcEEESt14default_deleteIS5_EEdeEv,"x"
	.linkonce discard
	.align 2
	.globl	_ZNKSt10unique_ptrINSt7__cxx1118basic_stringstreamIcSt11char_traitsIcESaIcEEESt14default_deleteIS5_EEdeEv
	.def	_ZNKSt10unique_ptrINSt7__cxx1118basic_stringstreamIcSt11char_traitsIcESaIcEEESt14default_deleteIS5_EEdeEv;	.scl	2;	.type	32;	.endef
	.seh_proc	_ZNKSt10unique_ptrINSt7__cxx1118basic_stringstreamIcSt11char_traitsIcESaIcEEESt14default_deleteIS5_EEdeEv
_ZNKSt10unique_ptrINSt7__cxx1118basic_stringstreamIcSt11char_traitsIcESaIcEEESt14default_deleteIS5_EEdeEv:
.LFB10012:
	.loc 19 446 7
	.cfi_startproc
	pushq	%rbp	 #
	.seh_pushreg	%rbp
	.cfi_def_cfa_offset 16
	.cfi_offset 6, -16
	movq	%rsp, %rbp	 #,
	.seh_setframe	%rbp, 0
	.cfi_def_cfa_register 6
	subq	$32, %rsp	 #,
	.seh_stackalloc	32
	.seh_endprologue
	movq	%rcx, 16(%rbp)	 # this, this
 # D:/msys64/ucrt64/include/c++/15.2.0/bits/unique_ptr.h:456: 	__glibcxx_assert(get() != pointer());
	.loc 19 456 37
	movq	16(%rbp), %rax	 # this, tmp105
	movq	%rax, %rcx	 # tmp105,
	call	_ZNKSt10unique_ptrINSt7__cxx1118basic_stringstreamIcSt11char_traitsIcESaIcEEESt14default_deleteIS5_EE3getEv	 #
 # D:/msys64/ucrt64/include/c++/15.2.0/bits/unique_ptr.h:456: 	__glibcxx_assert(get() != pointer());
	.loc 19 456 29 discriminator 1
	testq	%rax, %rax	 # _1
	sete	%al	 #, _2
 # D:/msys64/ucrt64/include/c++/15.2.0/bits/unique_ptr.h:456: 	__glibcxx_assert(get() != pointer());
	.loc 19 456 27 discriminator 1
	movzbl	%al, %eax	 # _2, _3
 # D:/msys64/ucrt64/include/c++/15.2.0/bits/unique_ptr.h:456: 	__glibcxx_assert(get() != pointer());
	.loc 19 456 27 is_stmt 0 discriminator 2
	testl	%eax, %eax	 # _4
	setne	%al	 #, retval.33_8
 # D:/msys64/ucrt64/include/c++/15.2.0/bits/unique_ptr.h:456: 	__glibcxx_assert(get() != pointer());
	.loc 19 456 7 is_stmt 1 discriminator 2
	testb	%al, %al	 # retval.33_8
	je	.L246	 #,
 # D:/msys64/ucrt64/include/c++/15.2.0/bits/unique_ptr.h:456: 	__glibcxx_assert(get() != pointer());
	.loc 19 456 89 discriminator 3
	leaq	.LC41(%rip), %rcx	 #, tmp106
	leaq	.LC42(%rip), %rdx	 #, tmp107
	leaq	.LC43(%rip), %rax	 #, tmp108
	movq	%rcx, %r9	 # tmp106,
	movq	%rdx, %r8	 # tmp107,
	movl	$456, %edx	 #,
	movq	%rax, %rcx	 # tmp108,
	call	_ZSt21__glibcxx_assert_failPKciS0_S0_	 #
.L246:
 # D:/msys64/ucrt64/include/c++/15.2.0/bits/unique_ptr.h:457: 	return *get();
	.loc 19 457 13
	movq	16(%rbp), %rax	 # this, tmp109
	movq	%rax, %rcx	 # tmp109,
	call	_ZNKSt10unique_ptrINSt7__cxx1118basic_stringstreamIcSt11char_traitsIcESaIcEEESt14default_deleteIS5_EE3getEv	 #
 # D:/msys64/ucrt64/include/c++/15.2.0/bits/unique_ptr.h:458:       }
	.loc 19 458 7
	addq	$32, %rsp	 #,
	popq	%rbp	 #
	.cfi_restore 6
	.cfi_def_cfa 7, 8
	ret	
	.cfi_endproc
.LFE10012:
	.seh_endproc
	.section .rdata,"dr"
.LC44:
	.ascii "(null)\0"
	.section	.text$_ZN7testing7MessagelsIKcEERS0_RKPT_,"x"
	.linkonce discard
	.align 2
	.globl	_ZN7testing7MessagelsIKcEERS0_RKPT_
	.def	_ZN7testing7MessagelsIKcEERS0_RKPT_;	.scl	2;	.type	32;	.endef
	.seh_proc	_ZN7testing7MessagelsIKcEERS0_RKPT_
_ZN7testing7MessagelsIKcEERS0_RKPT_:
.LFB10016:
	.loc 18 182 19
	.cfi_startproc
	pushq	%rbp	 #
	.seh_pushreg	%rbp
	.cfi_def_cfa_offset 16
	.cfi_offset 6, -16
	movq	%rsp, %rbp	 #,
	.seh_setframe	%rbp, 0
	.cfi_def_cfa_register 6
	subq	$32, %rsp	 #,
	.seh_stackalloc	32
	.seh_endprologue
	movq	%rcx, 16(%rbp)	 # this, this
	movq	%rdx, 24(%rbp)	 # pointer, pointer
 # E:/Projects/Simulation_Projects/cva_cpp/build/_deps/googletest-src/googletest/include/gtest/gtest-message.h:183:     if (pointer == nullptr) {
	.loc 18 183 17
	movq	24(%rbp), %rax	 # pointer, tmp108
	movq	(%rax), %rax	 # *pointer_11(D), _1
 # E:/Projects/Simulation_Projects/cva_cpp/build/_deps/googletest-src/googletest/include/gtest/gtest-message.h:183:     if (pointer == nullptr) {
	.loc 18 183 5
	testq	%rax, %rax	 # _1
	jne	.L249	 #,
 # E:/Projects/Simulation_Projects/cva_cpp/build/_deps/googletest-src/googletest/include/gtest/gtest-message.h:184:       *ss_ << "(null)";
	.loc 18 184 7
	movq	16(%rbp), %rax	 # this, _2
	movq	%rax, %rcx	 # _2,
	call	_ZNKSt10unique_ptrINSt7__cxx1118basic_stringstreamIcSt11char_traitsIcESaIcEEESt14default_deleteIS5_EEdeEv	 #
 # E:/Projects/Simulation_Projects/cva_cpp/build/_deps/googletest-src/googletest/include/gtest/gtest-message.h:184:       *ss_ << "(null)";
	.loc 18 184 12 discriminator 1
	addq	$16, %rax	 #, _4
	leaq	.LC44(%rip), %rdx	 #, tmp109
	movq	%rax, %rcx	 # _4,
	call	_ZStlsISt11char_traitsIcEERSt13basic_ostreamIcT_ES5_PKc	 #
	jmp	.L250	 #
.L249:
 # E:/Projects/Simulation_Projects/cva_cpp/build/_deps/googletest-src/googletest/include/gtest/gtest-message.h:186:       *ss_ << pointer;
	.loc 18 186 7
	movq	16(%rbp), %rax	 # this, _5
	movq	%rax, %rcx	 # _5,
	call	_ZNKSt10unique_ptrINSt7__cxx1118basic_stringstreamIcSt11char_traitsIcESaIcEEESt14default_deleteIS5_EEdeEv	 #
 # E:/Projects/Simulation_Projects/cva_cpp/build/_deps/googletest-src/googletest/include/gtest/gtest-message.h:186:       *ss_ << pointer;
	.loc 18 186 12 discriminator 1
	leaq	16(%rax), %rcx	 #, _7
	movq	24(%rbp), %rax	 # pointer, tmp110
	movq	(%rax), %rax	 # *pointer_11(D), _8
	movq	%rax, %rdx	 # _8,
	call	_ZStlsISt11char_traitsIcEERSt13basic_ostreamIcT_ES5_PKc	 #
.L250:
 # E:/Projects/Simulation_Projects/cva_cpp/build/_deps/googletest-src/googletest/include/gtest/gtest-message.h:188:     return *this;
	.loc 18 188 13
	movq	16(%rbp), %rax	 # this, _17
 # E:/Projects/Simulation_Projects/cva_cpp/build/_deps/googletest-src/googletest/include/gtest/gtest-message.h:189:   }
	.loc 18 189 3
	addq	$32, %rsp	 #,
	popq	%rbp	 #
	.cfi_restore 6
	.cfi_def_cfa 7, 8
	ret	
	.cfi_endproc
.LFE10016:
	.seh_endproc
	.section	.text$_ZSteqINSt7__cxx1112basic_stringIcSt11char_traitsIcESaIcEEESt14default_deleteIS5_EEbRKSt10unique_ptrIT_T0_EDn,"x"
	.linkonce discard
	.globl	_ZSteqINSt7__cxx1112basic_stringIcSt11char_traitsIcESaIcEEESt14default_deleteIS5_EEbRKSt10unique_ptrIT_T0_EDn
	.def	_ZSteqINSt7__cxx1112basic_stringIcSt11char_traitsIcESaIcEEESt14default_deleteIS5_EEbRKSt10unique_ptrIT_T0_EDn;	.scl	2;	.type	32;	.endef
	.seh_proc	_ZSteqINSt7__cxx1112basic_stringIcSt11char_traitsIcESaIcEEESt14default_deleteIS5_EEbRKSt10unique_ptrIT_T0_EDn
_ZSteqINSt7__cxx1112basic_stringIcSt11char_traitsIcESaIcEEESt14default_deleteIS5_EEbRKSt10unique_ptrIT_T0_EDn:
.LFB10017:
	.loc 19 854 5
	.cfi_startproc
	pushq	%rbp	 #
	.seh_pushreg	%rbp
	.cfi_def_cfa_offset 16
	.cfi_offset 6, -16
	movq	%rsp, %rbp	 #,
	.seh_setframe	%rbp, 0
	.cfi_def_cfa_register 6
	subq	$32, %rsp	 #,
	.seh_stackalloc	32
	.seh_endprologue
	movq	%rcx, 16(%rbp)	 # __x, __x
	movq	%rdx, 24(%rbp)	 # D.204995, D.204995
 # D:/msys64/ucrt64/include/c++/15.2.0/bits/unique_ptr.h:855:     { return !__x; }
	.loc 19 855 14
	movq	16(%rbp), %rax	 # __x, tmp101
	movq	%rax, %rcx	 # tmp101,
	call	_ZNKSt10unique_ptrINSt7__cxx1112basic_stringIcSt11char_traitsIcESaIcEEESt14default_deleteIS5_EEcvbEv	 #
 # D:/msys64/ucrt64/include/c++/15.2.0/bits/unique_ptr.h:855:     { return !__x; }
	.loc 19 855 15 discriminator 1
	xorl	$1, %eax	 #, _5
 # D:/msys64/ucrt64/include/c++/15.2.0/bits/unique_ptr.h:855:     { return !__x; }
	.loc 19 855 20
	addq	$32, %rsp	 #,
	popq	%rbp	 #
	.cfi_restore 6
	.cfi_def_cfa 7, 8
	ret	
	.cfi_endproc
.LFE10017:
	.seh_endproc
	.section	.text$_ZNKSt10unique_ptrINSt7__cxx1112basic_stringIcSt11char_traitsIcESaIcEEESt14default_deleteIS5_EEptEv,"x"
	.linkonce discard
	.align 2
	.globl	_ZNKSt10unique_ptrINSt7__cxx1112basic_stringIcSt11char_traitsIcESaIcEEESt14default_deleteIS5_EEptEv
	.def	_ZNKSt10unique_ptrINSt7__cxx1112basic_stringIcSt11char_traitsIcESaIcEEESt14default_deleteIS5_EEptEv;	.scl	2;	.type	32;	.endef
	.seh_proc	_ZNKSt10unique_ptrINSt7__cxx1112basic_stringIcSt11char_traitsIcESaIcEEESt14default_deleteIS5_EEptEv
_ZNKSt10unique_ptrINSt7__cxx1112basic_stringIcSt11char_traitsIcESaIcEEESt14default_deleteIS5_EEptEv:
.LFB10018:
	.loc 19 463 7
	.cfi_startproc
	pushq	%rbp	 #
	.seh_pushreg	%rbp
	.cfi_def_cfa_offset 16
	.cfi_offset 6, -16
	movq	%rsp, %rbp	 #,
	.seh_setframe	%rbp, 0
	.cfi_def_cfa_register 6
	subq	$32, %rsp	 #,
	.seh_stackalloc	32
	.seh_endprologue
	movq	%rcx, 16(%rbp)	 # this, this
 # D:/msys64/ucrt64/include/c++/15.2.0/bits/unique_ptr.h:466: 	return get();
	.loc 19 466 12
	movq	16(%rbp), %rax	 # this, tmp100
	movq	%rax, %rcx	 # tmp100,
	call	_ZNKSt10unique_ptrINSt7__cxx1112basic_stringIcSt11char_traitsIcESaIcEEESt14default_deleteIS5_EE3getEv	 #
 # D:/msys64/ucrt64/include/c++/15.2.0/bits/unique_ptr.h:467:       }
	.loc 19 467 7
	addq	$32, %rsp	 #,
	popq	%rbp	 #
	.cfi_restore 6
	.cfi_def_cfa 7, 8
	ret	
	.cfi_endproc
.LFE10018:
	.seh_endproc
	.section	.text$_ZSt11make_uniqueINSt7__cxx1112basic_stringIcSt11char_traitsIcESaIcEEEJEENSt8__detail9_MakeUniqIT_E15__single_objectEDpOT0_,"x"
	.linkonce discard
	.globl	_ZSt11make_uniqueINSt7__cxx1112basic_stringIcSt11char_traitsIcESaIcEEEJEENSt8__detail9_MakeUniqIT_E15__single_objectEDpOT0_
	.def	_ZSt11make_uniqueINSt7__cxx1112basic_stringIcSt11char_traitsIcESaIcEEEJEENSt8__detail9_MakeUniqIT_E15__single_objectEDpOT0_;	.scl	2;	.type	32;	.endef
	.seh_proc	_ZSt11make_uniqueINSt7__cxx1112basic_stringIcSt11char_traitsIcESaIcEEEJEENSt8__detail9_MakeUniqIT_E15__single_objectEDpOT0_
_ZSt11make_uniqueINSt7__cxx1112basic_stringIcSt11char_traitsIcESaIcEEEJEENSt8__detail9_MakeUniqIT_E15__single_objectEDpOT0_:
.LFB10019:
	.loc 19 1084 5
	.cfi_startproc
	pushq	%rbp	 #
	.seh_pushreg	%rbp
	.cfi_def_cfa_offset 16
	.cfi_offset 6, -16
	pushq	%rsi	 #
	.seh_pushreg	%rsi
	.cfi_def_cfa_offset 24
	.cfi_offset 4, -24
	pushq	%rbx	 #
	.seh_pushreg	%rbx
	.cfi_def_cfa_offset 32
	.cfi_offset 3, -32
	subq	$32, %rsp	 #,
	.seh_stackalloc	32
	.cfi_def_cfa_offset 64
	leaq	32(%rsp), %rbp	 #,
	.seh_setframe	%rbp, 32
	.cfi_def_cfa 6, 32
	.seh_endprologue
	movq	%rcx, 32(%rbp)	 # .result_ptr, .result_ptr
 # D:/msys64/ucrt64/include/c++/15.2.0/bits/unique_ptr.h:1085:     { return unique_ptr<_Tp>(new _Tp(std::forward<_Args>(__args)...)); }
	.loc 19 1085 30
	movl	$32, %ecx	 #,
	call	_Znwy	 #
	movq	%rax, %rbx	 # tmp101, _4
 # D:/msys64/ucrt64/include/c++/15.2.0/bits/unique_ptr.h:1085:     { return unique_ptr<_Tp>(new _Tp(std::forward<_Args>(__args)...)); }
	.loc 19 1085 30 is_stmt 0 discriminator 1
	movq	%rbx, %rcx	 # _4,
	call	_ZNSt7__cxx1112basic_stringIcSt11char_traitsIcESaIcEEC1EvQ26is_default_constructible_vIT1_E	 #
 # D:/msys64/ucrt64/include/c++/15.2.0/bits/unique_ptr.h:1085:     { return unique_ptr<_Tp>(new _Tp(std::forward<_Args>(__args)...)); }
	.loc 19 1085 69 is_stmt 1 discriminator 2
	movl	$0, %esi	 #, _8
	movq	32(%rbp), %rax	 # <retval>, tmp102
	movq	%rbx, %rdx	 # _4,
	movq	%rax, %rcx	 # tmp102,
	call	_ZNSt10unique_ptrINSt7__cxx1112basic_stringIcSt11char_traitsIcESaIcEEESt14default_deleteIS5_EEC1IS7_vEEPS5_	 #
 # D:/msys64/ucrt64/include/c++/15.2.0/bits/unique_ptr.h:1085:     { return unique_ptr<_Tp>(new _Tp(std::forward<_Args>(__args)...)); }
	.loc 19 1085 69 is_stmt 0 discriminator 4
	testb	%sil, %sil	 # _8
	je	.L258	 #,
 # D:/msys64/ucrt64/include/c++/15.2.0/bits/unique_ptr.h:1085:     { return unique_ptr<_Tp>(new _Tp(std::forward<_Args>(__args)...)); }
	.loc 19 1085 30 is_stmt 1 discriminator 5
	movl	$32, %edx	 #,
	movq	%rbx, %rcx	 # _4,
	call	_ZdlPvy	 #
.L258:
 # D:/msys64/ucrt64/include/c++/15.2.0/bits/unique_ptr.h:1085:     { return unique_ptr<_Tp>(new _Tp(std::forward<_Args>(__args)...)); }
	.loc 19 1085 69
	nop	
 # D:/msys64/ucrt64/include/c++/15.2.0/bits/unique_ptr.h:1085:     { return unique_ptr<_Tp>(new _Tp(std::forward<_Args>(__args)...)); }
	.loc 19 1085 72
	movq	32(%rbp), %rax	 # <retval>,
	addq	$32, %rsp	 #,
	popq	%rbx	 #
	.cfi_restore 3
	popq	%rsi	 #
	.cfi_restore 4
	popq	%rbp	 #
	.cfi_restore 6
	.cfi_def_cfa 7, -8
	ret	
	.cfi_endproc
.LFE10019:
	.seh_endproc
	.section	.text$_ZNSt10unique_ptrINSt7__cxx1112basic_stringIcSt11char_traitsIcESaIcEEESt14default_deleteIS5_EED1Ev,"x"
	.linkonce discard
	.align 2
	.globl	_ZNSt10unique_ptrINSt7__cxx1112basic_stringIcSt11char_traitsIcESaIcEEESt14default_deleteIS5_EED1Ev
	.def	_ZNSt10unique_ptrINSt7__cxx1112basic_stringIcSt11char_traitsIcESaIcEEESt14default_deleteIS5_EED1Ev;	.scl	2;	.type	32;	.endef
	.seh_proc	_ZNSt10unique_ptrINSt7__cxx1112basic_stringIcSt11char_traitsIcESaIcEEESt14default_deleteIS5_EED1Ev
_ZNSt10unique_ptrINSt7__cxx1112basic_stringIcSt11char_traitsIcESaIcEEESt14default_deleteIS5_EED1Ev:
.LFB10022:
	.loc 19 393 7
	.cfi_startproc
	pushq	%rbp	 #
	.seh_pushreg	%rbp
	.cfi_def_cfa_offset 16
	.cfi_offset 6, -16
	movq	%rsp, %rbp	 #,
	.seh_setframe	%rbp, 0
	.cfi_def_cfa_register 6
	subq	$48, %rsp	 #,
	.seh_stackalloc	48
	.seh_endprologue
	movq	%rcx, 16(%rbp)	 # this, this
.LBB416:
.LBB417:
 # D:/msys64/ucrt64/include/c++/15.2.0/bits/unique_ptr.h:397: 	auto& __ptr = _M_t._M_ptr();
	.loc 19 397 27
	movq	16(%rbp), %rax	 # this, _1
	movq	%rax, %rcx	 # _1,
	call	_ZNSt15__uniq_ptr_implINSt7__cxx1112basic_stringIcSt11char_traitsIcESaIcEEESt14default_deleteIS5_EE6_M_ptrEv	 #
	movq	%rax, -8(%rbp)	 # tmp103, __ptr
 # D:/msys64/ucrt64/include/c++/15.2.0/bits/unique_ptr.h:398: 	if (__ptr != nullptr)
	.loc 19 398 12
	movq	-8(%rbp), %rax	 # __ptr, tmp104
	movq	(%rax), %rax	 # *__ptr_10, _2
 # D:/msys64/ucrt64/include/c++/15.2.0/bits/unique_ptr.h:398: 	if (__ptr != nullptr)
	.loc 19 398 2
	testq	%rax, %rax	 # _2
	je	.L260	 #,
 # D:/msys64/ucrt64/include/c++/15.2.0/bits/unique_ptr.h:399: 	  get_deleter()(std::move(__ptr));
	.loc 19 399 15
	movq	16(%rbp), %rax	 # this, tmp105
	movq	%rax, %rcx	 # tmp105,
	call	_ZNSt10unique_ptrINSt7__cxx1112basic_stringIcSt11char_traitsIcESaIcEEESt14default_deleteIS5_EE11get_deleterEv	 #
	movq	%rax, %rcx	 #, _3
	movq	-8(%rbp), %rax	 # __ptr, tmp106
	movq	%rax, -16(%rbp)	 # tmp106, __t
.LBB418:
.LBB419:
 # D:/msys64/ucrt64/include/c++/15.2.0/bits/move.h:139:     { return static_cast<typename std::remove_reference<_Tp>::type&&>(__t); }
	.loc 12 139 74
	movq	-16(%rbp), %rax	 # __t, D.248323
.LBE419:
.LBE418:
 # D:/msys64/ucrt64/include/c++/15.2.0/bits/unique_ptr.h:399: 	  get_deleter()(std::move(__ptr));
	.loc 19 399 17 discriminator 2
	movq	(%rax), %rax	 # *_4, _5
	movq	%rax, %rdx	 # _5,
	call	_ZNKSt14default_deleteINSt7__cxx1112basic_stringIcSt11char_traitsIcESaIcEEEEclEPS5_	 #
.L260:
 # D:/msys64/ucrt64/include/c++/15.2.0/bits/unique_ptr.h:400: 	__ptr = pointer();
	.loc 19 400 8
	movq	-8(%rbp), %rax	 # __ptr, tmp107
	movq	$0, (%rax)	 #, *__ptr_10
.LBE417:
.LBE416:
 # D:/msys64/ucrt64/include/c++/15.2.0/bits/unique_ptr.h:401:       }
	.loc 19 401 7
	nop	
	addq	$48, %rsp	 #,
	popq	%rbp	 #
	.cfi_restore 6
	.cfi_def_cfa 7, 8
	ret	
	.cfi_endproc
.LFE10022:
	.seh_endproc
	.section	.text$_ZNSt15__uniq_ptr_implINSt7__cxx1112basic_stringIcSt11char_traitsIcESaIcEEESt14default_deleteIS5_EEaSEOS8_,"x"
	.linkonce discard
	.align 2
	.globl	_ZNSt15__uniq_ptr_implINSt7__cxx1112basic_stringIcSt11char_traitsIcESaIcEEESt14default_deleteIS5_EEaSEOS8_
	.def	_ZNSt15__uniq_ptr_implINSt7__cxx1112basic_stringIcSt11char_traitsIcESaIcEEESt14default_deleteIS5_EEaSEOS8_;	.scl	2;	.type	32;	.endef
	.seh_proc	_ZNSt15__uniq_ptr_implINSt7__cxx1112basic_stringIcSt11char_traitsIcESaIcEEESt14default_deleteIS5_EEaSEOS8_
_ZNSt15__uniq_ptr_implINSt7__cxx1112basic_stringIcSt11char_traitsIcESaIcEEESt14default_deleteIS5_EEaSEOS8_:
.LFB10023:
	.loc 19 183 24
	.cfi_startproc
	pushq	%rbp	 #
	.seh_pushreg	%rbp
	.cfi_def_cfa_offset 16
	.cfi_offset 6, -16
	movq	%rsp, %rbp	 #,
	.seh_setframe	%rbp, 0
	.cfi_def_cfa_register 6
	subq	$48, %rsp	 #,
	.seh_stackalloc	48
	.seh_endprologue
	movq	%rcx, 16(%rbp)	 # this, this
	movq	%rdx, 24(%rbp)	 # __u, __u
 # D:/msys64/ucrt64/include/c++/15.2.0/bits/unique_ptr.h:185: 	reset(__u.release());
	.loc 19 185 7
	movq	24(%rbp), %rax	 # __u, tmp103
	movq	%rax, %rcx	 # tmp103,
	call	_ZNSt15__uniq_ptr_implINSt7__cxx1112basic_stringIcSt11char_traitsIcESaIcEEESt14default_deleteIS5_EE7releaseEv	 #
	movq	%rax, %rdx	 #, _1
 # D:/msys64/ucrt64/include/c++/15.2.0/bits/unique_ptr.h:185: 	reset(__u.release());
	.loc 19 185 7 is_stmt 0 discriminator 1
	movq	16(%rbp), %rax	 # this, tmp104
	movq	%rax, %rcx	 # tmp104,
	call	_ZNSt15__uniq_ptr_implINSt7__cxx1112basic_stringIcSt11char_traitsIcESaIcEEESt14default_deleteIS5_EE5resetEPS5_	 #
 # D:/msys64/ucrt64/include/c++/15.2.0/bits/unique_ptr.h:186: 	_M_deleter() = std::forward<_Dp>(__u._M_deleter());
	.loc 19 186 49 is_stmt 1
	movq	24(%rbp), %rax	 # __u, tmp105
	movq	%rax, %rcx	 # tmp105,
	call	_ZNSt15__uniq_ptr_implINSt7__cxx1112basic_stringIcSt11char_traitsIcESaIcEEESt14default_deleteIS5_EE10_M_deleterEv	 #
	movq	%rax, -8(%rbp)	 # _2, __t
 # D:/msys64/ucrt64/include/c++/15.2.0/bits/unique_ptr.h:186: 	_M_deleter() = std::forward<_Dp>(__u._M_deleter());
	.loc 19 186 12 discriminator 2
	movq	16(%rbp), %rax	 # this, tmp106
	movq	%rax, %rcx	 # tmp106,
	call	_ZNSt15__uniq_ptr_implINSt7__cxx1112basic_stringIcSt11char_traitsIcESaIcEEESt14default_deleteIS5_EE10_M_deleterEv	 #
 # D:/msys64/ucrt64/include/c++/15.2.0/bits/unique_ptr.h:187: 	return *this;
	.loc 19 187 10
	movq	16(%rbp), %rax	 # this, _10
 # D:/msys64/ucrt64/include/c++/15.2.0/bits/unique_ptr.h:188:       }
	.loc 19 188 7
	addq	$48, %rsp	 #,
	popq	%rbp	 #
	.cfi_restore 6
	.cfi_def_cfa 7, 8
	ret	
	.cfi_endproc
.LFE10023:
	.seh_endproc
	.section .rdata,"dr"
.LC45:
	.ascii "basic_string::append\0"
	.section	.text$_ZNSt7__cxx1112basic_stringIcSt11char_traitsIcESaIcEE6appendEPKc,"x"
	.linkonce discard
	.align 2
	.globl	_ZNSt7__cxx1112basic_stringIcSt11char_traitsIcESaIcEE6appendEPKc
	.def	_ZNSt7__cxx1112basic_stringIcSt11char_traitsIcESaIcEE6appendEPKc;	.scl	2;	.type	32;	.endef
	.seh_proc	_ZNSt7__cxx1112basic_stringIcSt11char_traitsIcESaIcEE6appendEPKc
_ZNSt7__cxx1112basic_stringIcSt11char_traitsIcESaIcEE6appendEPKc:
.LFB10024:
	.loc 8 1580 7
	.cfi_startproc
	pushq	%rbp	 #
	.seh_pushreg	%rbp
	.cfi_def_cfa_offset 16
	.cfi_offset 6, -16
	movq	%rsp, %rbp	 #,
	.seh_setframe	%rbp, 0
	.cfi_def_cfa_register 6
	subq	$48, %rsp	 #,
	.seh_stackalloc	48
	.seh_endprologue
	movq	%rcx, 16(%rbp)	 # this, this
	movq	%rdx, 24(%rbp)	 # __s, __s
 # D:/msys64/ucrt64/include/c++/15.2.0/bits/basic_string.h:1583: 	const size_type __n = traits_type::length(__s);
	.loc 8 1583 43
	movq	24(%rbp), %rax	 # __s, tmp101
	movq	%rax, %rcx	 # tmp101,
	call	_ZNSt11char_traitsIcE6lengthEPKc	 #
 # D:/msys64/ucrt64/include/c++/15.2.0/bits/basic_string.h:1583: 	const size_type __n = traits_type::length(__s);
	.loc 8 1583 43 is_stmt 0 discriminator 1
	movq	%rax, -8(%rbp)	 # _4, __n
 # D:/msys64/ucrt64/include/c++/15.2.0/bits/basic_string.h:1584: 	_M_check_length(size_type(0), __n, "basic_string::append");
	.loc 8 1584 17 is_stmt 1
	leaq	.LC45(%rip), %rcx	 #, tmp102
	movq	-8(%rbp), %rdx	 # __n, tmp103
	movq	16(%rbp), %rax	 # this, tmp104
	movq	%rcx, %r9	 # tmp102,
	movq	%rdx, %r8	 # tmp103,
	movl	$0, %edx	 #,
	movq	%rax, %rcx	 # tmp104,
	call	_ZNKSt7__cxx1112basic_stringIcSt11char_traitsIcESaIcEE15_M_check_lengthEyyPKc	 #
 # D:/msys64/ucrt64/include/c++/15.2.0/bits/basic_string.h:1585: 	return _M_append(__s, __n);
	.loc 8 1585 18
	movq	-8(%rbp), %rcx	 # __n, tmp105
	movq	24(%rbp), %rdx	 # __s, tmp106
	movq	16(%rbp), %rax	 # this, tmp107
	movq	%rcx, %r8	 # tmp105,
	movq	%rax, %rcx	 # tmp107,
	call	_ZNSt7__cxx1112basic_stringIcSt11char_traitsIcESaIcEE9_M_appendEPKcy	 #
 # D:/msys64/ucrt64/include/c++/15.2.0/bits/basic_string.h:1586:       }
	.loc 8 1586 7
	addq	$48, %rsp	 #,
	popq	%rbp	 #
	.cfi_restore 6
	.cfi_def_cfa 7, 8
	ret	
	.cfi_endproc
.LFE10024:
	.seh_endproc
	.section	.text$_ZNSt7__cxx1112basic_stringIcSt11char_traitsIcESaIcEEC1ERKS4_,"x"
	.linkonce discard
	.align 2
	.globl	_ZNSt7__cxx1112basic_stringIcSt11char_traitsIcESaIcEEC1ERKS4_
	.def	_ZNSt7__cxx1112basic_stringIcSt11char_traitsIcESaIcEEC1ERKS4_;	.scl	2;	.type	32;	.endef
	.seh_proc	_ZNSt7__cxx1112basic_stringIcSt11char_traitsIcESaIcEEC1ERKS4_
_ZNSt7__cxx1112basic_stringIcSt11char_traitsIcESaIcEEC1ERKS4_:
.LFB10034:
	.loc 8 613 7
	.cfi_startproc
	pushq	%rbp	 #
	.seh_pushreg	%rbp
	.cfi_def_cfa_offset 16
	.cfi_offset 6, -16
	pushq	%rbx	 #
	.seh_pushreg	%rbx
	.cfi_def_cfa_offset 24
	.cfi_offset 3, -24
	subq	$104, %rsp	 #,
	.seh_stackalloc	104
	.cfi_def_cfa_offset 128
	leaq	96(%rsp), %rbp	 #,
	.seh_setframe	%rbp, 96
	.cfi_def_cfa 6, 32
	.seh_endprologue
	movq	%rcx, 32(%rbp)	 # this, this
	movq	%rdx, 40(%rbp)	 # __str, __str
.LBB420:
 # D:/msys64/ucrt64/include/c++/15.2.0/bits/basic_string.h:614:       : _M_dataplus(_M_local_data(),
	.loc 8 614 9
	movq	32(%rbp), %rbx	 # this, _1
 # D:/msys64/ucrt64/include/c++/15.2.0/bits/basic_string.h:615: 		    _Alloc_traits::_S_select_on_copy(__str._M_get_allocator()))
	.loc 8 615 62
	movq	40(%rbp), %rax	 # __str, tmp106
	movq	%rax, %rcx	 # tmp106,
	call	_ZNKSt7__cxx1112basic_stringIcSt11char_traitsIcESaIcEE16_M_get_allocatorEv	 #
	movq	%rax, -8(%rbp)	 # _2, __a
	leaq	-49(%rbp), %rax	 #, retvalptr.341
	movq	-8(%rbp), %rdx	 # __a, tmp107
	movq	%rdx, -16(%rbp)	 # tmp107, __rhs
	movq	%rax, -24(%rbp)	 # retvalptr.341, this
	movq	-16(%rbp), %rax	 # __rhs, tmp108
	movq	%rax, -32(%rbp)	 # tmp108, __a
	movq	-24(%rbp), %rax	 # this, tmp109
	movq	%rax, -40(%rbp)	 # tmp109, this
	movq	-32(%rbp), %rax	 # __a, tmp110
	movq	%rax, -48(%rbp)	 # tmp110, D.248400
.LBB421:
.LBB422:
.LBB423:
.LBB424:
.LBB425:
.LBB426:
.LBB427:
.LBB428:
.LBB429:
 # D:/msys64/ucrt64/include/c++/15.2.0/bits/new_allocator.h:92:       __new_allocator(const __new_allocator&) _GLIBCXX_USE_NOEXCEPT { }
	.loc 10 92 58
	nop	
.LBE429:
.LBE428:
.LBE427:
 # D:/msys64/ucrt64/include/c++/15.2.0/bits/allocator.h:173:       : __allocator_base<_Tp>(__a) { }
	.loc 9 173 38
	nop	
.LBE426:
.LBE425:
 # D:/msys64/ucrt64/include/c++/15.2.0/bits/alloc_traits.h:726:       { return __rhs; }
	.loc 27 726 16
	nop	
.LBE424:
.LBE423:
 # D:/msys64/ucrt64/include/c++/15.2.0/ext/alloc_traits.h:100:     { return _Base_type::select_on_container_copy_construction(__a); }
	.file 28 "D:/msys64/ucrt64/include/c++/15.2.0/ext/alloc_traits.h"
	.loc 28 100 67
	nop	
.LBE422:
.LBE421:
 # D:/msys64/ucrt64/include/c++/15.2.0/bits/basic_string.h:614:       : _M_dataplus(_M_local_data(),
	.loc 8 614 9
	movq	32(%rbp), %rax	 # this, tmp111
	movq	%rax, %rcx	 # tmp111,
	call	_ZNSt7__cxx1112basic_stringIcSt11char_traitsIcESaIcEE13_M_local_dataEv	 #
 # D:/msys64/ucrt64/include/c++/15.2.0/bits/basic_string.h:614:       : _M_dataplus(_M_local_data(),
	.loc 8 614 9 is_stmt 0 discriminator 1
	leaq	-49(%rbp), %rdx	 #, tmp112
	movq	%rdx, %r8	 # tmp112,
	movq	%rax, %rdx	 # _3,
	movq	%rbx, %rcx	 # _1,
	call	_ZNSt7__cxx1112basic_stringIcSt11char_traitsIcESaIcEE12_Alloc_hiderC1EPcOS3_	 #
.LBB430:
.LBB431:
 # D:/msys64/ucrt64/include/c++/15.2.0/bits/allocator.h:189:       ~allocator() _GLIBCXX_NOTHROW { }
	.loc 9 189 31 is_stmt 1
	nop	
.LBE431:
.LBE430:
 # D:/msys64/ucrt64/include/c++/15.2.0/bits/basic_string.h:617: 	_M_construct<true>(__str._M_data(), __str.length());
	.loc 8 617 20
	movq	40(%rbp), %rax	 # __str, tmp113
	movq	%rax, %rcx	 # tmp113,
	call	_ZNKSt7__cxx1112basic_stringIcSt11char_traitsIcESaIcEE6lengthEv	 #
	movq	%rax, %rbx	 #, _4
 # D:/msys64/ucrt64/include/c++/15.2.0/bits/basic_string.h:617: 	_M_construct<true>(__str._M_data(), __str.length());
	.loc 8 617 34 discriminator 1
	movq	40(%rbp), %rax	 # __str, tmp114
	movq	%rax, %rcx	 # tmp114,
	call	_ZNKSt7__cxx1112basic_stringIcSt11char_traitsIcESaIcEE7_M_dataEv	 #
	movq	%rax, %rdx	 #, _5
 # D:/msys64/ucrt64/include/c++/15.2.0/bits/basic_string.h:617: 	_M_construct<true>(__str._M_data(), __str.length());
	.loc 8 617 20 discriminator 2
	movq	32(%rbp), %rax	 # this, tmp115
	movq	%rbx, %r8	 # _4,
	movq	%rax, %rcx	 # tmp115,
.LEHB48:
	call	_ZNSt7__cxx1112basic_stringIcSt11char_traitsIcESaIcEE12_M_constructILb1EEEvPKcy	 #
.LEHE48:
.LBE420:
 # D:/msys64/ucrt64/include/c++/15.2.0/bits/basic_string.h:618:       }
	.loc 8 618 7
	jmp	.L272	 #
.L271:
.LBB432:
	movq	%rax, %rbx	 #, tmp116
	movq	32(%rbp), %rax	 # this, _6
	movq	%rax, %rcx	 # _6,
	call	_ZNSt7__cxx1112basic_stringIcSt11char_traitsIcESaIcEE12_Alloc_hiderD1Ev	 #
	movq	%rbx, %rax	 # tmp116, D.248516
	movq	%rax, %rcx	 # D.248516,
.LEHB49:
	call	_Unwind_Resume	 #
	nop	
.LEHE49:
.L272:
.LBE432:
	addq	$104, %rsp	 #,
	popq	%rbx	 #
	.cfi_restore 3
	popq	%rbp	 #
	.cfi_restore 6
	.cfi_def_cfa 7, -88
	ret	
	.cfi_endproc
.LFE10034:
	.seh_handler	__gxx_personality_seh0, @unwind, @except
	.seh_handlerdata
.LLSDA10034:
	.byte	0xff
	.byte	0xff
	.byte	0x1
	.uleb128 .LLSDACSE10034-.LLSDACSB10034
.LLSDACSB10034:
	.uleb128 .LEHB48-.LFB10034
	.uleb128 .LEHE48-.LEHB48
	.uleb128 .L271-.LFB10034
	.uleb128 0
	.uleb128 .LEHB49-.LFB10034
	.uleb128 .LEHE49-.LEHB49
	.uleb128 0
	.uleb128 0
.LLSDACSE10034:
	.section	.text$_ZNSt7__cxx1112basic_stringIcSt11char_traitsIcESaIcEEC1ERKS4_,"x"
	.linkonce discard
	.seh_endproc
	.section	.text$_ZN7testing8internal21AppropriateResolutionIdEEiT_,"x"
	.linkonce discard
	.globl	_ZN7testing8internal21AppropriateResolutionIdEEiT_
	.def	_ZN7testing8internal21AppropriateResolutionIdEEiT_;	.scl	2;	.type	32;	.endef
	.seh_proc	_ZN7testing8internal21AppropriateResolutionIdEEiT_
_ZN7testing8internal21AppropriateResolutionIdEEiT_:
.LFB10081:
	.loc 22 529 5
	.cfi_startproc
	pushq	%rbp	 #
	.seh_pushreg	%rbp
	.cfi_def_cfa_offset 16
	.cfi_offset 6, -16
	movq	%rsp, %rbp	 #,
	.seh_setframe	%rbp, 0
	.cfi_def_cfa_register 6
	subq	$32, %rsp	 #,
	.seh_stackalloc	32
	.seh_endprologue
	movsd	%xmm0, 16(%rbp)	 # val, val
 # E:/Projects/Simulation_Projects/cva_cpp/build/_deps/googletest-src/googletest/include/gtest/gtest-printers.h:530:   int full = std::numeric_limits<FloatType>::max_digits10;
	.loc 22 530 7
	movl	$17, -20(%rbp)	 #, full
 # E:/Projects/Simulation_Projects/cva_cpp/build/_deps/googletest-src/googletest/include/gtest/gtest-printers.h:531:   if (val < 0) val = -val;
	.loc 22 531 3
	pxor	%xmm0, %xmm0	 # tmp110
	comisd	16(%rbp), %xmm0	 # val, tmp110
	jbe	.L274	 #,
 # E:/Projects/Simulation_Projects/cva_cpp/build/_deps/googletest-src/googletest/include/gtest/gtest-printers.h:531:   if (val < 0) val = -val;
	.loc 22 531 20 discriminator 1
	movsd	16(%rbp), %xmm0	 # val, tmp112
	movq	.LC1(%rip), %xmm1	 #, tmp113
	xorpd	%xmm1, %xmm0	 # tmp113, val_17
	movsd	%xmm0, 16(%rbp)	 # val_17, val
.L274:
.LBB433:
 # E:/Projects/Simulation_Projects/cva_cpp/build/_deps/googletest-src/googletest/include/gtest/gtest-printers.h:533:   if (val < 1000000) {
	.loc 22 533 3
	movsd	.LC46(%rip), %xmm0	 #, tmp114
	comisd	16(%rbp), %xmm0	 # val, tmp114
	jbe	.L330	 #,
.LBB434:
 # E:/Projects/Simulation_Projects/cva_cpp/build/_deps/googletest-src/googletest/include/gtest/gtest-printers.h:534:     FloatType mulfor6 = 1e10;
	.loc 22 534 15
	movsd	.LC47(%rip), %xmm0	 #, tmp115
	movsd	%xmm0, -8(%rbp)	 # tmp115, mulfor6
 # E:/Projects/Simulation_Projects/cva_cpp/build/_deps/googletest-src/googletest/include/gtest/gtest-printers.h:535:     if (val >= 100000.0) {  // 100,000 to 999,999
	.loc 22 535 5
	movsd	16(%rbp), %xmm0	 # val, tmp116
	comisd	.LC48(%rip), %xmm0	 #, tmp116
	jb	.L331	 #,
 # E:/Projects/Simulation_Projects/cva_cpp/build/_deps/googletest-src/googletest/include/gtest/gtest-printers.h:536:       mulfor6 = 1.0;
	.loc 22 536 15
	movsd	.LC7(%rip), %xmm0	 #, tmp117
	movsd	%xmm0, -8(%rbp)	 # tmp117, mulfor6
	jmp	.L280	 #
.L331:
 # E:/Projects/Simulation_Projects/cva_cpp/build/_deps/googletest-src/googletest/include/gtest/gtest-printers.h:537:     } else if (val >= 10000.0) {
	.loc 22 537 12
	movsd	16(%rbp), %xmm0	 # val, tmp118
	comisd	.LC49(%rip), %xmm0	 #, tmp118
	jb	.L332	 #,
 # E:/Projects/Simulation_Projects/cva_cpp/build/_deps/googletest-src/googletest/include/gtest/gtest-printers.h:538:       mulfor6 = 1e1;
	.loc 22 538 15
	movsd	.LC32(%rip), %xmm0	 #, tmp119
	movsd	%xmm0, -8(%rbp)	 # tmp119, mulfor6
	jmp	.L280	 #
.L332:
 # E:/Projects/Simulation_Projects/cva_cpp/build/_deps/googletest-src/googletest/include/gtest/gtest-printers.h:539:     } else if (val >= 1000.0) {
	.loc 22 539 12
	movsd	16(%rbp), %xmm0	 # val, tmp120
	comisd	.LC50(%rip), %xmm0	 #, tmp120
	jb	.L333	 #,
 # E:/Projects/Simulation_Projects/cva_cpp/build/_deps/googletest-src/googletest/include/gtest/gtest-printers.h:540:       mulfor6 = 1e2;
	.loc 22 540 15
	movsd	.LC26(%rip), %xmm0	 #, tmp121
	movsd	%xmm0, -8(%rbp)	 # tmp121, mulfor6
	jmp	.L280	 #
.L333:
 # E:/Projects/Simulation_Projects/cva_cpp/build/_deps/googletest-src/googletest/include/gtest/gtest-printers.h:541:     } else if (val >= 100.0) {
	.loc 22 541 12
	movsd	16(%rbp), %xmm0	 # val, tmp122
	comisd	.LC26(%rip), %xmm0	 #, tmp122
	jb	.L334	 #,
 # E:/Projects/Simulation_Projects/cva_cpp/build/_deps/googletest-src/googletest/include/gtest/gtest-printers.h:542:       mulfor6 = 1e3;
	.loc 22 542 15
	movsd	.LC50(%rip), %xmm0	 #, tmp123
	movsd	%xmm0, -8(%rbp)	 # tmp123, mulfor6
	jmp	.L280	 #
.L334:
 # E:/Projects/Simulation_Projects/cva_cpp/build/_deps/googletest-src/googletest/include/gtest/gtest-printers.h:543:     } else if (val >= 10.0) {
	.loc 22 543 12
	movsd	16(%rbp), %xmm0	 # val, tmp124
	comisd	.LC32(%rip), %xmm0	 #, tmp124
	jb	.L335	 #,
 # E:/Projects/Simulation_Projects/cva_cpp/build/_deps/googletest-src/googletest/include/gtest/gtest-printers.h:544:       mulfor6 = 1e4;
	.loc 22 544 15
	movsd	.LC49(%rip), %xmm0	 #, tmp125
	movsd	%xmm0, -8(%rbp)	 # tmp125, mulfor6
	jmp	.L280	 #
.L335:
 # E:/Projects/Simulation_Projects/cva_cpp/build/_deps/googletest-src/googletest/include/gtest/gtest-printers.h:545:     } else if (val >= 1.0) {
	.loc 22 545 12
	movsd	16(%rbp), %xmm0	 # val, tmp126
	movsd	.LC7(%rip), %xmm1	 #, tmp127
	comisd	%xmm1, %xmm0	 # tmp127, tmp126
	jb	.L336	 #,
 # E:/Projects/Simulation_Projects/cva_cpp/build/_deps/googletest-src/googletest/include/gtest/gtest-printers.h:546:       mulfor6 = 1e5;
	.loc 22 546 15
	movsd	.LC48(%rip), %xmm0	 #, tmp128
	movsd	%xmm0, -8(%rbp)	 # tmp128, mulfor6
	jmp	.L280	 #
.L336:
 # E:/Projects/Simulation_Projects/cva_cpp/build/_deps/googletest-src/googletest/include/gtest/gtest-printers.h:547:     } else if (val >= 0.1) {
	.loc 22 547 12
	movsd	16(%rbp), %xmm0	 # val, tmp129
	comisd	.LC51(%rip), %xmm0	 #, tmp129
	jb	.L337	 #,
 # E:/Projects/Simulation_Projects/cva_cpp/build/_deps/googletest-src/googletest/include/gtest/gtest-printers.h:548:       mulfor6 = 1e6;
	.loc 22 548 15
	movsd	.LC46(%rip), %xmm0	 #, tmp130
	movsd	%xmm0, -8(%rbp)	 # tmp130, mulfor6
	jmp	.L280	 #
.L337:
 # E:/Projects/Simulation_Projects/cva_cpp/build/_deps/googletest-src/googletest/include/gtest/gtest-printers.h:549:     } else if (val >= 0.01) {
	.loc 22 549 12
	movsd	16(%rbp), %xmm0	 # val, tmp131
	comisd	.LC52(%rip), %xmm0	 #, tmp131
	jb	.L338	 #,
 # E:/Projects/Simulation_Projects/cva_cpp/build/_deps/googletest-src/googletest/include/gtest/gtest-printers.h:550:       mulfor6 = 1e7;
	.loc 22 550 15
	movsd	.LC53(%rip), %xmm0	 #, tmp132
	movsd	%xmm0, -8(%rbp)	 # tmp132, mulfor6
	jmp	.L280	 #
.L338:
 # E:/Projects/Simulation_Projects/cva_cpp/build/_deps/googletest-src/googletest/include/gtest/gtest-printers.h:551:     } else if (val >= 0.001) {
	.loc 22 551 12
	movsd	16(%rbp), %xmm0	 # val, tmp133
	comisd	.LC54(%rip), %xmm0	 #, tmp133
	jb	.L339	 #,
 # E:/Projects/Simulation_Projects/cva_cpp/build/_deps/googletest-src/googletest/include/gtest/gtest-printers.h:552:       mulfor6 = 1e8;
	.loc 22 552 15
	movsd	.LC55(%rip), %xmm0	 #, tmp134
	movsd	%xmm0, -8(%rbp)	 # tmp134, mulfor6
	jmp	.L280	 #
.L339:
 # E:/Projects/Simulation_Projects/cva_cpp/build/_deps/googletest-src/googletest/include/gtest/gtest-printers.h:553:     } else if (val >= 0.0001) {
	.loc 22 553 12
	movsd	16(%rbp), %xmm0	 # val, tmp135
	comisd	.LC56(%rip), %xmm0	 #, tmp135
	jb	.L280	 #,
 # E:/Projects/Simulation_Projects/cva_cpp/build/_deps/googletest-src/googletest/include/gtest/gtest-printers.h:554:       mulfor6 = 1e9;
	.loc 22 554 15
	movsd	.LC57(%rip), %xmm0	 #, tmp136
	movsd	%xmm0, -8(%rbp)	 # tmp136, mulfor6
.L280:
 # E:/Projects/Simulation_Projects/cva_cpp/build/_deps/googletest-src/googletest/include/gtest/gtest-printers.h:556:     if (static_cast<FloatType>(static_cast<int32_t>(val * mulfor6 + 0.5)) /
	.loc 22 556 57
	movsd	16(%rbp), %xmm0	 # val, tmp137
	movapd	%xmm0, %xmm1	 # tmp137, tmp137
	mulsd	-8(%rbp), %xmm1	 # mulfor6, tmp137
 # E:/Projects/Simulation_Projects/cva_cpp/build/_deps/googletest-src/googletest/include/gtest/gtest-printers.h:556:     if (static_cast<FloatType>(static_cast<int32_t>(val * mulfor6 + 0.5)) /
	.loc 22 556 67
	movsd	.LC3(%rip), %xmm0	 #, tmp138
	addsd	%xmm1, %xmm0	 # _1, _2
 # E:/Projects/Simulation_Projects/cva_cpp/build/_deps/googletest-src/googletest/include/gtest/gtest-printers.h:556:     if (static_cast<FloatType>(static_cast<int32_t>(val * mulfor6 + 0.5)) /
	.loc 22 556 32
	cvttsd2sil	%xmm0, %eax	 # _2, _3
 # E:/Projects/Simulation_Projects/cva_cpp/build/_deps/googletest-src/googletest/include/gtest/gtest-printers.h:556:     if (static_cast<FloatType>(static_cast<int32_t>(val * mulfor6 + 0.5)) /
	.loc 22 556 9
	pxor	%xmm0, %xmm0	 # _4
	cvtsi2sdl	%eax, %xmm0	 # _3, _4
 # E:/Projects/Simulation_Projects/cva_cpp/build/_deps/googletest-src/googletest/include/gtest/gtest-printers.h:556:     if (static_cast<FloatType>(static_cast<int32_t>(val * mulfor6 + 0.5)) /
	.loc 22 556 75
	divsd	-8(%rbp), %xmm0	 # mulfor6, _5
 # E:/Projects/Simulation_Projects/cva_cpp/build/_deps/googletest-src/googletest/include/gtest/gtest-printers.h:556:     if (static_cast<FloatType>(static_cast<int32_t>(val * mulfor6 + 0.5)) /
	.loc 22 556 5
	ucomisd	16(%rbp), %xmm0	 # val, _5
	jp	.L298	 #,
	ucomisd	16(%rbp), %xmm0	 # val, _5
	jne	.L298	 #,
 # E:/Projects/Simulation_Projects/cva_cpp/build/_deps/googletest-src/googletest/include/gtest/gtest-printers.h:559:       return 6;
	.loc 22 559 14
	movl	$6, %eax	 #, _14
	jmp	.L300	 #
.L330:
.LBE434:
.LBB435:
.LBB436:
 # E:/Projects/Simulation_Projects/cva_cpp/build/_deps/googletest-src/googletest/include/gtest/gtest-printers.h:560:   } else if (val < 1e10) {
	.loc 22 560 10
	movsd	.LC47(%rip), %xmm0	 #, tmp139
	comisd	16(%rbp), %xmm0	 # val, tmp139
	jbe	.L298	 #,
.LBB437:
 # E:/Projects/Simulation_Projects/cva_cpp/build/_deps/googletest-src/googletest/include/gtest/gtest-printers.h:561:     FloatType divfor6 = 1.0;
	.loc 22 561 15
	movsd	.LC7(%rip), %xmm0	 #, tmp140
	movsd	%xmm0, -16(%rbp)	 # tmp140, divfor6
 # E:/Projects/Simulation_Projects/cva_cpp/build/_deps/googletest-src/googletest/include/gtest/gtest-printers.h:562:     if (val >= 1e9) {  // 1,000,000,000 to 9,999,999,999
	.loc 22 562 5
	movsd	16(%rbp), %xmm0	 # val, tmp141
	comisd	.LC57(%rip), %xmm0	 #, tmp141
	jb	.L340	 #,
 # E:/Projects/Simulation_Projects/cva_cpp/build/_deps/googletest-src/googletest/include/gtest/gtest-printers.h:563:       divfor6 = 10000;
	.loc 22 563 15
	movsd	.LC49(%rip), %xmm0	 #, tmp142
	movsd	%xmm0, -16(%rbp)	 # tmp142, divfor6
	jmp	.L304	 #
.L340:
 # E:/Projects/Simulation_Projects/cva_cpp/build/_deps/googletest-src/googletest/include/gtest/gtest-printers.h:564:     } else if (val >= 1e8) {  // 100,000,000 to 999,999,999
	.loc 22 564 12
	movsd	16(%rbp), %xmm0	 # val, tmp143
	comisd	.LC55(%rip), %xmm0	 #, tmp143
	jb	.L341	 #,
 # E:/Projects/Simulation_Projects/cva_cpp/build/_deps/googletest-src/googletest/include/gtest/gtest-printers.h:565:       divfor6 = 1000;
	.loc 22 565 15
	movsd	.LC50(%rip), %xmm0	 #, tmp144
	movsd	%xmm0, -16(%rbp)	 # tmp144, divfor6
	jmp	.L304	 #
.L341:
 # E:/Projects/Simulation_Projects/cva_cpp/build/_deps/googletest-src/googletest/include/gtest/gtest-printers.h:566:     } else if (val >= 1e7) {  // 10,000,000 to 99,999,999
	.loc 22 566 12
	movsd	16(%rbp), %xmm0	 # val, tmp145
	comisd	.LC53(%rip), %xmm0	 #, tmp145
	jb	.L342	 #,
 # E:/Projects/Simulation_Projects/cva_cpp/build/_deps/googletest-src/googletest/include/gtest/gtest-printers.h:567:       divfor6 = 100;
	.loc 22 567 15
	movsd	.LC26(%rip), %xmm0	 #, tmp146
	movsd	%xmm0, -16(%rbp)	 # tmp146, divfor6
	jmp	.L304	 #
.L342:
 # E:/Projects/Simulation_Projects/cva_cpp/build/_deps/googletest-src/googletest/include/gtest/gtest-printers.h:568:     } else if (val >= 1e6) {  // 1,000,000 to 9,999,999
	.loc 22 568 12
	movsd	16(%rbp), %xmm0	 # val, tmp147
	comisd	.LC46(%rip), %xmm0	 #, tmp147
	jb	.L304	 #,
 # E:/Projects/Simulation_Projects/cva_cpp/build/_deps/googletest-src/googletest/include/gtest/gtest-printers.h:569:       divfor6 = 10;
	.loc 22 569 15
	movsd	.LC32(%rip), %xmm0	 #, tmp148
	movsd	%xmm0, -16(%rbp)	 # tmp148, divfor6
.L304:
 # E:/Projects/Simulation_Projects/cva_cpp/build/_deps/googletest-src/googletest/include/gtest/gtest-printers.h:571:     if (static_cast<FloatType>(static_cast<int32_t>(val / divfor6 + 0.5)) *
	.loc 22 571 57
	movsd	16(%rbp), %xmm0	 # val, tmp149
	movapd	%xmm0, %xmm1	 # tmp149, tmp149
	divsd	-16(%rbp), %xmm1	 # divfor6, tmp149
 # E:/Projects/Simulation_Projects/cva_cpp/build/_deps/googletest-src/googletest/include/gtest/gtest-printers.h:571:     if (static_cast<FloatType>(static_cast<int32_t>(val / divfor6 + 0.5)) *
	.loc 22 571 67
	movsd	.LC3(%rip), %xmm0	 #, tmp150
	addsd	%xmm1, %xmm0	 # _6, _7
 # E:/Projects/Simulation_Projects/cva_cpp/build/_deps/googletest-src/googletest/include/gtest/gtest-printers.h:571:     if (static_cast<FloatType>(static_cast<int32_t>(val / divfor6 + 0.5)) *
	.loc 22 571 32
	cvttsd2sil	%xmm0, %eax	 # _7, _8
 # E:/Projects/Simulation_Projects/cva_cpp/build/_deps/googletest-src/googletest/include/gtest/gtest-printers.h:571:     if (static_cast<FloatType>(static_cast<int32_t>(val / divfor6 + 0.5)) *
	.loc 22 571 9
	pxor	%xmm0, %xmm0	 # _9
	cvtsi2sdl	%eax, %xmm0	 # _8, _9
 # E:/Projects/Simulation_Projects/cva_cpp/build/_deps/googletest-src/googletest/include/gtest/gtest-printers.h:571:     if (static_cast<FloatType>(static_cast<int32_t>(val / divfor6 + 0.5)) *
	.loc 22 571 75
	mulsd	-16(%rbp), %xmm0	 # divfor6, _10
 # E:/Projects/Simulation_Projects/cva_cpp/build/_deps/googletest-src/googletest/include/gtest/gtest-printers.h:571:     if (static_cast<FloatType>(static_cast<int32_t>(val / divfor6 + 0.5)) *
	.loc 22 571 5
	ucomisd	16(%rbp), %xmm0	 # val, _10
	jp	.L298	 #,
	ucomisd	16(%rbp), %xmm0	 # val, _10
	jne	.L298	 #,
 # E:/Projects/Simulation_Projects/cva_cpp/build/_deps/googletest-src/googletest/include/gtest/gtest-printers.h:574:       return 6;
	.loc 22 574 14
	movl	$6, %eax	 #, _14
	jmp	.L300	 #
.L298:
.LBE437:
.LBE436:
.LBE435:
.LBE433:
 # E:/Projects/Simulation_Projects/cva_cpp/build/_deps/googletest-src/googletest/include/gtest/gtest-printers.h:576:   return full;
	.loc 22 576 10
	movl	-20(%rbp), %eax	 # full, _14
.L300:
 # E:/Projects/Simulation_Projects/cva_cpp/build/_deps/googletest-src/googletest/include/gtest/gtest-printers.h:577: }
	.loc 22 577 1
	addq	$32, %rsp	 #,
	popq	%rbp	 #
	.cfi_restore 6
	.cfi_def_cfa 7, 8
	ret	
	.cfi_endproc
.LFE10081:
	.seh_endproc
	.section .rdata,"dr"
	.align 8
.LC58:
	.ascii "E:/Projects/Simulation_Projects/cva_cpp/build/_deps/googletest-src/googletest/include/gtest/internal/gtest-internal.h\0"
	.align 8
.LC59:
	.ascii "Condition !test_case_fp || !test_suite_fp failed. \0"
	.align 8
.LC60:
	.ascii "Test can not provide both SetUpTestSuite and SetUpTestCase, please make sure there is only one present at \0"
.LC61:
	.ascii ":\0"
	.section	.text$_ZN7testing8internal16SuiteApiResolverINS_4TestEE19GetSetUpCaseOrSuiteEPKci,"x"
	.linkonce discard
	.globl	_ZN7testing8internal16SuiteApiResolverINS_4TestEE19GetSetUpCaseOrSuiteEPKci
	.def	_ZN7testing8internal16SuiteApiResolverINS_4TestEE19GetSetUpCaseOrSuiteEPKci;	.scl	2;	.type	32;	.endef
	.seh_proc	_ZN7testing8internal16SuiteApiResolverINS_4TestEE19GetSetUpCaseOrSuiteEPKci
_ZN7testing8internal16SuiteApiResolverINS_4TestEE19GetSetUpCaseOrSuiteEPKci:
.LFB10177:
	.loc 21 506 37
	.cfi_startproc
	pushq	%rbp	 #
	.seh_pushreg	%rbp
	.cfi_def_cfa_offset 16
	.cfi_offset 6, -16
	pushq	%rbx	 #
	.seh_pushreg	%rbx
	.cfi_def_cfa_offset 24
	.cfi_offset 3, -24
	subq	$72, %rsp	 #,
	.seh_stackalloc	72
	.cfi_def_cfa_offset 96
	leaq	64(%rsp), %rbp	 #,
	.seh_setframe	%rbp, 64
	.cfi_def_cfa 6, 32
	.seh_endprologue
	movq	%rcx, 32(%rbp)	 # filename, filename
	movl	%edx, 40(%rbp)	 # line_num, line_num
 # E:/Projects/Simulation_Projects/cva_cpp/build/_deps/googletest-src/googletest/include/gtest/internal/gtest-internal.h:510:         GetNotDefaultOrNull(&T::SetUpTestCase, &Test::SetUpTestCase);
	.loc 21 510 28
	leaq	_ZN7testing4Test13SetUpTestCaseEv(%rip), %rax	 #, tmp110
	movq	%rax, %rdx	 # tmp110, tmp109
	leaq	_ZN7testing4Test13SetUpTestCaseEv(%rip), %rax	 #, tmp112
	movq	%rax, %rcx	 # tmp111,
	call	_ZN7testing8internal19GetNotDefaultOrNullEPFvvES2_	 #
	movq	%rax, -8(%rbp)	 # tmp113, test_case_fp
 # E:/Projects/Simulation_Projects/cva_cpp/build/_deps/googletest-src/googletest/include/gtest/internal/gtest-internal.h:512:         GetNotDefaultOrNull(&T::SetUpTestSuite, &Test::SetUpTestSuite);
	.loc 21 512 28
	leaq	_ZN7testing4Test14SetUpTestSuiteEv(%rip), %rax	 #, tmp115
	movq	%rax, %rdx	 # tmp115, tmp114
	leaq	_ZN7testing4Test14SetUpTestSuiteEv(%rip), %rax	 #, tmp117
	movq	%rax, %rcx	 # tmp116,
	call	_ZN7testing8internal19GetNotDefaultOrNullEPFvvES2_	 #
	movq	%rax, -16(%rbp)	 # tmp118, test_suite_fp
 # E:/Projects/Simulation_Projects/cva_cpp/build/_deps/googletest-src/googletest/include/gtest/internal/gtest-internal.h:514:     GTEST_CHECK_(!test_case_fp || !test_suite_fp)
	.loc 21 514 79 discriminator 1
	cmpq	$0, -8(%rbp)	 #, test_case_fp
	je	.L344	 #,
 # E:/Projects/Simulation_Projects/cva_cpp/build/_deps/googletest-src/googletest/include/gtest/internal/gtest-internal.h:514:     GTEST_CHECK_(!test_case_fp || !test_suite_fp)
	.loc 21 514 79 is_stmt 0 discriminator 3
	cmpq	$0, -16(%rbp)	 #, test_suite_fp
	jne	.L345	 #,
.L344:
 # E:/Projects/Simulation_Projects/cva_cpp/build/_deps/googletest-src/googletest/include/gtest/internal/gtest-internal.h:514:     GTEST_CHECK_(!test_case_fp || !test_suite_fp)
	.loc 21 514 79 discriminator 4
	movl	$1, %eax	 #, iftmp.63_7
 # E:/Projects/Simulation_Projects/cva_cpp/build/_deps/googletest-src/googletest/include/gtest/internal/gtest-internal.h:514:     GTEST_CHECK_(!test_case_fp || !test_suite_fp)
	.loc 21 514 79
	jmp	.L346	 #
.L345:
 # E:/Projects/Simulation_Projects/cva_cpp/build/_deps/googletest-src/googletest/include/gtest/internal/gtest-internal.h:514:     GTEST_CHECK_(!test_case_fp || !test_suite_fp)
	.loc 21 514 79 discriminator 5
	movl	$0, %eax	 #, iftmp.63_7
.L346:
 # E:/Projects/Simulation_Projects/cva_cpp/build/_deps/googletest-src/googletest/include/gtest/internal/gtest-internal.h:514:     GTEST_CHECK_(!test_case_fp || !test_suite_fp)
	.loc 21 514 64 is_stmt 1 discriminator 7
	movzbl	%al, %eax	 # iftmp.63_7, _1
	movl	%eax, %ecx	 # _1,
.LEHB50:
	call	_ZN7testing8internal6IsTrueEb	 #
 # E:/Projects/Simulation_Projects/cva_cpp/build/_deps/googletest-src/googletest/include/gtest/internal/gtest-internal.h:514:     GTEST_CHECK_(!test_case_fp || !test_suite_fp)
	.loc 21 514 33 discriminator 8
	testb	%al, %al	 # _20
	jne	.L347	 #,
 # E:/Projects/Simulation_Projects/cva_cpp/build/_deps/googletest-src/googletest/include/gtest/internal/gtest-internal.h:514:     GTEST_CHECK_(!test_case_fp || !test_suite_fp)
	.loc 21 514 127 discriminator 9
	leaq	.LC58(%rip), %rdx	 #, tmp119
	leaq	-20(%rbp), %rax	 #, tmp120
	movl	$514, %r9d	 #,
	movq	%rdx, %r8	 # tmp119,
	movl	$3, %edx	 #,
	movq	%rax, %rcx	 # tmp120,
	call	_ZN7testing8internal8GTestLogC1ENS0_16GTestLogSeverityEPKci	 #
.LEHE50:
 # E:/Projects/Simulation_Projects/cva_cpp/build/_deps/googletest-src/googletest/include/gtest/internal/gtest-internal.h:514:     GTEST_CHECK_(!test_case_fp || !test_suite_fp)
	.loc 21 514 306 discriminator 12
	leaq	-20(%rbp), %rax	 #, tmp121
	movq	%rax, %rcx	 # tmp121,
	call	_ZN7testing8internal8GTestLog9GetStreamEv	 #
	movq	%rax, %rcx	 #, _2
 # E:/Projects/Simulation_Projects/cva_cpp/build/_deps/googletest-src/googletest/include/gtest/internal/gtest-internal.h:517:         << filename << ":" << line_num;
	.loc 21 517 21
	leaq	.LC59(%rip), %rax	 #, tmp122
	movq	%rax, %rdx	 # tmp122,
.LEHB51:
	call	_ZStlsISt11char_traitsIcEERSt13basic_ostreamIcT_ES5_PKc	 #
	movq	%rax, %rcx	 #, _3
 # E:/Projects/Simulation_Projects/cva_cpp/build/_deps/googletest-src/googletest/include/gtest/internal/gtest-internal.h:517:         << filename << ":" << line_num;
	.loc 21 517 21 is_stmt 0 discriminator 2
	leaq	.LC60(%rip), %rax	 #, tmp123
	movq	%rax, %rdx	 # tmp123,
	call	_ZStlsISt11char_traitsIcEERSt13basic_ostreamIcT_ES5_PKc	 #
	movq	%rax, %rcx	 #, _4
 # E:/Projects/Simulation_Projects/cva_cpp/build/_deps/googletest-src/googletest/include/gtest/internal/gtest-internal.h:517:         << filename << ":" << line_num;
	.loc 21 517 21 discriminator 4
	movq	32(%rbp), %rax	 # filename, tmp124
	movq	%rax, %rdx	 # tmp124,
	call	_ZStlsISt11char_traitsIcEERSt13basic_ostreamIcT_ES5_PKc	 #
	movq	%rax, %rcx	 #, _5
 # E:/Projects/Simulation_Projects/cva_cpp/build/_deps/googletest-src/googletest/include/gtest/internal/gtest-internal.h:517:         << filename << ":" << line_num;
	.loc 21 517 21 discriminator 6
	leaq	.LC61(%rip), %rax	 #, tmp125
	movq	%rax, %rdx	 # tmp125,
	call	_ZStlsISt11char_traitsIcEERSt13basic_ostreamIcT_ES5_PKc	 #
	movq	%rax, %rcx	 #, _6
 # E:/Projects/Simulation_Projects/cva_cpp/build/_deps/googletest-src/googletest/include/gtest/internal/gtest-internal.h:517:         << filename << ":" << line_num;
	.loc 21 517 28 is_stmt 1 discriminator 8
	movl	40(%rbp), %eax	 # line_num, tmp126
	movl	%eax, %edx	 # tmp126,
	call	_ZNSolsEi	 #
.LEHE51:
 # E:/Projects/Simulation_Projects/cva_cpp/build/_deps/googletest-src/googletest/include/gtest/internal/gtest-internal.h:514:     GTEST_CHECK_(!test_case_fp || !test_suite_fp)
	.loc 21 514 127
	leaq	-20(%rbp), %rax	 #, tmp127
	movq	%rax, %rcx	 # tmp127,
	call	_ZN7testing8internal8GTestLogD1Ev	 #
.L347:
 # E:/Projects/Simulation_Projects/cva_cpp/build/_deps/googletest-src/googletest/include/gtest/internal/gtest-internal.h:519:     return test_case_fp != nullptr ? test_case_fp : test_suite_fp;
	.loc 21 519 36
	cmpq	$0, -8(%rbp)	 #, test_case_fp
	je	.L348	 #,
 # E:/Projects/Simulation_Projects/cva_cpp/build/_deps/googletest-src/googletest/include/gtest/internal/gtest-internal.h:519:     return test_case_fp != nullptr ? test_case_fp : test_suite_fp;
	.loc 21 519 53 discriminator 1
	movq	-8(%rbp), %rax	 # test_case_fp, _8
 # E:/Projects/Simulation_Projects/cva_cpp/build/_deps/googletest-src/googletest/include/gtest/internal/gtest-internal.h:519:     return test_case_fp != nullptr ? test_case_fp : test_suite_fp;
	.loc 21 519 53 is_stmt 0
	jmp	.L353	 #
.L348:
 # E:/Projects/Simulation_Projects/cva_cpp/build/_deps/googletest-src/googletest/include/gtest/internal/gtest-internal.h:519:     return test_case_fp != nullptr ? test_case_fp : test_suite_fp;
	.loc 21 519 53 discriminator 2
	movq	-16(%rbp), %rax	 # test_suite_fp, _8
 # E:/Projects/Simulation_Projects/cva_cpp/build/_deps/googletest-src/googletest/include/gtest/internal/gtest-internal.h:519:     return test_case_fp != nullptr ? test_case_fp : test_suite_fp;
	.loc 21 519 53
	jmp	.L353	 #
.L352:
 # E:/Projects/Simulation_Projects/cva_cpp/build/_deps/googletest-src/googletest/include/gtest/internal/gtest-internal.h:514:     GTEST_CHECK_(!test_case_fp || !test_suite_fp)
	.loc 21 514 127 is_stmt 1
	movq	%rax, %rbx	 #, tmp130
	leaq	-20(%rbp), %rax	 #, tmp129
	movq	%rax, %rcx	 # tmp129,
	call	_ZN7testing8internal8GTestLogD1Ev	 #
	movq	%rbx, %rax	 # tmp130, D.248517
	movq	%rax, %rcx	 # D.248517,
.LEHB52:
	call	_Unwind_Resume	 #
.LEHE52:
.L353:
 # E:/Projects/Simulation_Projects/cva_cpp/build/_deps/googletest-src/googletest/include/gtest/internal/gtest-internal.h:525:   }
	.loc 21 525 3
	addq	$72, %rsp	 #,
	popq	%rbx	 #
	.cfi_restore 3
	popq	%rbp	 #
	.cfi_restore 6
	.cfi_def_cfa 7, -56
	ret	
	.cfi_endproc
.LFE10177:
	.seh_handler	__gxx_personality_seh0, @unwind, @except
	.seh_handlerdata
.LLSDA10177:
	.byte	0xff
	.byte	0xff
	.byte	0x1
	.uleb128 .LLSDACSE10177-.LLSDACSB10177
.LLSDACSB10177:
	.uleb128 .LEHB50-.LFB10177
	.uleb128 .LEHE50-.LEHB50
	.uleb128 0
	.uleb128 0
