	.file	"gmock_main.cc"
 # GNU C++20 (Rev8, Built by MSYS2 project) version 15.2.0 (x86_64-w64-mingw32)
 #	compiled by GNU C version 15.2.0, GMP version 6.3.0, MPFR version 4.2.2, MPC version 1.3.1, isl version isl-0.27-GMP

 # GGC heuristics: --param ggc-min-expand=100 --param ggc-min-heapsize=131072
 # options passed: -mtune=generic -march=nocona -g -std=c++20 -fexceptions
	.text
.Ltext0:
	.cfi_sections	.debug_frame
	.file 0 "E://Projects//Simulation_Projects//cva_cpp//build//_deps//googletest-build//googlemock" "E:/Projects/Simulation_Projects/cva_cpp/build/_deps/googletest-src/googlemock/src/gmock_main.cc"
	.section .rdata,"dr"
	.align 8
_ZN7testing8internalL14kMaxBiggestIntE:
	.quad	9223372036854775807
	.align 16
_ZN7testing8internalL19kDeathTestStyleFlagE:
	.ascii "death_test_style\0"
	.align 16
_ZN7testing8internalL17kDeathTestUseForkE:
	.ascii "death_test_use_fork\0"
	.align 16
_ZN7testing8internalL25kInternalRunDeathTestFlagE:
	.ascii "internal_run_death_test\0"
	.align 4
_ZN7testingL19kMaxStackTraceDepthE:
	.long	100
	.section	.text$_Z13RUN_ALL_TESTSv,"x"
	.linkonce discard
	.globl	_Z13RUN_ALL_TESTSv
	.def	_Z13RUN_ALL_TESTSv;	.scl	2;	.type	32;	.endef
	.seh_proc	_Z13RUN_ALL_TESTSv
_Z13RUN_ALL_TESTSv:
.LFB7776:
	.file 1 "E:/Projects/Simulation_Projects/cva_cpp/build/_deps/googletest-src/googletest/include/gtest/gtest.h"
	.loc 1 2317 28
	.cfi_startproc
	pushq	%rbp	 #
	.seh_pushreg	%rbp
	.cfi_def_cfa_offset 16
	.cfi_offset 6, -16
	movq	%rsp, %rbp	 #,
	.seh_setframe	%rbp, 0
	.cfi_def_cfa_register 6
	subq	$32, %rsp	 #,
	.seh_stackalloc	32
	.seh_endprologue
 # E:/Projects/Simulation_Projects/cva_cpp/build/_deps/googletest-src/googletest/include/gtest/gtest.h:2317: inline int RUN_ALL_TESTS() { return ::testing::UnitTest::GetInstance()->Run(); }
	.loc 1 2317 76
	call	_ZN7testing8UnitTest11GetInstanceEv	 #
 # E:/Projects/Simulation_Projects/cva_cpp/build/_deps/googletest-src/googletest/include/gtest/gtest.h:2317: inline int RUN_ALL_TESTS() { return ::testing::UnitTest::GetInstance()->Run(); }
	.loc 1 2317 76 is_stmt 0 discriminator 1
	movq	%rax, %rcx	 # _1,
	call	_ZN7testing8UnitTest3RunEv	 #
 # E:/Projects/Simulation_Projects/cva_cpp/build/_deps/googletest-src/googletest/include/gtest/gtest.h:2317: inline int RUN_ALL_TESTS() { return ::testing::UnitTest::GetInstance()->Run(); }
	.loc 1 2317 80 is_stmt 1
	addq	$32, %rsp	 #,
	popq	%rbp	 #
	.cfi_restore 6
	.cfi_def_cfa 7, 8
	ret	
	.cfi_endproc
.LFE7776:
	.seh_endproc
	.section .rdata,"dr"
_ZN7testing8internalL14kInfoVerbosityE:
	.ascii "info\0"
	.align 8
_ZN7testing8internalL17kWarningVerbosityE:
	.ascii "warning\0"
_ZN7testing8internalL15kErrorVerbosityE:
	.ascii "error\0"
_ZN7testingL1_E:
	.space 1
	.align 8
.LC0:
	.ascii "Running main() from gmock_main.cc\12\0"
	.text
	.globl	main
	.def	main;	.scl	2;	.type	32;	.endef
	.seh_proc	main
main:
.LFB9164:
	.file 2 "E:/Projects/Simulation_Projects/cva_cpp/build/_deps/googletest-src/googlemock/src/gmock_main.cc"
	.loc 2 64 43
	.cfi_startproc
	pushq	%rbp	 #
	.seh_pushreg	%rbp
	.cfi_def_cfa_offset 16
	.cfi_offset 6, -16
	movq	%rsp, %rbp	 #,
	.seh_setframe	%rbp, 0
	.cfi_def_cfa_register 6
	subq	$32, %rsp	 #,
	.seh_stackalloc	32
	.seh_endprologue
	movl	%ecx, 16(%rbp)	 # argc, argc
	movq	%rdx, 24(%rbp)	 # argv, argv
 # E:\Projects\Simulation_Projects\cva_cpp\build\_deps\googletest-src\googlemock\src\gmock_main.cc:64: GTEST_API_ int main(int argc, char** argv) {
	.loc 2 64 43
	call	__main	 #
 # E:\Projects\Simulation_Projects\cva_cpp\build\_deps\googletest-src\googlemock\src\gmock_main.cc:66:   std::cout << "Running main() from gmock_main.cc\n";
	.loc 2 66 16
	leaq	.LC0(%rip), %rdx	 #, tmp100
	movq	.refptr._ZSt4cout(%rip), %rax	 #, tmp101
	movq	%rax, %rcx	 # tmp101,
	call	_ZStlsISt11char_traitsIcEERSt13basic_ostreamIcT_ES5_PKc	 #
 # E:\Projects\Simulation_Projects\cva_cpp\build\_deps\googletest-src\googlemock\src\gmock_main.cc:70:   testing::InitGoogleMock(&argc, argv);
	.loc 2 70 26
	movq	24(%rbp), %rax	 # argv, tmp102
	movq	%rax, %rdx	 # tmp102,
	leaq	16(%rbp), %rcx	 #,
	call	_ZN7testing14InitGoogleMockEPiPPc	 #
 # E:\Projects\Simulation_Projects\cva_cpp\build\_deps\googletest-src\googlemock\src\gmock_main.cc:71:   return RUN_ALL_TESTS();
	.loc 2 71 23
	call	_Z13RUN_ALL_TESTSv	 #
 # E:\Projects\Simulation_Projects\cva_cpp\build\_deps\googletest-src\googlemock\src\gmock_main.cc:71:   return RUN_ALL_TESTS();
	.loc 2 71 24
	nop	
 # E:\Projects\Simulation_Projects\cva_cpp\build\_deps\googletest-src\googlemock\src\gmock_main.cc:72: }
	.loc 2 72 1
	addq	$32, %rsp	 #,
	popq	%rbp	 #
	.cfi_restore 6
	.cfi_def_cfa 7, 8
	ret	
	.cfi_endproc
.LFE9164:
	.seh_endproc
.Letext0:
	.file 3 "D:/msys64/ucrt64/include/corecrt.h"
	.file 4 "D:/msys64/ucrt64/include/wchar.h"
	.file 5 "D:/msys64/ucrt64/include/c++/15.2.0/cwchar"
	.file 6 "D:/msys64/ucrt64/include/c++/15.2.0/x86_64-w64-mingw32/bits/c++config.h"
	.file 7 "D:/msys64/ucrt64/include/c++/15.2.0/type_traits"
	.file 8 "D:/msys64/ucrt64/include/c++/15.2.0/bits/exception_ptr.h"
	.file 9 "D:/msys64/ucrt64/include/c++/15.2.0/concepts"
	.file 10 "D:/msys64/ucrt64/include/c++/15.2.0/bits/iterator_concepts.h"
	.file 11 "D:/msys64/ucrt64/include/c++/15.2.0/compare"
	.file 12 "D:/msys64/ucrt64/include/c++/15.2.0/bits/basic_string.h"
	.file 13 "D:/msys64/ucrt64/include/c++/15.2.0/bits/char_traits.h"
	.file 14 "D:/msys64/ucrt64/include/c++/15.2.0/clocale"
	.file 15 "D:/msys64/ucrt64/include/c++/15.2.0/bits/new_allocator.h"
	.file 16 "D:/msys64/ucrt64/include/c++/15.2.0/bits/allocator.h"
	.file 17 "D:/msys64/ucrt64/include/c++/15.2.0/debug/debug.h"
	.file 18 "D:/msys64/ucrt64/include/c++/15.2.0/numbers"
	.file 19 "D:/msys64/ucrt64/include/c++/15.2.0/string_view"
	.file 20 "D:/msys64/ucrt64/include/c++/15.2.0/cstdlib"
	.file 21 "D:/msys64/ucrt64/include/c++/15.2.0/cstdio"
	.file 22 "D:/msys64/ucrt64/include/c++/15.2.0/bits/alloc_traits.h"
	.file 23 "D:/msys64/ucrt64/include/c++/15.2.0/initializer_list"
	.file 24 "D:/msys64/ucrt64/include/c++/15.2.0/bits/stl_iterator_base_types.h"
	.file 25 "D:/msys64/ucrt64/include/c++/15.2.0/cstddef"
	.file 26 "D:/msys64/ucrt64/include/c++/15.2.0/bits/memory_resource.h"
	.file 27 "D:/msys64/ucrt64/include/c++/15.2.0/system_error"
	.file 28 "D:/msys64/ucrt64/include/c++/15.2.0/cwctype"
	.file 29 "D:/msys64/ucrt64/include/c++/15.2.0/iosfwd"
	.file 30 "D:/msys64/ucrt64/include/c++/15.2.0/functional"
	.file 31 "D:/msys64/ucrt64/include/c++/15.2.0/bits/shared_ptr_base.h"
	.file 32 "D:/msys64/ucrt64/include/c++/15.2.0/cstdint"
	.file 33 "D:/msys64/ucrt64/include/c++/15.2.0/bits/std_abs.h"
	.file 34 "D:/msys64/ucrt64/include/c++/15.2.0/ctime"
	.file 35 "D:/msys64/ucrt64/include/c++/15.2.0/bits/chrono.h"
	.file 36 "D:/msys64/ucrt64/include/c++/15.2.0/bits/atomic_base.h"
	.file 37 "D:/msys64/ucrt64/include/c++/15.2.0/atomic"
	.file 38 "D:/msys64/ucrt64/include/c++/15.2.0/bits/stl_tree.h"
	.file 39 "D:/msys64/ucrt64/include/c++/15.2.0/cmath"
	.file 40 "D:/msys64/ucrt64/include/c++/15.2.0/bits/parse_numbers.h"
	.file 41 "D:/msys64/ucrt64/include/c++/15.2.0/bits/ostream.h"
	.file 42 "D:/msys64/ucrt64/include/swprintf.inl"
	.file 43 "D:/msys64/ucrt64/include/c++/15.2.0/bits/predefined_ops.h"
	.file 44 "D:/msys64/ucrt64/include/c++/15.2.0/ext/alloc_traits.h"
	.file 45 "D:/msys64/ucrt64/include/c++/15.2.0/bits/stl_iterator.h"
	.file 46 "D:/msys64/ucrt64/include/stddef.h"
	.file 47 "D:/msys64/ucrt64/include/stdio.h"
	.file 48 "D:/msys64/ucrt64/include/locale.h"
	.file 49 "D:/msys64/ucrt64/include/sys/types.h"
	.file 50 "D:/msys64/ucrt64/include/time.h"
	.file 51 "D:/msys64/ucrt64/include/c++/15.2.0/bits/ptr_traits.h"
	.file 52 "D:/msys64/ucrt64/include/stdlib.h"
	.file 53 "D:/msys64/ucrt64/include/process.h"
	.file 54 "D:/msys64/ucrt64/include/wctype.h"
	.file 55 "D:/msys64/ucrt64/include/corecrt_wctype.h"
	.file 56 "D:/msys64/ucrt64/include/c++/15.2.0/pstl/execution_defs.h"
	.file 57 "D:/msys64/ucrt64/include/stdint.h"
	.file 58 "D:/msys64/ucrt64/include/c++/15.2.0/stdlib.h"
	.file 59 "E:/Projects/Simulation_Projects/cva_cpp/build/_deps/googletest-src/googletest/include/gtest/internal/gtest-port.h"
	.file 60 "D:/msys64/ucrt64/include/c++/15.2.0/ext/concurrence.h"
	.file 61 "D:/msys64/ucrt64/include/c++/15.2.0/iostream"
	.file 62 "E:/Projects/Simulation_Projects/cva_cpp/build/_deps/googletest-src/googletest/include/gtest/internal/gtest-internal.h"
	.file 63 "E:/Projects/Simulation_Projects/cva_cpp/build/_deps/googletest-src/googletest/include/gtest/gtest-printers.h"
	.file 64 "E:/Projects/Simulation_Projects/cva_cpp/build/_deps/googletest-src/googletest/include/gtest/gtest-matchers.h"
	.file 65 "E:/Projects/Simulation_Projects/cva_cpp/build/_deps/googletest-src/googletest/include/gtest/internal/gtest-death-test-internal.h"
	.file 66 "E:/Projects/Simulation_Projects/cva_cpp/build/_deps/googletest-src/googlemock/include/gmock/internal/gmock-internal-utils.h"
	.file 67 "E:/Projects/Simulation_Projects/cva_cpp/build/_deps/googletest-src/googlemock/include/gmock/gmock-matchers.h"
	.file 68 "E:/Projects/Simulation_Projects/cva_cpp/build/_deps/googletest-src/googlemock/include/gmock/gmock.h"
	.file 69 "D:/msys64/ucrt64/include/c++/15.2.0/bits/cxxabi_init_exception.h"
	.file 70 "D:/msys64/ucrt64/include/math.h"
	.file 71 "D:/msys64/ucrt64/include/c++/15.2.0/bits/ranges_cmp.h"
	.file 72 "D:/msys64/ucrt64/include/c++/15.2.0/cxxabi.h"
	.section	.rdata$.refptr._ZSt4cout, "dr"
	.p2align	3, 0
	.globl	.refptr._ZSt4cout
	.linkonce	discard
.refptr._ZSt4cout:
	.quad	_ZSt4cout
