	.file	"monte_carlo.cpp"
 # GNU C++20 (Rev8, Built by MSYS2 project) version 15.2.0 (x86_64-w64-mingw32)
 #	compiled by GNU C version 15.2.0, GMP version 6.3.0, MPFR version 4.2.2, MPC version 1.3.1, isl version isl-0.27-GMP

 # GGC heuristics: --param ggc-min-expand=100 --param ggc-min-heapsize=131072
 # options passed: -mtune=generic -march=nocona -g -std=c++20
	.text
.Ltext0:
	.cfi_sections	.debug_frame
	.file 0 "E://Projects//Simulation_Projects//cva_cpp//build" "E:/Projects/Simulation_Projects/cva_cpp/src_cpp/engine/monte_carlo.cpp"
	.section	.text$_ZSt21is_constant_evaluatedv,"x"
	.linkonce discard
	.globl	_ZSt21is_constant_evaluatedv
	.def	_ZSt21is_constant_evaluatedv;	.scl	2;	.type	32;	.endef
	.seh_proc	_ZSt21is_constant_evaluatedv
_ZSt21is_constant_evaluatedv:
.LFB15:
	.file 1 "D:/msys64/ucrt64/include/c++/15.2.0/type_traits"
	.loc 1 4007 3
	.cfi_startproc
	pushq	%rbp	 #
	.seh_pushreg	%rbp
	.cfi_def_cfa_offset 16
	.cfi_offset 6, -16
	movq	%rsp, %rbp	 #,
	.seh_setframe	%rbp, 0
	.cfi_def_cfa_register 6
	.seh_endprologue
 # D:/msys64/ucrt64/include/c++/15.2.0/type_traits:4011:     return __builtin_is_constant_evaluated();
	.loc 1 4011 44
	movl	$0, %eax	 #, _1
 # D:/msys64/ucrt64/include/c++/15.2.0/type_traits:4013:   }
	.loc 1 4013 3
	popq	%rbp	 #
	.cfi_restore 6
	.cfi_def_cfa 7, 8
	ret	
	.cfi_endproc
.LFE15:
	.seh_endproc
	.section	.text$_ZnwyPv,"x"
	.linkonce discard
	.globl	_ZnwyPv
	.def	_ZnwyPv;	.scl	2;	.type	32;	.endef
	.seh_proc	_ZnwyPv
_ZnwyPv:
.LFB203:
	.file 2 "D:/msys64/ucrt64/include/c++/15.2.0/new"
	.loc 2 208 1
	.cfi_startproc
	pushq	%rbp	 #
	.seh_pushreg	%rbp
	.cfi_def_cfa_offset 16
	.cfi_offset 6, -16
	movq	%rsp, %rbp	 #,
	.seh_setframe	%rbp, 0
	.cfi_def_cfa_register 6
	.seh_endprologue
	movq	%rcx, 16(%rbp)	 # D.12411, D.12411
	movq	%rdx, 24(%rbp)	 # __p, __p
 # D:/msys64/ucrt64/include/c++/15.2.0/new:208: { return __p; }
	.loc 2 208 10
	movq	24(%rbp), %rax	 # __p, _2
 # D:/msys64/ucrt64/include/c++/15.2.0/new:208: { return __p; }
	.loc 2 208 15
	popq	%rbp	 #
	.cfi_restore 6
	.cfi_def_cfa 7, 8
	ret	
	.cfi_endproc
.LFE203:
	.seh_endproc
	.section	.text$_ZdlPvS_,"x"
	.linkonce discard
	.globl	_ZdlPvS_
	.def	_ZdlPvS_;	.scl	2;	.type	32;	.endef
	.seh_proc	_ZdlPvS_
_ZdlPvS_:
.LFB205:
	.loc 2 219 1
	.cfi_startproc
	pushq	%rbp	 #
	.seh_pushreg	%rbp
	.cfi_def_cfa_offset 16
	.cfi_offset 6, -16
	movq	%rsp, %rbp	 #,
	.seh_setframe	%rbp, 0
	.cfi_def_cfa_register 6
	.seh_endprologue
	movq	%rcx, 16(%rbp)	 # D.12419, D.12419
	movq	%rdx, 24(%rbp)	 # D.12420, D.12420
 # D:/msys64/ucrt64/include/c++/15.2.0/new:219: { }
	.loc 2 219 3
	nop	
	popq	%rbp	 #
	.cfi_restore 6
	.cfi_def_cfa 7, 8
	ret	
	.cfi_endproc
.LFE205:
	.seh_endproc
	.section	.text$_ZN3cva4math6MatrixC1Eyyd,"x"
	.linkonce discard
	.align 2
	.globl	_ZN3cva4math6MatrixC1Eyyd
	.def	_ZN3cva4math6MatrixC1Eyyd;	.scl	2;	.type	32;	.endef
	.seh_proc	_ZN3cva4math6MatrixC1Eyyd
_ZN3cva4math6MatrixC1Eyyd:
.LFB2950:
	.file 3 "E:/Projects/Simulation_Projects/cva_cpp/includes_hpp/math/matrix.hpp"
	.loc 3 15 9
	.cfi_startproc
	pushq	%rbp	 #
	.seh_pushreg	%rbp
	.cfi_def_cfa_offset 16
	.cfi_offset 6, -16
	movq	%rsp, %rbp	 #,
	.seh_setframe	%rbp, 0
	.cfi_def_cfa_register 6
	subq	$48, %rsp	 #,
	.seh_stackalloc	48
	.seh_endprologue
	movq	%rcx, 16(%rbp)	 # this, this
	movq	%rdx, 24(%rbp)	 # rows, rows
	movq	%r8, 32(%rbp)	 # cols, cols
	movsd	%xmm3, 40(%rbp)	 # initial_value, initial_value
.LBB205:
 # E:/Projects/Simulation_Projects/cva_cpp/includes_hpp/math/matrix.hpp:16:             : rows_(rows), cols_(cols), data_(rows * cols, initial_value) {}
	.loc 3 16 15
	movq	16(%rbp), %rax	 # this, tmp101
	movq	24(%rbp), %rdx	 # rows, tmp102
	movq	%rdx, (%rax)	 # tmp102, this_5(D)->rows_
 # E:/Projects/Simulation_Projects/cva_cpp/includes_hpp/math/matrix.hpp:16:             : rows_(rows), cols_(cols), data_(rows * cols, initial_value) {}
	.loc 3 16 28
	movq	16(%rbp), %rax	 # this, tmp103
	movq	32(%rbp), %rdx	 # cols, tmp104
	movq	%rdx, 8(%rax)	 # tmp104, this_5(D)->cols_
 # E:/Projects/Simulation_Projects/cva_cpp/includes_hpp/math/matrix.hpp:16:             : rows_(rows), cols_(cols), data_(rows * cols, initial_value) {}
	.loc 3 16 41
	movq	16(%rbp), %rax	 # this, tmp105
	leaq	16(%rax), %rcx	 #, _1
	leaq	-9(%rbp), %rax	 #, tmp106
	movq	%rax, -8(%rbp)	 # tmp106, this
.LBB206:
.LBB207:
.LBB208:
.LBB209:
.LBB210:
 # D:/msys64/ucrt64/include/c++/15.2.0/bits/new_allocator.h:88:       __new_allocator() _GLIBCXX_USE_NOEXCEPT { }
	.file 4 "D:/msys64/ucrt64/include/c++/15.2.0/bits/new_allocator.h"
	.loc 4 88 36
	nop	
.LBE210:
.LBE209:
.LBE208:
 # D:/msys64/ucrt64/include/c++/15.2.0/bits/allocator.h:168:       allocator() _GLIBCXX_NOTHROW { }
	.file 5 "D:/msys64/ucrt64/include/c++/15.2.0/bits/allocator.h"
	.loc 5 168 30
	nop	
.LBE207:
.LBE206:
 # E:/Projects/Simulation_Projects/cva_cpp/includes_hpp/math/matrix.hpp:16:             : rows_(rows), cols_(cols), data_(rows * cols, initial_value) {}
	.loc 3 16 41 discriminator 1
	movq	24(%rbp), %rax	 # rows, tmp107
	imulq	32(%rbp), %rax	 # cols, _2
	leaq	-9(%rbp), %r8	 #, tmp108
	leaq	40(%rbp), %rdx	 #, tmp109
	movq	%r8, %r9	 # tmp108,
	movq	%rdx, %r8	 # tmp109,
	movq	%rax, %rdx	 # _2,
	call	_ZNSt6vectorIdSaIdEEC1EyRKdRKS0_	 #
.LBB211:
.LBB212:
 # D:/msys64/ucrt64/include/c++/15.2.0/bits/allocator.h:189:       ~allocator() _GLIBCXX_NOTHROW { }
	.loc 5 189 31
	nop	
.LBE212:
.LBE211:
.LBE205:
 # E:/Projects/Simulation_Projects/cva_cpp/includes_hpp/math/matrix.hpp:16:             : rows_(rows), cols_(cols), data_(rows * cols, initial_value) {}
	.loc 3 16 76
	nop	
	addq	$48, %rsp	 #,
	popq	%rbp	 #
	.cfi_restore 6
	.cfi_def_cfa 7, 8
	ret	
	.cfi_endproc
.LFE2950:
	.seh_endproc
	.section	.text$_ZN3cva4math6MatrixclEyy,"x"
	.linkonce discard
	.align 2
	.globl	_ZN3cva4math6MatrixclEyy
	.def	_ZN3cva4math6MatrixclEyy;	.scl	2;	.type	32;	.endef
	.seh_proc	_ZN3cva4math6MatrixclEyy
_ZN3cva4math6MatrixclEyy:
.LFB2953:
	.loc 3 22 17
	.cfi_startproc
	pushq	%rbp	 #
	.seh_pushreg	%rbp
	.cfi_def_cfa_offset 16
	.cfi_offset 6, -16
	movq	%rsp, %rbp	 #,
	.seh_setframe	%rbp, 0
	.cfi_def_cfa_register 6
	subq	$32, %rsp	 #,
	.seh_stackalloc	32
	.seh_endprologue
	movq	%rcx, 16(%rbp)	 # this, this
	movq	%rdx, 24(%rbp)	 # i, i
	movq	%r8, 32(%rbp)	 # j, j
 # E:/Projects/Simulation_Projects/cva_cpp/includes_hpp/math/matrix.hpp:23:             return data_[i * cols_ + j];
	.loc 3 23 39
	movq	16(%rbp), %rax	 # this, tmp104
	addq	$16, %rax	 #, _1
 # E:/Projects/Simulation_Projects/cva_cpp/includes_hpp/math/matrix.hpp:23:             return data_[i * cols_ + j];
	.loc 3 23 30
	movq	16(%rbp), %rdx	 # this, tmp105
	movq	8(%rdx), %rdx	 # this_5(D)->cols_, _2
 # E:/Projects/Simulation_Projects/cva_cpp/includes_hpp/math/matrix.hpp:23:             return data_[i * cols_ + j];
	.loc 3 23 28
	movq	%rdx, %rcx	 # _2, _2
	imulq	24(%rbp), %rcx	 # i, _2
 # E:/Projects/Simulation_Projects/cva_cpp/includes_hpp/math/matrix.hpp:23:             return data_[i * cols_ + j];
	.loc 3 23 39
	movq	32(%rbp), %rdx	 # j, tmp106
	addq	%rcx, %rdx	 # _3, _4
	movq	%rax, %rcx	 # _1,
	call	_ZNSt6vectorIdSaIdEEixEy	 #
 # E:/Projects/Simulation_Projects/cva_cpp/includes_hpp/math/matrix.hpp:24:         }
	.loc 3 24 9
	addq	$32, %rsp	 #,
	popq	%rbp	 #
	.cfi_restore 6
	.cfi_def_cfa 7, 8
	ret	
	.cfi_endproc
.LFE2953:
	.seh_endproc
	.section	.text$_ZNSt12_Vector_baseIdSaIdEE12_Vector_implD1Ev,"x"
	.linkonce discard
	.align 2
	.globl	_ZNSt12_Vector_baseIdSaIdEE12_Vector_implD1Ev
	.def	_ZNSt12_Vector_baseIdSaIdEE12_Vector_implD1Ev;	.scl	2;	.type	32;	.endef
	.seh_proc	_ZNSt12_Vector_baseIdSaIdEE12_Vector_implD1Ev
_ZNSt12_Vector_baseIdSaIdEE12_Vector_implD1Ev:
.LFB4844:
	.file 6 "D:/msys64/ucrt64/include/c++/15.2.0/bits/stl_vector.h"
	.loc 6 139 14
	.cfi_startproc
	pushq	%rbp	 #
	.seh_pushreg	%rbp
	.cfi_def_cfa_offset 16
	.cfi_offset 6, -16
	movq	%rsp, %rbp	 #,
	.seh_setframe	%rbp, 0
	.cfi_def_cfa_register 6
	subq	$16, %rsp	 #,
	.seh_stackalloc	16
	.seh_endprologue
	movq	%rcx, 16(%rbp)	 # this, this
	movq	16(%rbp), %rax	 # this, tmp98
	movq	%rax, -8(%rbp)	 # tmp98, this
.LBB213:
.LBB214:
.LBB215:
 # D:/msys64/ucrt64/include/c++/15.2.0/bits/allocator.h:189:       ~allocator() _GLIBCXX_NOTHROW { }
	.loc 5 189 31
	nop	
.LBE215:
.LBE214:
.LBE213:
 # D:/msys64/ucrt64/include/c++/15.2.0/bits/stl_vector.h:139:       struct _Vector_impl
	.loc 6 139 14
	nop	
	addq	$16, %rsp	 #,
	popq	%rbp	 #
	.cfi_restore 6
	.cfi_def_cfa 7, 8
	ret	
	.cfi_endproc
.LFE4844:
	.seh_endproc
	.section	.text$_ZNSt12_Vector_baseIdSaIdEEC2Ev,"x"
	.linkonce discard
	.align 2
	.globl	_ZNSt12_Vector_baseIdSaIdEEC2Ev
	.def	_ZNSt12_Vector_baseIdSaIdEEC2Ev;	.scl	2;	.type	32;	.endef
	.seh_proc	_ZNSt12_Vector_baseIdSaIdEEC2Ev
_ZNSt12_Vector_baseIdSaIdEEC2Ev:
.LFB4845:
	.loc 6 321 7
	.cfi_startproc
	pushq	%rbp	 #
	.seh_pushreg	%rbp
	.cfi_def_cfa_offset 16
	.cfi_offset 6, -16
	movq	%rsp, %rbp	 #,
	.seh_setframe	%rbp, 0
	.cfi_def_cfa_register 6
	subq	$32, %rsp	 #,
	.seh_stackalloc	32
	.seh_endprologue
	movq	%rcx, 16(%rbp)	 # this, this
.LBB216:
 # D:/msys64/ucrt64/include/c++/15.2.0/bits/stl_vector.h:321:       _Vector_base() = default;
	.loc 6 321 7
	movq	16(%rbp), %rax	 # this, _1
	movq	%rax, %rcx	 # _1,
	call	_ZNSt12_Vector_baseIdSaIdEE12_Vector_implC1EvQ26is_default_constructible_vIN9__gnu_cxx14__alloc_traitsIT0_NS5_10value_typeEE6rebindIT_E5otherEE	 #
.LBE216:
	nop	
	addq	$32, %rsp	 #,
	popq	%rbp	 #
	.cfi_restore 6
	.cfi_def_cfa 7, 8
	ret	
	.cfi_endproc
.LFE4845:
	.seh_endproc
	.section	.text$_ZNSt6vectorIdSaIdEEC1Ev,"x"
	.linkonce discard
	.align 2
	.globl	_ZNSt6vectorIdSaIdEEC1Ev
	.def	_ZNSt6vectorIdSaIdEEC1Ev;	.scl	2;	.type	32;	.endef
	.seh_proc	_ZNSt6vectorIdSaIdEEC1Ev
_ZNSt6vectorIdSaIdEEC1Ev:
.LFB4848:
	.loc 6 561 7
	.cfi_startproc
	pushq	%rbp	 #
	.seh_pushreg	%rbp
	.cfi_def_cfa_offset 16
	.cfi_offset 6, -16
	movq	%rsp, %rbp	 #,
	.seh_setframe	%rbp, 0
	.cfi_def_cfa_register 6
	subq	$32, %rsp	 #,
	.seh_stackalloc	32
	.seh_endprologue
	movq	%rcx, 16(%rbp)	 # this, this
.LBB217:
 # D:/msys64/ucrt64/include/c++/15.2.0/bits/stl_vector.h:561:       vector() = default;
	.loc 6 561 7
	movq	16(%rbp), %rax	 # this, _1
	movq	%rax, %rcx	 # _1,
	call	_ZNSt12_Vector_baseIdSaIdEEC2Ev	 #
.LBE217:
	nop	
	addq	$32, %rsp	 #,
	popq	%rbp	 #
	.cfi_restore 6
	.cfi_def_cfa 7, 8
	ret	
	.cfi_endproc
.LFE4848:
	.seh_endproc
	.text
	.align 2
	.globl	_ZN3cva6engine16MonteCarloEngineC2Emyyd
	.def	_ZN3cva6engine16MonteCarloEngineC2Emyyd;	.scl	2;	.type	32;	.endef
	.seh_proc	_ZN3cva6engine16MonteCarloEngineC2Emyyd
_ZN3cva6engine16MonteCarloEngineC2Emyyd:
.LFB4849:
	.file 7 "E:/Projects/Simulation_Projects/cva_cpp/src_cpp/engine/monte_carlo.cpp"
	.loc 7 6 5
	.cfi_startproc
	pushq	%rbp	 #
	.seh_pushreg	%rbp
	.cfi_def_cfa_offset 16
	.cfi_offset 6, -16
	pushq	%rbx	 #
	.seh_pushreg	%rbx
	.cfi_def_cfa_offset 24
	.cfi_offset 3, -24
	subq	$56, %rsp	 #,
	.seh_stackalloc	56
	.cfi_def_cfa_offset 80
	leaq	48(%rsp), %rbp	 #,
	.seh_setframe	%rbp, 48
	.cfi_def_cfa 6, 32
	.seh_endprologue
	movq	%rcx, 32(%rbp)	 # this, this
	movl	%edx, 40(%rbp)	 # seed, seed
	movq	%r8, 48(%rbp)	 # num_paths, num_paths
	movq	%r9, 56(%rbp)	 # num_steps, num_steps
.LBB218:
 # E:\Projects\Simulation_Projects\cva_cpp\src_cpp\engine\monte_carlo.cpp:7:         : num_paths_(num_paths), num_steps_(num_steps), dt_(T / num_steps), rng_(seed) {
	.loc 7 7 11
	movq	32(%rbp), %rax	 # this, tmp112
	movq	48(%rbp), %rdx	 # num_paths, tmp113
	movq	%rdx, (%rax)	 # tmp113, this_18(D)->num_paths_
 # E:\Projects\Simulation_Projects\cva_cpp\src_cpp\engine\monte_carlo.cpp:7:         : num_paths_(num_paths), num_steps_(num_steps), dt_(T / num_steps), rng_(seed) {
	.loc 7 7 34
	movq	32(%rbp), %rax	 # this, tmp114
	movq	56(%rbp), %rdx	 # num_steps, tmp115
	movq	%rdx, 8(%rax)	 # tmp115, this_18(D)->num_steps_
 # E:\Projects\Simulation_Projects\cva_cpp\src_cpp\engine\monte_carlo.cpp:7:         : num_paths_(num_paths), num_steps_(num_steps), dt_(T / num_steps), rng_(seed) {
	.loc 7 7 63
	movq	56(%rbp), %rax	 # num_steps, tmp116
	testq	%rax, %rax	 # tmp116
	js	.L13	 #,
	pxor	%xmm0, %xmm0	 # _1
	cvtsi2sdq	%rax, %xmm0	 # tmp116, _1
	jmp	.L14	 #
.L13:
	movq	%rax, %rdx	 # tmp116, tmp118
	shrq	%rdx	 # tmp118
	andl	$1, %eax	 #, tmp119
	orq	%rax, %rdx	 # tmp119, tmp118
	pxor	%xmm0, %xmm0	 # tmp117
	cvtsi2sdq	%rdx, %xmm0	 # tmp118, tmp117
	addsd	%xmm0, %xmm0	 # tmp117, _1
.L14:
	movsd	64(%rbp), %xmm1	 # T, tmp120
	divsd	%xmm0, %xmm1	 # _1, _2
 # E:\Projects\Simulation_Projects\cva_cpp\src_cpp\engine\monte_carlo.cpp:7:         : num_paths_(num_paths), num_steps_(num_steps), dt_(T / num_steps), rng_(seed) {
	.loc 7 7 57
	movq	32(%rbp), %rax	 # this, tmp121
	movsd	%xmm1, 16(%rax)	 # _2, this_18(D)->dt_
 # E:\Projects\Simulation_Projects\cva_cpp\src_cpp\engine\monte_carlo.cpp:7:         : num_paths_(num_paths), num_steps_(num_steps), dt_(T / num_steps), rng_(seed) {
	.loc 7 7 86
	movq	32(%rbp), %rax	 # this, tmp122
	addq	$24, %rax	 #, _3
	movq	%rax, %rcx	 # _3,
	call	_ZNSt6vectorIdSaIdEEC1Ev	 #
 # E:\Projects\Simulation_Projects\cva_cpp\src_cpp\engine\monte_carlo.cpp:7:         : num_paths_(num_paths), num_steps_(num_steps), dt_(T / num_steps), rng_(seed) {
	.loc 7 7 77 discriminator 1
	movq	32(%rbp), %rax	 # this, tmp123
	leaq	48(%rax), %rcx	 #, _4
	movl	40(%rbp), %eax	 # seed, tmp124
	movl	%eax, %edx	 # tmp124,
.LEHB0:
	call	_ZN3cva4math15RandomGeneratorC1Em	 #
.LBB219:
 # E:\Projects\Simulation_Projects\cva_cpp\src_cpp\engine\monte_carlo.cpp:9:         time_grid_.reserve(num_steps_ + 1);
	.loc 7 9 27
	movq	32(%rbp), %rax	 # this, tmp125
	addq	$24, %rax	 #, _5
 # E:\Projects\Simulation_Projects\cva_cpp\src_cpp\engine\monte_carlo.cpp:9:         time_grid_.reserve(num_steps_ + 1);
	.loc 7 9 28
	movq	32(%rbp), %rdx	 # this, tmp126
	movq	8(%rdx), %rdx	 # this_18(D)->num_steps_, _6
 # E:\Projects\Simulation_Projects\cva_cpp\src_cpp\engine\monte_carlo.cpp:9:         time_grid_.reserve(num_steps_ + 1);
	.loc 7 9 27
	addq	$1, %rdx	 #, _7
	movq	%rax, %rcx	 # _5,
	call	_ZNSt6vectorIdSaIdEE7reserveEy	 #
.LBB220:
 # E:\Projects\Simulation_Projects\cva_cpp\src_cpp\engine\monte_carlo.cpp:10:         for (size_t i = 0; i <= num_steps_; ++i) {
	.loc 7 10 21
	movq	$0, -8(%rbp)	 #, i
 # E:\Projects\Simulation_Projects\cva_cpp\src_cpp\engine\monte_carlo.cpp:10:         for (size_t i = 0; i <= num_steps_; ++i) {
	.loc 7 10 9
	jmp	.L15	 #
.L18:
 # E:\Projects\Simulation_Projects\cva_cpp\src_cpp\engine\monte_carlo.cpp:11:             time_grid_.push_back(i * dt_);
	.loc 7 11 33
	movq	32(%rbp), %rax	 # this, tmp127
	leaq	24(%rax), %rcx	 #, _8
 # E:\Projects\Simulation_Projects\cva_cpp\src_cpp\engine\monte_carlo.cpp:11:             time_grid_.push_back(i * dt_);
	.loc 7 11 36
	movq	-8(%rbp), %rax	 # i, tmp128
	testq	%rax, %rax	 # tmp128
	js	.L16	 #,
	pxor	%xmm0, %xmm0	 # _9
	cvtsi2sdq	%rax, %xmm0	 # tmp128, _9
	jmp	.L17	 #
.L16:
	movq	%rax, %rdx	 # tmp128, tmp130
	shrq	%rdx	 # tmp130
	andl	$1, %eax	 #, tmp131
	orq	%rax, %rdx	 # tmp131, tmp130
	pxor	%xmm0, %xmm0	 # tmp129
	cvtsi2sdq	%rdx, %xmm0	 # tmp130, tmp129
	addsd	%xmm0, %xmm0	 # tmp129, _9
.L17:
 # E:\Projects\Simulation_Projects\cva_cpp\src_cpp\engine\monte_carlo.cpp:11:             time_grid_.push_back(i * dt_);
	.loc 7 11 38
	movq	32(%rbp), %rax	 # this, tmp132
	movsd	16(%rax), %xmm1	 # this_18(D)->dt_, _10
 # E:\Projects\Simulation_Projects\cva_cpp\src_cpp\engine\monte_carlo.cpp:11:             time_grid_.push_back(i * dt_);
	.loc 7 11 36
	mulsd	%xmm1, %xmm0	 # _10, _11
	movsd	%xmm0, -16(%rbp)	 # _11, D.86959
 # E:\Projects\Simulation_Projects\cva_cpp\src_cpp\engine\monte_carlo.cpp:11:             time_grid_.push_back(i * dt_);
	.loc 7 11 33
	leaq	-16(%rbp), %rax	 #, tmp133
	movq	%rax, %rdx	 # tmp133,
	call	_ZNSt6vectorIdSaIdEE9push_backEOd	 #
.LEHE0:
 # E:\Projects\Simulation_Projects\cva_cpp\src_cpp\engine\monte_carlo.cpp:10:         for (size_t i = 0; i <= num_steps_; ++i) {
	.loc 7 10 9 discriminator 2
	addq	$1, -8(%rbp)	 #, i
.L15:
 # E:\Projects\Simulation_Projects\cva_cpp\src_cpp\engine\monte_carlo.cpp:10:         for (size_t i = 0; i <= num_steps_; ++i) {
	.loc 7 10 33 discriminator 1
	movq	32(%rbp), %rax	 # this, tmp134
	movq	8(%rax), %rax	 # this_18(D)->num_steps_, _12
 # E:\Projects\Simulation_Projects\cva_cpp\src_cpp\engine\monte_carlo.cpp:10:         for (size_t i = 0; i <= num_steps_; ++i) {
	.loc 7 10 30 discriminator 1
	cmpq	-8(%rbp), %rax	 # i, _12
	jnb	.L18	 #,
.LBE220:
.LBE219:
.LBE218:
 # E:\Projects\Simulation_Projects\cva_cpp\src_cpp\engine\monte_carlo.cpp:13:     }
	.loc 7 13 5
	jmp	.L21	 #
.L20:
.LBB221:
	movq	%rax, %rbx	 #, tmp136
	movq	32(%rbp), %rax	 # this, tmp135
	addq	$24, %rax	 #, _13
	movq	%rax, %rcx	 # _13,
	call	_ZNSt6vectorIdSaIdEED1Ev	 #
	movq	%rbx, %rax	 # tmp136, D.97648
	movq	%rax, %rcx	 # D.97648,
.LEHB1:
	call	_Unwind_Resume	 #
	nop	
.LEHE1:
.L21:
.LBE221:
	addq	$56, %rsp	 #,
	popq	%rbx	 #
	.cfi_restore 3
	popq	%rbp	 #
	.cfi_restore 6
	.cfi_def_cfa 7, -40
	ret	
	.cfi_endproc
.LFE4849:
	.seh_handler	__gxx_personality_seh0, @unwind, @except
	.seh_handlerdata
.LLSDA4849:
	.byte	0xff
	.byte	0xff
	.byte	0x1
	.uleb128 .LLSDACSE4849-.LLSDACSB4849
.LLSDACSB4849:
	.uleb128 .LEHB0-.LFB4849
	.uleb128 .LEHE0-.LEHB0
	.uleb128 .L20-.LFB4849
	.uleb128 0
	.uleb128 .LEHB1-.LFB4849
	.uleb128 .LEHE1-.LEHB1
	.uleb128 0
	.uleb128 0
.LLSDACSE4849:
	.text
	.seh_endproc
	.globl	_ZN3cva6engine16MonteCarloEngineC1Emyyd
	.def	_ZN3cva6engine16MonteCarloEngineC1Emyyd;	.scl	2;	.type	32;	.endef
	.set	_ZN3cva6engine16MonteCarloEngineC1Emyyd,_ZN3cva6engine16MonteCarloEngineC2Emyyd
	.section	.text$_ZN3cva4math6MatrixD1Ev,"x"
	.linkonce discard
	.align 2
	.globl	_ZN3cva4math6MatrixD1Ev
	.def	_ZN3cva4math6MatrixD1Ev;	.scl	2;	.type	32;	.endef
	.seh_proc	_ZN3cva4math6MatrixD1Ev
_ZN3cva4math6MatrixD1Ev:
.LFB4854:
	.loc 3 13 11
	.cfi_startproc
	pushq	%rbp	 #
	.seh_pushreg	%rbp
	.cfi_def_cfa_offset 16
	.cfi_offset 6, -16
	movq	%rsp, %rbp	 #,
	.seh_setframe	%rbp, 0
	.cfi_def_cfa_register 6
	subq	$32, %rsp	 #,
	.seh_stackalloc	32
	.seh_endprologue
	movq	%rcx, 16(%rbp)	 # this, this
.LBB222:
 # E:/Projects/Simulation_Projects/cva_cpp/includes_hpp/math/matrix.hpp:13:     class Matrix {
	.loc 3 13 11
	movq	16(%rbp), %rax	 # this, tmp99
	addq	$16, %rax	 #, _1
	movq	%rax, %rcx	 # _1,
	call	_ZNSt6vectorIdSaIdEED1Ev	 #
.LBE222:
	nop	
	addq	$32, %rsp	 #,
	popq	%rbp	 #
	.cfi_restore 6
	.cfi_def_cfa 7, 8
	ret	
	.cfi_endproc
.LFE4854:
	.seh_endproc
	.text
	.align 2
	.globl	_ZN3cva6engine16MonteCarloEngine14run_simulationEddd
	.def	_ZN3cva6engine16MonteCarloEngine14run_simulationEddd;	.scl	2;	.type	32;	.endef
	.seh_proc	_ZN3cva6engine16MonteCarloEngine14run_simulationEddd
_ZN3cva6engine16MonteCarloEngine14run_simulationEddd:
.LFB4851:
	.loc 7 15 86
	.cfi_startproc
	pushq	%rbp	 #
	.seh_pushreg	%rbp
	.cfi_def_cfa_offset 16
	.cfi_offset 6, -16
	pushq	%rbx	 #
	.seh_pushreg	%rbx
	.cfi_def_cfa_offset 24
	.cfi_offset 3, -24
	subq	$152, %rsp	 #,
	.seh_stackalloc	152
	.cfi_def_cfa_offset 176
	leaq	128(%rsp), %rbp	 #,
	.seh_setframe	%rbp, 128
	.cfi_def_cfa 6, 48
	movups	%xmm6, 0(%rbp)	 #,
	.seh_savexmm	%xmm6, 128
	.cfi_offset 23, -48
	.seh_endprologue
	movq	%rcx, 48(%rbp)	 # .result_ptr, .result_ptr
	movq	%rdx, 56(%rbp)	 # this, this
	movsd	%xmm2, 64(%rbp)	 # s0, s0
	movsd	%xmm3, 72(%rbp)	 # r, r
 # E:\Projects\Simulation_Projects\cva_cpp\src_cpp\engine\monte_carlo.cpp:17:         math::Matrix paths(num_paths_, num_steps_ + 1);
	.loc 7 17 40
	movq	56(%rbp), %rax	 # this, tmp126
	movq	8(%rax), %rax	 # this_34(D)->num_steps_, _1
 # E:\Projects\Simulation_Projects\cva_cpp\src_cpp\engine\monte_carlo.cpp:17:         math::Matrix paths(num_paths_, num_steps_ + 1);
	.loc 7 17 54
	leaq	1(%rax), %rcx	 #, _2
	movq	56(%rbp), %rax	 # this, tmp127
	movq	(%rax), %rdx	 # this_34(D)->num_paths_, _3
	movq	48(%rbp), %rax	 # <retval>, tmp128
	pxor	%xmm3, %xmm3	 #
	movq	%rcx, %r8	 # _2,
	movq	%rax, %rcx	 # tmp128,
.LEHB2:
	call	_ZN3cva4math6MatrixC1Eyyd	 #
.LEHE2:
 # E:\Projects\Simulation_Projects\cva_cpp\src_cpp\engine\monte_carlo.cpp:23:         math::Matrix random_shocks(num_paths_, num_steps_);
	.loc 7 23 58
	movq	56(%rbp), %rax	 # this, tmp129
	movq	8(%rax), %rcx	 # this_34(D)->num_steps_, _4
	movq	56(%rbp), %rax	 # this, tmp130
	movq	(%rax), %rdx	 # this_34(D)->num_paths_, _5
	leaq	-96(%rbp), %rax	 #, tmp131
	pxor	%xmm3, %xmm3	 #
	movq	%rcx, %r8	 # _4,
	movq	%rax, %rcx	 # tmp131,
.LEHB3:
	call	_ZN3cva4math6MatrixC1Eyyd	 #
.LEHE3:
 # E:\Projects\Simulation_Projects\cva_cpp\src_cpp\engine\monte_carlo.cpp:24:         rng_.generate_standard_normal(random_shocks);
	.loc 7 24 38
	movq	56(%rbp), %rax	 # this, tmp132
	leaq	48(%rax), %rcx	 #, _6
	leaq	-96(%rbp), %rax	 #, tmp133
	movq	%rax, %rdx	 # tmp133,
.LEHB4:
	call	_ZN3cva4math15RandomGenerator24generate_standard_normalERNS0_6MatrixE	 #
.LEHE4:
 # E:\Projects\Simulation_Projects\cva_cpp\src_cpp\engine\monte_carlo.cpp:26:         double drift = (r - 0.5 * sigma * sigma) * dt_;
	.loc 7 26 33
	movsd	80(%rbp), %xmm1	 # sigma, tmp134
	movsd	.LC1(%rip), %xmm0	 #, tmp135
	mulsd	%xmm1, %xmm0	 # tmp134, _7
 # E:\Projects\Simulation_Projects\cva_cpp\src_cpp\engine\monte_carlo.cpp:26:         double drift = (r - 0.5 * sigma * sigma) * dt_;
	.loc 7 26 41
	movapd	%xmm0, %xmm2	 # _7, _7
	mulsd	80(%rbp), %xmm2	 # sigma, _7
 # E:\Projects\Simulation_Projects\cva_cpp\src_cpp\engine\monte_carlo.cpp:26:         double drift = (r - 0.5 * sigma * sigma) * dt_;
	.loc 7 26 27
	movsd	72(%rbp), %xmm0	 # r, tmp136
	movapd	%xmm0, %xmm1	 # tmp136, tmp136
	subsd	%xmm2, %xmm1	 # _8, tmp136
 # E:\Projects\Simulation_Projects\cva_cpp\src_cpp\engine\monte_carlo.cpp:26:         double drift = (r - 0.5 * sigma * sigma) * dt_;
	.loc 7 26 52
	movq	56(%rbp), %rax	 # this, tmp137
	movsd	16(%rax), %xmm0	 # this_34(D)->dt_, _10
 # E:\Projects\Simulation_Projects\cva_cpp\src_cpp\engine\monte_carlo.cpp:26:         double drift = (r - 0.5 * sigma * sigma) * dt_;
	.loc 7 26 16
	mulsd	%xmm1, %xmm0	 # _9, drift_41
	movsd	%xmm0, -24(%rbp)	 # drift_41, drift
 # E:\Projects\Simulation_Projects\cva_cpp\src_cpp\engine\monte_carlo.cpp:27:         double vol_sqrt_dt = sigma * std::sqrt(dt_);
	.loc 7 27 47
	movq	56(%rbp), %rax	 # this, tmp139
	movq	16(%rax), %rax	 # this_34(D)->dt_, _11
	movq	%rax, %xmm0	 # _11,
	call	sqrt	 #
 # E:\Projects\Simulation_Projects\cva_cpp\src_cpp\engine\monte_carlo.cpp:27:         double vol_sqrt_dt = sigma * std::sqrt(dt_);
	.loc 7 27 51 discriminator 1
	movsd	80(%rbp), %xmm1	 # sigma, tmp141
	mulsd	%xmm1, %xmm0	 # tmp141, vol_sqrt_dt_43
	movsd	%xmm0, -32(%rbp)	 # vol_sqrt_dt_43, vol_sqrt_dt
.LBB223:
 # E:\Projects\Simulation_Projects\cva_cpp\src_cpp\engine\monte_carlo.cpp:32:         for (size_t i = 0; i < num_paths_; ++i) {
	.loc 7 32 21
	movq	$0, -8(%rbp)	 #, i
 # E:\Projects\Simulation_Projects\cva_cpp\src_cpp\engine\monte_carlo.cpp:32:         for (size_t i = 0; i < num_paths_; ++i) {
	.loc 7 32 9
	jmp	.L24	 #
.L27:
.LBB224:
 # E:\Projects\Simulation_Projects\cva_cpp\src_cpp\engine\monte_carlo.cpp:33:             paths(i, 0) = s0;
	.loc 7 33 25
	movsd	64(%rbp), %xmm6	 # s0, s0.19_13
 # E:\Projects\Simulation_Projects\cva_cpp\src_cpp\engine\monte_carlo.cpp:33:             paths(i, 0) = s0;
	.loc 7 33 18
	movq	-8(%rbp), %rdx	 # i, tmp142
	movq	48(%rbp), %rax	 # <retval>, tmp143
	movl	$0, %r8d	 #,
	movq	%rax, %rcx	 # tmp143,
	call	_ZN3cva4math6MatrixclEyy	 #
 # E:\Projects\Simulation_Projects\cva_cpp\src_cpp\engine\monte_carlo.cpp:33:             paths(i, 0) = s0;
	.loc 7 33 25 discriminator 1
	movsd	%xmm6, (%rax)	 # s0.19_13, *_14
.LBB225:
 # E:\Projects\Simulation_Projects\cva_cpp\src_cpp\engine\monte_carlo.cpp:34:             for (size_t j = 1; j <= num_steps_; ++j) {
	.loc 7 34 25
	movq	$1, -16(%rbp)	 #, j
 # E:\Projects\Simulation_Projects\cva_cpp\src_cpp\engine\monte_carlo.cpp:34:             for (size_t j = 1; j <= num_steps_; ++j) {
	.loc 7 34 13
	jmp	.L25	 #
.L26:
.LBB226:
 # E:\Projects\Simulation_Projects\cva_cpp\src_cpp\engine\monte_carlo.cpp:35:                 double z = random_shocks(i, j - 1);
	.loc 7 35 41
	movq	-16(%rbp), %rax	 # j, tmp144
	leaq	-1(%rax), %rcx	 #, _15
	movq	-8(%rbp), %rdx	 # i, tmp145
	leaq	-96(%rbp), %rax	 #, tmp146
	movq	%rcx, %r8	 # _15,
	movq	%rax, %rcx	 # tmp146,
	call	_ZN3cva4math6MatrixclEyy	 #
 # E:\Projects\Simulation_Projects\cva_cpp\src_cpp\engine\monte_carlo.cpp:35:                 double z = random_shocks(i, j - 1);
	.loc 7 35 50 discriminator 1
	movsd	(%rax), %xmm0	 # *_16, tmp147
	movsd	%xmm0, -40(%rbp)	 # tmp147, z
 # E:\Projects\Simulation_Projects\cva_cpp\src_cpp\engine\monte_carlo.cpp:36:                 double s_prev = paths(i, j - 1);
	.loc 7 36 38
	movq	-16(%rbp), %rax	 # j, tmp148
	leaq	-1(%rax), %rcx	 #, _17
	movq	-8(%rbp), %rdx	 # i, tmp149
	movq	48(%rbp), %rax	 # <retval>, tmp150
	movq	%rcx, %r8	 # _17,
	movq	%rax, %rcx	 # tmp150,
	call	_ZN3cva4math6MatrixclEyy	 #
 # E:\Projects\Simulation_Projects\cva_cpp\src_cpp\engine\monte_carlo.cpp:36:                 double s_prev = paths(i, j - 1);
	.loc 7 36 47 discriminator 1
	movsd	(%rax), %xmm0	 # *_18, tmp151
	movsd	%xmm0, -48(%rbp)	 # tmp151, s_prev
 # E:\Projects\Simulation_Projects\cva_cpp\src_cpp\engine\monte_carlo.cpp:37:                 double s_next = s_prev * std::exp(drift + vol_sqrt_dt * z);
	.loc 7 37 71
	movsd	-32(%rbp), %xmm0	 # vol_sqrt_dt, tmp152
	mulsd	-40(%rbp), %xmm0	 # z, _19
 # E:\Projects\Simulation_Projects\cva_cpp\src_cpp\engine\monte_carlo.cpp:37:                 double s_next = s_prev * std::exp(drift + vol_sqrt_dt * z);
	.loc 7 37 50
	addsd	-24(%rbp), %xmm0	 # drift, _19
	movq	%xmm0, %rax	 # _19, _20
	movq	%rax, %xmm0	 # _20,
	call	exp	 #
 # E:\Projects\Simulation_Projects\cva_cpp\src_cpp\engine\monte_carlo.cpp:37:                 double s_next = s_prev * std::exp(drift + vol_sqrt_dt * z);
	.loc 7 37 74 discriminator 1
	movsd	-48(%rbp), %xmm1	 # s_prev, tmp154
	mulsd	%xmm1, %xmm0	 # tmp154, s_next_58
	movsd	%xmm0, -56(%rbp)	 # s_next_58, s_next
 # E:\Projects\Simulation_Projects\cva_cpp\src_cpp\engine\monte_carlo.cpp:38:                 paths(i, j) = s_next;
	.loc 7 38 29
	movsd	-56(%rbp), %xmm6	 # s_next, s_next.20_22
 # E:\Projects\Simulation_Projects\cva_cpp\src_cpp\engine\monte_carlo.cpp:38:                 paths(i, j) = s_next;
	.loc 7 38 22
	movq	-16(%rbp), %rcx	 # j, tmp155
	movq	-8(%rbp), %rdx	 # i, tmp156
	movq	48(%rbp), %rax	 # <retval>, tmp157
	movq	%rcx, %r8	 # tmp155,
	movq	%rax, %rcx	 # tmp157,
	call	_ZN3cva4math6MatrixclEyy	 #
 # E:\Projects\Simulation_Projects\cva_cpp\src_cpp\engine\monte_carlo.cpp:38:                 paths(i, j) = s_next;
	.loc 7 38 29 discriminator 1
	movsd	%xmm6, (%rax)	 # s_next.20_22, *_23
.LBE226:
 # E:\Projects\Simulation_Projects\cva_cpp\src_cpp\engine\monte_carlo.cpp:34:             for (size_t j = 1; j <= num_steps_; ++j) {
	.loc 7 34 13 discriminator 3
	addq	$1, -16(%rbp)	 #, j
.L25:
 # E:\Projects\Simulation_Projects\cva_cpp\src_cpp\engine\monte_carlo.cpp:34:             for (size_t j = 1; j <= num_steps_; ++j) {
	.loc 7 34 37 discriminator 1
	movq	56(%rbp), %rax	 # this, tmp158
	movq	8(%rax), %rax	 # this_34(D)->num_steps_, _24
 # E:\Projects\Simulation_Projects\cva_cpp\src_cpp\engine\monte_carlo.cpp:34:             for (size_t j = 1; j <= num_steps_; ++j) {
	.loc 7 34 34 discriminator 1
	cmpq	-16(%rbp), %rax	 # j, _24
	jnb	.L26	 #,
.LBE225:
.LBE224:
 # E:\Projects\Simulation_Projects\cva_cpp\src_cpp\engine\monte_carlo.cpp:32:         for (size_t i = 0; i < num_paths_; ++i) {
	.loc 7 32 9 discriminator 2
	addq	$1, -8(%rbp)	 #, i
.L24:
 # E:\Projects\Simulation_Projects\cva_cpp\src_cpp\engine\monte_carlo.cpp:32:         for (size_t i = 0; i < num_paths_; ++i) {
	.loc 7 32 32 discriminator 1
	movq	56(%rbp), %rax	 # this, tmp159
	movq	(%rax), %rax	 # this_34(D)->num_paths_, _25
 # E:\Projects\Simulation_Projects\cva_cpp\src_cpp\engine\monte_carlo.cpp:32:         for (size_t i = 0; i < num_paths_; ++i) {
	.loc 7 32 30 discriminator 1
	cmpq	%rax, -8(%rbp)	 # _25, i
	jb	.L27	 #,
.LBE223:
 # E:\Projects\Simulation_Projects\cva_cpp\src_cpp\engine\monte_carlo.cpp:43:     }
	.loc 7 43 5
	leaq	-96(%rbp), %rax	 #, tmp160
	movq	%rax, %rcx	 # tmp160,
	call	_ZN3cva4math6MatrixD1Ev	 #
 # E:\Projects\Simulation_Projects\cva_cpp\src_cpp\engine\monte_carlo.cpp:42:         return paths;
	.loc 7 42 16
	jmp	.L33	 #
.L32:
 # E:\Projects\Simulation_Projects\cva_cpp\src_cpp\engine\monte_carlo.cpp:43:     }
	.loc 7 43 5
	movq	%rax, %rbx	 #, tmp163
	leaq	-96(%rbp), %rax	 #, tmp161
	movq	%rax, %rcx	 # tmp161,
	call	_ZN3cva4math6MatrixD1Ev	 #
	jmp	.L30	 #
.L31:
	movq	%rax, %rbx	 #, tmp162
.L30:
	movq	48(%rbp), %rax	 # <retval>, tmp166
	movq	%rax, %rcx	 # tmp166,
	call	_ZN3cva4math6MatrixD1Ev	 #
	movq	%rbx, %rax	 # tmp162, D.97649
	movq	%rax, %rcx	 # D.97649,
.LEHB5:
	call	_Unwind_Resume	 #
.LEHE5:
.L33:
	movq	48(%rbp), %rax	 # <retval>,
	movups	0(%rbp), %xmm6	 #,
	addq	$152, %rsp	 #,
	.cfi_restore 23
	popq	%rbx	 #
	.cfi_restore 3
	popq	%rbp	 #
	.cfi_restore 6
	.cfi_def_cfa 7, -136
	ret	
	.cfi_endproc
.LFE4851:
	.seh_handler	__gxx_personality_seh0, @unwind, @except
	.seh_handlerdata
.LLSDA4851:
	.byte	0xff
	.byte	0xff
	.byte	0x1
	.uleb128 .LLSDACSE4851-.LLSDACSB4851
.LLSDACSB4851:
	.uleb128 .LEHB2-.LFB4851
	.uleb128 .LEHE2-.LEHB2
	.uleb128 0
	.uleb128 0
	.uleb128 .LEHB3-.LFB4851
	.uleb128 .LEHE3-.LEHB3
	.uleb128 .L31-.LFB4851
	.uleb128 0
	.uleb128 .LEHB4-.LFB4851
	.uleb128 .LEHE4-.LEHB4
	.uleb128 .L32-.LFB4851
	.uleb128 0
	.uleb128 .LEHB5-.LFB4851
	.uleb128 .LEHE5-.LEHB5
	.uleb128 0
	.uleb128 0
.LLSDACSE4851:
	.text
	.seh_endproc
	.section	.text$_ZNSt6vectorIdSaIdEEC1EyRKdRKS0_,"x"
	.linkonce discard
	.align 2
	.globl	_ZNSt6vectorIdSaIdEEC1EyRKdRKS0_
	.def	_ZNSt6vectorIdSaIdEEC1EyRKdRKS0_;	.scl	2;	.type	32;	.endef
	.seh_proc	_ZNSt6vectorIdSaIdEEC1EyRKdRKS0_
_ZNSt6vectorIdSaIdEEC1EyRKdRKS0_:
.LFB5173:
	.loc 6 599 7
	.cfi_startproc
	pushq	%rbp	 #
	.seh_pushreg	%rbp
	.cfi_def_cfa_offset 16
	.cfi_offset 6, -16
	pushq	%rbx	 #
	.seh_pushreg	%rbx
	.cfi_def_cfa_offset 24
	.cfi_offset 3, -24
	subq	$40, %rsp	 #,
	.seh_stackalloc	40
	.cfi_def_cfa_offset 64
	leaq	32(%rsp), %rbp	 #,
	.seh_setframe	%rbp, 32
	.cfi_def_cfa 6, 32
	.seh_endprologue
	movq	%rcx, 32(%rbp)	 # this, this
	movq	%rdx, 40(%rbp)	 # __n, __n
	movq	%r8, 48(%rbp)	 # __value, __value
	movq	%r9, 56(%rbp)	 # __a, __a
.LBB227:
 # D:/msys64/ucrt64/include/c++/15.2.0/bits/stl_vector.h:601:       : _Base(_S_check_init_len(__n, __a), __a)
	.loc 6 601 47
	movq	32(%rbp), %rbx	 # this, _1
	movq	56(%rbp), %rdx	 # __a, tmp102
	movq	40(%rbp), %rax	 # __n, tmp103
	movq	%rax, %rcx	 # tmp103,
.LEHB6:
	call	_ZNSt6vectorIdSaIdEE17_S_check_init_lenEyRKS0_	 #
 # D:/msys64/ucrt64/include/c++/15.2.0/bits/stl_vector.h:601:       : _Base(_S_check_init_len(__n, __a), __a)
	.loc 6 601 47 is_stmt 0 discriminator 1
	movq	56(%rbp), %rdx	 # __a, tmp104
	movq	%rdx, %r8	 # tmp104,
	movq	%rax, %rdx	 # _2,
	movq	%rbx, %rcx	 # _1,
	call	_ZNSt12_Vector_baseIdSaIdEEC2EyRKS0_	 #
.LEHE6:
 # D:/msys64/ucrt64/include/c++/15.2.0/bits/stl_vector.h:602:       { _M_fill_initialize(__n, __value); }
	.loc 6 602 27 is_stmt 1
	movq	48(%rbp), %rcx	 # __value, tmp105
	movq	40(%rbp), %rdx	 # __n, tmp106
	movq	32(%rbp), %rax	 # this, tmp107
	movq	%rcx, %r8	 # tmp105,
	movq	%rax, %rcx	 # tmp107,
.LEHB7:
	call	_ZNSt6vectorIdSaIdEE18_M_fill_initializeEyRKd	 #
.LEHE7:
.LBE227:
 # D:/msys64/ucrt64/include/c++/15.2.0/bits/stl_vector.h:602:       { _M_fill_initialize(__n, __value); }
	.loc 6 602 43
	jmp	.L37	 #
.L36:
.LBB228:
 # D:/msys64/ucrt64/include/c++/15.2.0/bits/stl_vector.h:602:       { _M_fill_initialize(__n, __value); }
	.loc 6 602 43 is_stmt 0 discriminator 2
	movq	%rax, %rbx	 #, tmp108
	movq	32(%rbp), %rax	 # this, _3
	movq	%rax, %rcx	 # _3,
	call	_ZNSt12_Vector_baseIdSaIdEED2Ev	 #
	movq	%rbx, %rax	 # tmp108, D.97651
	movq	%rax, %rcx	 # D.97651,
.LEHB8:
	call	_Unwind_Resume	 #
	nop	
.LEHE8:
.L37:
.LBE228:
 # D:/msys64/ucrt64/include/c++/15.2.0/bits/stl_vector.h:602:       { _M_fill_initialize(__n, __value); }
	.loc 6 602 43
	addq	$40, %rsp	 #,
	popq	%rbx	 #
	.cfi_restore 3
	popq	%rbp	 #
	.cfi_restore 6
	.cfi_def_cfa 7, -24
	ret	
	.cfi_endproc
.LFE5173:
	.seh_handler	__gxx_personality_seh0, @unwind, @except
	.seh_handlerdata
.LLSDA5173:
	.byte	0xff
	.byte	0xff
	.byte	0x1
	.uleb128 .LLSDACSE5173-.LLSDACSB5173
.LLSDACSB5173:
	.uleb128 .LEHB6-.LFB5173
	.uleb128 .LEHE6-.LEHB6
	.uleb128 0
	.uleb128 0
	.uleb128 .LEHB7-.LFB5173
	.uleb128 .LEHE7-.LEHB7
	.uleb128 .L36-.LFB5173
	.uleb128 0
	.uleb128 .LEHB8-.LFB5173
	.uleb128 .LEHE8-.LEHB8
	.uleb128 0
	.uleb128 0
.LLSDACSE5173:
	.section	.text$_ZNSt6vectorIdSaIdEEC1EyRKdRKS0_,"x"
	.linkonce discard
	.seh_endproc
	.section	.text$_ZNSt6vectorIdSaIdEED1Ev,"x"
	.linkonce discard
	.align 2
	.globl	_ZNSt6vectorIdSaIdEED1Ev
	.def	_ZNSt6vectorIdSaIdEED1Ev;	.scl	2;	.type	32;	.endef
	.seh_proc	_ZNSt6vectorIdSaIdEED1Ev
_ZNSt6vectorIdSaIdEED1Ev:
.LFB5176:
	.loc 6 800 7 is_stmt 1
	.cfi_startproc
	pushq	%rbp	 #
	.seh_pushreg	%rbp
	.cfi_def_cfa_offset 16
	.cfi_offset 6, -16
	movq	%rsp, %rbp	 #,
	.seh_setframe	%rbp, 0
	.cfi_def_cfa_register 6
	subq	$64, %rsp	 #,
	.seh_stackalloc	64
	.seh_endprologue
	movq	%rcx, 16(%rbp)	 # this, this
.LBB229:
 # D:/msys64/ucrt64/include/c++/15.2.0/bits/stl_vector.h:803: 		      _M_get_Tp_allocator());
	.loc 6 803 28
	movq	16(%rbp), %rax	 # this, _1
	movq	%rax, %rcx	 # _1,
	call	_ZNSt12_Vector_baseIdSaIdEE19_M_get_Tp_allocatorEv	 #
 # D:/msys64/ucrt64/include/c++/15.2.0/bits/stl_vector.h:802: 	std::_Destroy(this->_M_impl._M_start, this->_M_impl._M_finish,
	.loc 6 802 54
	movq	16(%rbp), %rdx	 # this, tmp103
	movq	8(%rdx), %rdx	 # this_6(D)->D.68084._M_impl.D.67390._M_finish, _3
 # D:/msys64/ucrt64/include/c++/15.2.0/bits/stl_vector.h:802: 	std::_Destroy(this->_M_impl._M_start, this->_M_impl._M_finish,
	.loc 6 802 30
	movq	16(%rbp), %rcx	 # this, tmp104
	movq	(%rcx), %rcx	 # this_6(D)->D.68084._M_impl.D.67390._M_start, _4
	movq	%rcx, -8(%rbp)	 # _4, __first
	movq	%rdx, -16(%rbp)	 # _3, __last
	movq	%rax, -24(%rbp)	 # _2, D.97444
.LBB230:
.LBB231:
 # D:/msys64/ucrt64/include/c++/15.2.0/bits/alloc_traits.h:1045:       std::_Destroy(__first, __last);
	.file 8 "D:/msys64/ucrt64/include/c++/15.2.0/bits/alloc_traits.h"
	.loc 8 1045 20
	movq	-16(%rbp), %rdx	 # __last, tmp105
	movq	-8(%rbp), %rax	 # __first, tmp106
	movq	%rax, %rcx	 # tmp106,
	call	_ZSt8_DestroyIPdEvT_S1_	 #
 # D:/msys64/ucrt64/include/c++/15.2.0/bits/alloc_traits.h:1046:     }
	.loc 8 1046 5
	nop	
.LBE231:
.LBE230:
 # D:/msys64/ucrt64/include/c++/15.2.0/bits/stl_vector.h:805:       }
	.loc 6 805 7
	movq	16(%rbp), %rax	 # this, _5
	movq	%rax, %rcx	 # _5,
	call	_ZNSt12_Vector_baseIdSaIdEED2Ev	 #
.LBE229:
	nop	
	addq	$64, %rsp	 #,
	popq	%rbp	 #
	.cfi_restore 6
	.cfi_def_cfa 7, 8
	ret	
	.cfi_endproc
.LFE5176:
	.seh_handler	__gxx_personality_seh0, @unwind, @except
	.seh_handlerdata
.LLSDA5176:
	.byte	0xff
	.byte	0xff
	.byte	0x1
	.uleb128 .LLSDACSE5176-.LLSDACSB5176
.LLSDACSB5176:
.LLSDACSE5176:
	.section	.text$_ZNSt6vectorIdSaIdEED1Ev,"x"
	.linkonce discard
	.seh_endproc
	.section .rdata,"dr"
.LC2:
	.ascii "__n < this->size()\0"
	.align 8
.LC3:
	.ascii "constexpr std::vector<_Tp, _Alloc>::reference std::vector<_Tp, _Alloc>::operator[](size_type) [with _Tp = double; _Alloc = std::allocator<double>; reference = double&; size_type = long long unsigned int]\0"
	.align 8
.LC4:
	.ascii "D:/msys64/ucrt64/include/c++/15.2.0/bits/stl_vector.h\0"
	.section	.text$_ZNSt6vectorIdSaIdEEixEy,"x"
	.linkonce discard
	.align 2
	.globl	_ZNSt6vectorIdSaIdEEixEy
	.def	_ZNSt6vectorIdSaIdEEixEy;	.scl	2;	.type	32;	.endef
	.seh_proc	_ZNSt6vectorIdSaIdEEixEy
_ZNSt6vectorIdSaIdEEixEy:
.LFB5177:
	.loc 6 1261 7
	.cfi_startproc
	pushq	%rbp	 #
	.seh_pushreg	%rbp
	.cfi_def_cfa_offset 16
	.cfi_offset 6, -16
	movq	%rsp, %rbp	 #,
	.seh_setframe	%rbp, 0
	.cfi_def_cfa_register 6
	subq	$32, %rsp	 #,
	.seh_stackalloc	32
	.seh_endprologue
	movq	%rcx, 16(%rbp)	 # this, this
	movq	%rdx, 24(%rbp)	 # __n, __n
 # D:/msys64/ucrt64/include/c++/15.2.0/bits/stl_vector.h:1263: 	__glibcxx_requires_subscript(__n);
	.loc 6 1263 50
	movq	16(%rbp), %rax	 # this, tmp107
	movq	%rax, %rcx	 # tmp107,
	call	_ZNKSt6vectorIdSaIdEE4sizeEv	 #
 # D:/msys64/ucrt64/include/c++/15.2.0/bits/stl_vector.h:1263: 	__glibcxx_requires_subscript(__n);
	.loc 6 1263 29 discriminator 1
	cmpq	%rax, 24(%rbp)	 # _1, __n
	setnb	%al	 #, _2
 # D:/msys64/ucrt64/include/c++/15.2.0/bits/stl_vector.h:1263: 	__glibcxx_requires_subscript(__n);
	.loc 6 1263 27 discriminator 1
	movzbl	%al, %eax	 # _2, _3
 # D:/msys64/ucrt64/include/c++/15.2.0/bits/stl_vector.h:1263: 	__glibcxx_requires_subscript(__n);
	.loc 6 1263 27 is_stmt 0 discriminator 2
	testl	%eax, %eax	 # _4
	setne	%al	 #, retval.28_11
 # D:/msys64/ucrt64/include/c++/15.2.0/bits/stl_vector.h:1263: 	__glibcxx_requires_subscript(__n);
	.loc 6 1263 7 is_stmt 1 discriminator 2
	testb	%al, %al	 # retval.28_11
	je	.L40	 #,
 # D:/msys64/ucrt64/include/c++/15.2.0/bits/stl_vector.h:1263: 	__glibcxx_requires_subscript(__n);
	.loc 6 1263 89 discriminator 3
	leaq	.LC2(%rip), %rcx	 #, tmp108
	leaq	.LC3(%rip), %rdx	 #, tmp109
	leaq	.LC4(%rip), %rax	 #, tmp110
	movq	%rcx, %r9	 # tmp108,
	movq	%rdx, %r8	 # tmp109,
	movl	$1263, %edx	 #,
	movq	%rax, %rcx	 # tmp110,
	call	_ZSt21__glibcxx_assert_failPKciS0_S0_	 #
.L40:
 # D:/msys64/ucrt64/include/c++/15.2.0/bits/stl_vector.h:1264: 	return *(this->_M_impl._M_start + __n);
	.loc 6 1264 25
	movq	16(%rbp), %rax	 # this, tmp111
	movq	(%rax), %rax	 # this_8(D)->D.68084._M_impl.D.67390._M_start, _5
 # D:/msys64/ucrt64/include/c++/15.2.0/bits/stl_vector.h:1264: 	return *(this->_M_impl._M_start + __n);
	.loc 6 1264 34
	movq	24(%rbp), %rdx	 # __n, tmp112
	salq	$3, %rdx	 #, _6
 # D:/msys64/ucrt64/include/c++/15.2.0/bits/stl_vector.h:1264: 	return *(this->_M_impl._M_start + __n);
	.loc 6 1264 39
	addq	%rdx, %rax	 # _6, _12
 # D:/msys64/ucrt64/include/c++/15.2.0/bits/stl_vector.h:1265:       }
	.loc 6 1265 7
	addq	$32, %rsp	 #,
	popq	%rbp	 #
	.cfi_restore 6
	.cfi_def_cfa 7, 8
	ret	
	.cfi_endproc
.LFE5177:
	.seh_endproc
	.section	.text$_ZNKSt6vectorIdSaIdEE4sizeEv,"x"
	.linkonce discard
	.align 2
	.globl	_ZNKSt6vectorIdSaIdEE4sizeEv
	.def	_ZNKSt6vectorIdSaIdEE4sizeEv;	.scl	2;	.type	32;	.endef
	.seh_proc	_ZNKSt6vectorIdSaIdEE4sizeEv
_ZNKSt6vectorIdSaIdEE4sizeEv:
.LFB5181:
	.loc 6 1117 7
	.cfi_startproc
	pushq	%rbp	 #
	.seh_pushreg	%rbp
	.cfi_def_cfa_offset 16
	.cfi_offset 6, -16
	movq	%rsp, %rbp	 #,
	.seh_setframe	%rbp, 0
	.cfi_def_cfa_register 6
	subq	$16, %rsp	 #,
	.seh_stackalloc	16
	.seh_endprologue
	movq	%rcx, 16(%rbp)	 # this, this
 # D:/msys64/ucrt64/include/c++/15.2.0/bits/stl_vector.h:1119: 	ptrdiff_t __dif = this->_M_impl._M_finish - this->_M_impl._M_start;
	.loc 6 1119 34
	movq	16(%rbp), %rax	 # this, tmp103
	movq	8(%rax), %rdx	 # this_5(D)->D.68084._M_impl.D.67390._M_finish, _1
 # D:/msys64/ucrt64/include/c++/15.2.0/bits/stl_vector.h:1119: 	ptrdiff_t __dif = this->_M_impl._M_finish - this->_M_impl._M_start;
	.loc 6 1119 60
	movq	16(%rbp), %rax	 # this, tmp104
	movq	(%rax), %rax	 # this_5(D)->D.68084._M_impl.D.67390._M_start, _2
 # D:/msys64/ucrt64/include/c++/15.2.0/bits/stl_vector.h:1119: 	ptrdiff_t __dif = this->_M_impl._M_finish - this->_M_impl._M_start;
	.loc 6 1119 44
	subq	%rax, %rdx	 # _2, _3
 # D:/msys64/ucrt64/include/c++/15.2.0/bits/stl_vector.h:1119: 	ptrdiff_t __dif = this->_M_impl._M_finish - this->_M_impl._M_start;
	.loc 6 1119 12
	movq	%rdx, %rax	 # _3, _3
	sarq	$3, %rax	 #, _3
	movq	%rax, -8(%rbp)	 # __dif_6, __dif
 # D:/msys64/ucrt64/include/c++/15.2.0/bits/stl_vector.h:1120: 	if (__dif < 0)
	.loc 6 1120 2
	cmpq	$0, -8(%rbp)	 #, __dif
 # D:/msys64/ucrt64/include/c++/15.2.0/bits/stl_vector.h:1122: 	return size_type(__dif);
	.loc 6 1122 24
	movq	-8(%rbp), %rax	 # __dif, _7
 # D:/msys64/ucrt64/include/c++/15.2.0/bits/stl_vector.h:1123:       }
	.loc 6 1123 7
	addq	$16, %rsp	 #,
	popq	%rbp	 #
	.cfi_restore 6
	.cfi_def_cfa 7, 8
	ret	
	.cfi_endproc
.LFE5181:
	.seh_endproc
	.section	.text$_ZNSt12_Vector_baseIdSaIdEE12_Vector_implC1EvQ26is_default_constructible_vIN9__gnu_cxx14__alloc_traitsIT0_NS5_10value_typeEE6rebindIT_E5otherEE,"x"
	.linkonce discard
	.align 2
	.globl	_ZNSt12_Vector_baseIdSaIdEE12_Vector_implC1EvQ26is_default_constructible_vIN9__gnu_cxx14__alloc_traitsIT0_NS5_10value_typeEE6rebindIT_E5otherEE
	.def	_ZNSt12_Vector_baseIdSaIdEE12_Vector_implC1EvQ26is_default_constructible_vIN9__gnu_cxx14__alloc_traitsIT0_NS5_10value_typeEE6rebindIT_E5otherEE;	.scl	2;	.type	32;	.endef
	.seh_proc	_ZNSt12_Vector_baseIdSaIdEE12_Vector_implC1EvQ26is_default_constructible_vIN9__gnu_cxx14__alloc_traitsIT0_NS5_10value_typeEE6rebindIT_E5otherEE
_ZNSt12_Vector_baseIdSaIdEE12_Vector_implC1EvQ26is_default_constructible_vIN9__gnu_cxx14__alloc_traitsIT0_NS5_10value_typeEE6rebindIT_E5otherEE:
.LFB5248:
	.loc 6 143 2
	.cfi_startproc
	pushq	%rbp	 #
	.seh_pushreg	%rbp
	.cfi_def_cfa_offset 16
	.cfi_offset 6, -16
	movq	%rsp, %rbp	 #,
	.seh_setframe	%rbp, 0
	.cfi_def_cfa_register 6
	subq	$48, %rsp	 #,
	.seh_stackalloc	48
	.seh_endprologue
	movq	%rcx, 16(%rbp)	 # this, this
	movq	16(%rbp), %rax	 # this, tmp99
	movq	%rax, -8(%rbp)	 # tmp99, this
	movq	-8(%rbp), %rax	 # this, tmp100
	movq	%rax, -16(%rbp)	 # tmp100, this
.LBB232:
.LBB233:
.LBB234:
.LBB235:
.LBB236:
.LBB237:
 # D:/msys64/ucrt64/include/c++/15.2.0/bits/new_allocator.h:88:       __new_allocator() _GLIBCXX_USE_NOEXCEPT { }
	.loc 4 88 36
	nop	
.LBE237:
.LBE236:
.LBE235:
 # D:/msys64/ucrt64/include/c++/15.2.0/bits/allocator.h:168:       allocator() _GLIBCXX_NOTHROW { }
	.loc 5 168 30
	nop	
.LBE234:
.LBE233:
 # D:/msys64/ucrt64/include/c++/15.2.0/bits/stl_vector.h:148: 	: _Tp_alloc_type()
	.loc 6 148 19 discriminator 1
	movq	16(%rbp), %rax	 # this, _1
	movq	%rax, %rcx	 # _1,
	call	_ZNSt12_Vector_baseIdSaIdEE17_Vector_impl_dataC2Ev	 #
.LBE232:
 # D:/msys64/ucrt64/include/c++/15.2.0/bits/stl_vector.h:149: 	{ }
	.loc 6 149 4
	nop	
	addq	$48, %rsp	 #,
	popq	%rbp	 #
	.cfi_restore 6
	.cfi_def_cfa 7, 8
	ret	
	.cfi_endproc
.LFE5248:
	.seh_endproc
	.weak	_ZNSt12_Vector_baseIdSaIdEE12_Vector_implC1Ev
	.def	_ZNSt12_Vector_baseIdSaIdEE12_Vector_implC1Ev;	.scl	2;	.type	32;	.endef
	.set	_ZNSt12_Vector_baseIdSaIdEE12_Vector_implC1Ev,_ZNSt12_Vector_baseIdSaIdEE12_Vector_implC1EvQ26is_default_constructible_vIN9__gnu_cxx14__alloc_traitsIT0_NS5_10value_typeEE6rebindIT_E5otherEE
	.section	.text$_ZNSt12_Vector_baseIdSaIdEED2Ev,"x"
	.linkonce discard
	.align 2
	.globl	_ZNSt12_Vector_baseIdSaIdEED2Ev
	.def	_ZNSt12_Vector_baseIdSaIdEED2Ev;	.scl	2;	.type	32;	.endef
	.seh_proc	_ZNSt12_Vector_baseIdSaIdEED2Ev
_ZNSt12_Vector_baseIdSaIdEED2Ev:
.LFB5250:
	.loc 6 373 7
	.cfi_startproc
	pushq	%rbp	 #
	.seh_pushreg	%rbp
	.cfi_def_cfa_offset 16
	.cfi_offset 6, -16
	movq	%rsp, %rbp	 #,
	.seh_setframe	%rbp, 0
	.cfi_def_cfa_register 6
	subq	$32, %rsp	 #,
	.seh_stackalloc	32
	.seh_endprologue
	movq	%rcx, 16(%rbp)	 # this, this
.LBB238:
 # D:/msys64/ucrt64/include/c++/15.2.0/bits/stl_vector.h:376: 		      _M_impl._M_end_of_storage - _M_impl._M_start);
	.loc 6 376 17
	movq	16(%rbp), %rax	 # this, tmp105
	movq	16(%rax), %rdx	 # this_9(D)->_M_impl.D.67390._M_end_of_storage, _1
 # D:/msys64/ucrt64/include/c++/15.2.0/bits/stl_vector.h:376: 		      _M_impl._M_end_of_storage - _M_impl._M_start);
	.loc 6 376 45
	movq	16(%rbp), %rax	 # this, tmp106
	movq	(%rax), %rax	 # this_9(D)->_M_impl.D.67390._M_start, _2
 # D:/msys64/ucrt64/include/c++/15.2.0/bits/stl_vector.h:376: 		      _M_impl._M_end_of_storage - _M_impl._M_start);
	.loc 6 376 35
	subq	%rax, %rdx	 # _2, _3
	movq	%rdx, %rax	 # _3, _3
	sarq	$3, %rax	 #, _3
 # D:/msys64/ucrt64/include/c++/15.2.0/bits/stl_vector.h:375: 	_M_deallocate(_M_impl._M_start,
	.loc 6 375 15
	movq	%rax, %rcx	 # _4, _5
	movq	16(%rbp), %rax	 # this, tmp108
	movq	(%rax), %rdx	 # this_9(D)->_M_impl.D.67390._M_start, _6
	movq	16(%rbp), %rax	 # this, tmp109
	movq	%rcx, %r8	 # _5,
	movq	%rax, %rcx	 # tmp109,
	call	_ZNSt12_Vector_baseIdSaIdEE13_M_deallocateEPdy	 #
 # D:/msys64/ucrt64/include/c++/15.2.0/bits/stl_vector.h:377:       }
	.loc 6 377 7
	movq	16(%rbp), %rax	 # this, _7
	movq	%rax, %rcx	 # _7,
	call	_ZNSt12_Vector_baseIdSaIdEE12_Vector_implD1Ev	 #
.LBE238:
	nop	
	addq	$32, %rsp	 #,
	popq	%rbp	 #
	.cfi_restore 6
	.cfi_def_cfa 7, 8
	ret	
	.cfi_endproc
.LFE5250:
	.seh_handler	__gxx_personality_seh0, @unwind, @except
	.seh_handlerdata
.LLSDA5250:
	.byte	0xff
	.byte	0xff
	.byte	0x1
	.uleb128 .LLSDACSE5250-.LLSDACSB5250
.LLSDACSB5250:
.LLSDACSE5250:
	.section	.text$_ZNSt12_Vector_baseIdSaIdEED2Ev,"x"
	.linkonce discard
	.seh_endproc
	.section .rdata,"dr"
.LC5:
	.ascii "vector::reserve\0"
	.section	.text$_ZNSt6vectorIdSaIdEE7reserveEy,"x"
	.linkonce discard
	.align 2
	.globl	_ZNSt6vectorIdSaIdEE7reserveEy
	.def	_ZNSt6vectorIdSaIdEE7reserveEy;	.scl	2;	.type	32;	.endef
	.seh_proc	_ZNSt6vectorIdSaIdEE7reserveEy
_ZNSt6vectorIdSaIdEE7reserveEy:
.LFB5252:
	.file 9 "D:/msys64/ucrt64/include/c++/15.2.0/bits/vector.tcc"
	.loc 9 67 5
	.cfi_startproc
	pushq	%rbp	 #
	.seh_pushreg	%rbp
	.cfi_def_cfa_offset 16
	.cfi_offset 6, -16
	movq	%rsp, %rbp	 #,
	.seh_setframe	%rbp, 0
	.cfi_def_cfa_register 6
	subq	$48, %rsp	 #,
	.seh_stackalloc	48
	.seh_endprologue
	movq	%rcx, 16(%rbp)	 # this, this
	movq	%rdx, 24(%rbp)	 # __n, __n
 # D:/msys64/ucrt64/include/c++/15.2.0/bits/vector.tcc:70:       if (__n > this->max_size())
	.loc 9 70 31
	movq	16(%rbp), %rax	 # this, tmp120
	movq	%rax, %rcx	 # tmp120,
	call	_ZNKSt6vectorIdSaIdEE8max_sizeEv	 #
 # D:/msys64/ucrt64/include/c++/15.2.0/bits/vector.tcc:70:       if (__n > this->max_size())
	.loc 9 70 15 discriminator 1
	cmpq	24(%rbp), %rax	 # __n, _1
	setb	%al	 #, retval.0_25
 # D:/msys64/ucrt64/include/c++/15.2.0/bits/vector.tcc:70:       if (__n > this->max_size())
	.loc 9 70 7 discriminator 1
	testb	%al, %al	 # retval.0_25
	je	.L48	 #,
 # D:/msys64/ucrt64/include/c++/15.2.0/bits/vector.tcc:71: 	__throw_length_error(__N("vector::reserve"));
	.loc 9 71 22
	leaq	.LC5(%rip), %rax	 #, tmp121
	movq	%rax, %rcx	 # tmp121,
	call	_ZSt20__throw_length_errorPKc	 #
.L48:
.LBB239:
 # D:/msys64/ucrt64/include/c++/15.2.0/bits/vector.tcc:72:       if (this->capacity() < __n)
	.loc 9 72 25
	movq	16(%rbp), %rax	 # this, tmp122
	movq	%rax, %rcx	 # tmp122,
	call	_ZNKSt6vectorIdSaIdEE8capacityEv	 #
 # D:/msys64/ucrt64/include/c++/15.2.0/bits/vector.tcc:72:       if (this->capacity() < __n)
	.loc 9 72 28 discriminator 1
	cmpq	24(%rbp), %rax	 # __n, _2
	setb	%al	 #, retval.1_27
 # D:/msys64/ucrt64/include/c++/15.2.0/bits/vector.tcc:72:       if (this->capacity() < __n)
	.loc 9 72 7 discriminator 1
	testb	%al, %al	 # retval.1_27
	je	.L50	 #,
.LBB240:
 # D:/msys64/ucrt64/include/c++/15.2.0/bits/vector.tcc:74: 	  const size_type __old_size = size();
	.loc 9 74 37
	movq	16(%rbp), %rax	 # this, tmp123
	movq	%rax, %rcx	 # tmp123,
	call	_ZNKSt6vectorIdSaIdEE4sizeEv	 #
	movq	%rax, -8(%rbp)	 # tmp124, __old_size
 # D:/msys64/ucrt64/include/c++/15.2.0/bits/vector.tcc:79: 	      __tmp = this->_M_allocate(__n);
	.loc 9 79 33
	movq	16(%rbp), %rax	 # this, _3
	movq	24(%rbp), %rdx	 # __n, tmp125
	movq	%rax, %rcx	 # _3,
	call	_ZNSt12_Vector_baseIdSaIdEE11_M_allocateEy	 #
 # D:/msys64/ucrt64/include/c++/15.2.0/bits/vector.tcc:79: 	      __tmp = this->_M_allocate(__n);
	.loc 9 79 33 is_stmt 0 discriminator 1
	movq	%rax, -16(%rbp)	 # _31, __tmp
 # D:/msys64/ucrt64/include/c++/15.2.0/bits/vector.tcc:81: 			  __tmp, _M_get_Tp_allocator());
	.loc 9 81 32 is_stmt 1
	movq	16(%rbp), %rax	 # this, _4
	movq	%rax, %rcx	 # _4,
	call	_ZNSt12_Vector_baseIdSaIdEE19_M_get_Tp_allocatorEv	 #
	movq	%rax, %rcx	 #, _5
 # D:/msys64/ucrt64/include/c++/15.2.0/bits/vector.tcc:80: 	      _S_relocate(this->_M_impl._M_start, this->_M_impl._M_finish,
	.loc 9 80 58
	movq	16(%rbp), %rax	 # this, tmp126
	movq	8(%rax), %rdx	 # this_22(D)->D.68084._M_impl.D.67390._M_finish, _6
 # D:/msys64/ucrt64/include/c++/15.2.0/bits/vector.tcc:80: 	      _S_relocate(this->_M_impl._M_start, this->_M_impl._M_finish,
	.loc 9 80 34
	movq	16(%rbp), %rax	 # this, tmp127
	movq	(%rax), %rax	 # this_22(D)->D.68084._M_impl.D.67390._M_start, _7
 # D:/msys64/ucrt64/include/c++/15.2.0/bits/vector.tcc:80: 	      _S_relocate(this->_M_impl._M_start, this->_M_impl._M_finish,
	.loc 9 80 19
	movq	-16(%rbp), %r8	 # __tmp, tmp128
	movq	%rcx, %r9	 # _5,
	movq	%rax, %rcx	 # _7,
	call	_ZNSt6vectorIdSaIdEE11_S_relocateEPdS2_S2_RS0_	 #
 # D:/msys64/ucrt64/include/c++/15.2.0/bits/vector.tcc:93: 	  _M_deallocate(this->_M_impl._M_start,
	.loc 9 93 17
	movq	16(%rbp), %rax	 # this, _8
 # D:/msys64/ucrt64/include/c++/15.2.0/bits/vector.tcc:94: 			this->_M_impl._M_end_of_storage
	.loc 9 94 18
	movq	16(%rbp), %rdx	 # this, tmp129
	movq	16(%rdx), %rcx	 # this_22(D)->D.68084._M_impl.D.67390._M_end_of_storage, _9
 # D:/msys64/ucrt64/include/c++/15.2.0/bits/vector.tcc:95: 			- this->_M_impl._M_start);
	.loc 9 95 20
	movq	16(%rbp), %rdx	 # this, tmp130
	movq	(%rdx), %rdx	 # this_22(D)->D.68084._M_impl.D.67390._M_start, _10
 # D:/msys64/ucrt64/include/c++/15.2.0/bits/vector.tcc:95: 			- this->_M_impl._M_start);
	.loc 9 95 4
	subq	%rdx, %rcx	 # _10, _11
	sarq	$3, %rcx	 #, _11
	movq	%rcx, %rdx	 # _11, _12
 # D:/msys64/ucrt64/include/c++/15.2.0/bits/vector.tcc:93: 	  _M_deallocate(this->_M_impl._M_start,
	.loc 9 93 17
	movq	%rdx, %rcx	 # _12, _13
	movq	16(%rbp), %rdx	 # this, tmp132
	movq	(%rdx), %rdx	 # this_22(D)->D.68084._M_impl.D.67390._M_start, _14
	movq	%rcx, %r8	 # _13,
	movq	%rax, %rcx	 # _8,
	call	_ZNSt12_Vector_baseIdSaIdEE13_M_deallocateEPdy	 #
 # D:/msys64/ucrt64/include/c++/15.2.0/bits/vector.tcc:96: 	  this->_M_impl._M_start = __tmp;
	.loc 9 96 27
	movq	16(%rbp), %rax	 # this, tmp133
	movq	-16(%rbp), %rdx	 # __tmp, tmp134
	movq	%rdx, (%rax)	 # tmp134, this_22(D)->D.68084._M_impl.D.67390._M_start
 # D:/msys64/ucrt64/include/c++/15.2.0/bits/vector.tcc:97: 	  this->_M_impl._M_finish = __tmp + __old_size;
	.loc 9 97 36
	movq	-8(%rbp), %rax	 # __old_size, tmp135
	leaq	0(,%rax,8), %rdx	 #, _15
	movq	-16(%rbp), %rax	 # __tmp, tmp136
	addq	%rax, %rdx	 # tmp136, _16
 # D:/msys64/ucrt64/include/c++/15.2.0/bits/vector.tcc:97: 	  this->_M_impl._M_finish = __tmp + __old_size;
	.loc 9 97 28
	movq	16(%rbp), %rax	 # this, tmp137
	movq	%rdx, 8(%rax)	 # _16, this_22(D)->D.68084._M_impl.D.67390._M_finish
 # D:/msys64/ucrt64/include/c++/15.2.0/bits/vector.tcc:98: 	  this->_M_impl._M_end_of_storage = this->_M_impl._M_start + __n;
	.loc 9 98 52
	movq	16(%rbp), %rax	 # this, tmp138
	movq	(%rax), %rax	 # this_22(D)->D.68084._M_impl.D.67390._M_start, _17
 # D:/msys64/ucrt64/include/c++/15.2.0/bits/vector.tcc:98: 	  this->_M_impl._M_end_of_storage = this->_M_impl._M_start + __n;
	.loc 9 98 61
	movq	24(%rbp), %rdx	 # __n, tmp139
	salq	$3, %rdx	 #, _18
	addq	%rax, %rdx	 # _17, _19
 # D:/msys64/ucrt64/include/c++/15.2.0/bits/vector.tcc:98: 	  this->_M_impl._M_end_of_storage = this->_M_impl._M_start + __n;
	.loc 9 98 36
	movq	16(%rbp), %rax	 # this, tmp140
	movq	%rdx, 16(%rax)	 # _19, this_22(D)->D.68084._M_impl.D.67390._M_end_of_storage
.L50:
.LBE240:
.LBE239:
 # D:/msys64/ucrt64/include/c++/15.2.0/bits/vector.tcc:100:     }
	.loc 9 100 5
	nop	
	addq	$48, %rsp	 #,
	popq	%rbp	 #
	.cfi_restore 6
	.cfi_def_cfa 7, 8
	ret	
	.cfi_endproc
.LFE5252:
	.seh_endproc
	.section	.text$_ZNSt6vectorIdSaIdEE9push_backEOd,"x"
	.linkonce discard
	.align 2
	.globl	_ZNSt6vectorIdSaIdEE9push_backEOd
	.def	_ZNSt6vectorIdSaIdEE9push_backEOd;	.scl	2;	.type	32;	.endef
	.seh_proc	_ZNSt6vectorIdSaIdEE9push_backEOd
_ZNSt6vectorIdSaIdEE9push_backEOd:
.LFB5257:
	.loc 6 1433 7
	.cfi_startproc
	pushq	%rbp	 #
	.seh_pushreg	%rbp
	.cfi_def_cfa_offset 16
	.cfi_offset 6, -16
	movq	%rsp, %rbp	 #,
	.seh_setframe	%rbp, 0
	.cfi_def_cfa_register 6
	subq	$48, %rsp	 #,
	.seh_stackalloc	48
	.seh_endprologue
	movq	%rcx, 16(%rbp)	 # this, this
	movq	%rdx, 24(%rbp)	 # __x, __x
	movq	24(%rbp), %rax	 # __x, tmp99
	movq	%rax, -8(%rbp)	 # tmp99, __t
.LBB241:
.LBB242:
 # D:/msys64/ucrt64/include/c++/15.2.0/bits/move.h:139:     { return static_cast<typename std::remove_reference<_Tp>::type&&>(__t); }
	.file 10 "D:/msys64/ucrt64/include/c++/15.2.0/bits/move.h"
	.loc 10 139 74
	movq	-8(%rbp), %rdx	 # __t, D.97644
.LBE242:
.LBE241:
 # D:/msys64/ucrt64/include/c++/15.2.0/bits/stl_vector.h:1434:       { emplace_back(std::move(__x)); }
	.loc 6 1434 21 discriminator 1
	movq	16(%rbp), %rax	 # this, tmp100
	movq	%rax, %rcx	 # tmp100,
	call	_ZNSt6vectorIdSaIdEE12emplace_backIJdEEERdDpOT_	 #
 # D:/msys64/ucrt64/include/c++/15.2.0/bits/stl_vector.h:1434:       { emplace_back(std::move(__x)); }
	.loc 6 1434 39
	nop	
	addq	$48, %rsp	 #,
	popq	%rbp	 #
	.cfi_restore 6
	.cfi_def_cfa 7, 8
	ret	
	.cfi_endproc
.LFE5257:
	.seh_endproc
	.section .rdata,"dr"
	.align 8
.LC6:
	.ascii "cannot create std::vector larger than max_size()\0"
	.section	.text$_ZNSt6vectorIdSaIdEE17_S_check_init_lenEyRKS0_,"x"
	.linkonce discard
	.globl	_ZNSt6vectorIdSaIdEE17_S_check_init_lenEyRKS0_
	.def	_ZNSt6vectorIdSaIdEE17_S_check_init_lenEyRKS0_;	.scl	2;	.type	32;	.endef
	.seh_proc	_ZNSt6vectorIdSaIdEE17_S_check_init_lenEyRKS0_
_ZNSt6vectorIdSaIdEE17_S_check_init_lenEyRKS0_:
.LFB5383:
	.loc 6 2208 7
	.cfi_startproc
	pushq	%rbp	 #
	.seh_pushreg	%rbp
	.cfi_def_cfa_offset 16
	.cfi_offset 6, -16
	movq	%rsp, %rbp	 #,
	.seh_setframe	%rbp, 0
	.cfi_def_cfa_register 6
	subq	$64, %rsp	 #,
	.seh_stackalloc	64
	.seh_endprologue
	movq	%rcx, 16(%rbp)	 # __n, __n
	movq	%rdx, 24(%rbp)	 # __a, __a
	movq	24(%rbp), %rax	 # __a, tmp102
	movq	%rax, -8(%rbp)	 # tmp102, __a
	leaq	-25(%rbp), %rax	 #, tmp103
	movq	%rax, -16(%rbp)	 # tmp103, this
	movq	-8(%rbp), %rax	 # __a, tmp104
	movq	%rax, -24(%rbp)	 # tmp104, D.97384
.LBB243:
.LBB244:
.LBB245:
.LBB246:
.LBB247:
 # D:/msys64/ucrt64/include/c++/15.2.0/bits/new_allocator.h:92:       __new_allocator(const __new_allocator&) _GLIBCXX_USE_NOEXCEPT { }
	.loc 4 92 58
	nop	
.LBE247:
.LBE246:
.LBE245:
 # D:/msys64/ucrt64/include/c++/15.2.0/bits/allocator.h:173:       : __allocator_base<_Tp>(__a) { }
	.loc 5 173 38
	nop	
.LBE244:
.LBE243:
 # D:/msys64/ucrt64/include/c++/15.2.0/bits/stl_vector.h:2210: 	if (__n > _S_max_size(_Tp_alloc_type(__a)))
	.loc 6 2210 23 discriminator 1
	leaq	-25(%rbp), %rax	 #, tmp105
	movq	%rax, %rcx	 # tmp105,
	call	_ZNSt6vectorIdSaIdEE11_S_max_sizeERKS0_	 #
 # D:/msys64/ucrt64/include/c++/15.2.0/bits/stl_vector.h:2210: 	if (__n > _S_max_size(_Tp_alloc_type(__a)))
	.loc 6 2210 10 discriminator 2
	cmpq	16(%rbp), %rax	 # __n, _1
	setb	%al	 #, retval.21_6
.LBB248:
.LBB249:
 # D:/msys64/ucrt64/include/c++/15.2.0/bits/allocator.h:189:       ~allocator() _GLIBCXX_NOTHROW { }
	.loc 5 189 31
	nop	
.LBE249:
.LBE248:
 # D:/msys64/ucrt64/include/c++/15.2.0/bits/stl_vector.h:2210: 	if (__n > _S_max_size(_Tp_alloc_type(__a)))
	.loc 6 2210 2 discriminator 3
	testb	%al, %al	 # retval.21_6
	je	.L54	 #,
 # D:/msys64/ucrt64/include/c++/15.2.0/bits/stl_vector.h:2211: 	  __throw_length_error(
	.loc 6 2211 24
	leaq	.LC6(%rip), %rax	 #, tmp106
	movq	%rax, %rcx	 # tmp106,
	call	_ZSt20__throw_length_errorPKc	 #
.L54:
 # D:/msys64/ucrt64/include/c++/15.2.0/bits/stl_vector.h:2213: 	return __n;
	.loc 6 2213 9
	movq	16(%rbp), %rax	 # __n, _8
 # D:/msys64/ucrt64/include/c++/15.2.0/bits/stl_vector.h:2214:       }
	.loc 6 2214 7
	addq	$64, %rsp	 #,
	popq	%rbp	 #
	.cfi_restore 6
	.cfi_def_cfa 7, 8
	ret	
	.cfi_endproc
.LFE5383:
	.seh_endproc
	.section	.text$_ZNSt12_Vector_baseIdSaIdEEC2EyRKS0_,"x"
	.linkonce discard
	.align 2
	.globl	_ZNSt12_Vector_baseIdSaIdEEC2EyRKS0_
	.def	_ZNSt12_Vector_baseIdSaIdEEC2EyRKS0_;	.scl	2;	.type	32;	.endef
	.seh_proc	_ZNSt12_Vector_baseIdSaIdEEC2EyRKS0_
_ZNSt12_Vector_baseIdSaIdEEC2EyRKS0_:
.LFB5385:
	.loc 6 339 7
	.cfi_startproc
	pushq	%rbp	 #
	.seh_pushreg	%rbp
	.cfi_def_cfa_offset 16
	.cfi_offset 6, -16
	pushq	%rbx	 #
	.seh_pushreg	%rbx
	.cfi_def_cfa_offset 24
	.cfi_offset 3, -24
	subq	$40, %rsp	 #,
	.seh_stackalloc	40
	.cfi_def_cfa_offset 64
	leaq	32(%rsp), %rbp	 #,
	.seh_setframe	%rbp, 32
	.cfi_def_cfa 6, 32
	.seh_endprologue
	movq	%rcx, 32(%rbp)	 # this, this
	movq	%rdx, 40(%rbp)	 # __n, __n
	movq	%r8, 48(%rbp)	 # __a, __a
.LBB250:
 # D:/msys64/ucrt64/include/c++/15.2.0/bits/stl_vector.h:340:       : _M_impl(__a)
	.loc 6 340 9
	movq	32(%rbp), %rax	 # this, _1
	movq	48(%rbp), %rdx	 # __a, tmp101
	movq	%rax, %rcx	 # _1,
	call	_ZNSt12_Vector_baseIdSaIdEE12_Vector_implC1ERKS0_	 #
 # D:/msys64/ucrt64/include/c++/15.2.0/bits/stl_vector.h:341:       { _M_create_storage(__n); }
	.loc 6 341 26
	movq	40(%rbp), %rdx	 # __n, tmp102
	movq	32(%rbp), %rax	 # this, tmp103
	movq	%rax, %rcx	 # tmp103,
.LEHB9:
	call	_ZNSt12_Vector_baseIdSaIdEE17_M_create_storageEy	 #
.LEHE9:
.LBE250:
 # D:/msys64/ucrt64/include/c++/15.2.0/bits/stl_vector.h:341:       { _M_create_storage(__n); }
	.loc 6 341 33
	jmp	.L59	 #
.L58:
.LBB251:
 # D:/msys64/ucrt64/include/c++/15.2.0/bits/stl_vector.h:341:       { _M_create_storage(__n); }
	.loc 6 341 33 is_stmt 0 discriminator 2
	movq	%rax, %rbx	 #, tmp104
	movq	32(%rbp), %rax	 # this, _2
	movq	%rax, %rcx	 # _2,
	call	_ZNSt12_Vector_baseIdSaIdEE12_Vector_implD1Ev	 #
	movq	%rbx, %rax	 # tmp104, D.97657
	movq	%rax, %rcx	 # D.97657,
.LEHB10:
	call	_Unwind_Resume	 #
	nop	
.LEHE10:
.L59:
.LBE251:
 # D:/msys64/ucrt64/include/c++/15.2.0/bits/stl_vector.h:341:       { _M_create_storage(__n); }
	.loc 6 341 33
	addq	$40, %rsp	 #,
	popq	%rbx	 #
	.cfi_restore 3
	popq	%rbp	 #
	.cfi_restore 6
	.cfi_def_cfa 7, -24
	ret	
	.cfi_endproc
.LFE5385:
	.seh_handler	__gxx_personality_seh0, @unwind, @except
	.seh_handlerdata
.LLSDA5385:
	.byte	0xff
	.byte	0xff
	.byte	0x1
	.uleb128 .LLSDACSE5385-.LLSDACSB5385
.LLSDACSB5385:
	.uleb128 .LEHB9-.LFB5385
	.uleb128 .LEHE9-.LEHB9
	.uleb128 .L58-.LFB5385
	.uleb128 0
	.uleb128 .LEHB10-.LFB5385
	.uleb128 .LEHE10-.LEHB10
	.uleb128 0
	.uleb128 0
.LLSDACSE5385:
	.section	.text$_ZNSt12_Vector_baseIdSaIdEEC2EyRKS0_,"x"
	.linkonce discard
	.seh_endproc
	.section	.text$_ZNSt6vectorIdSaIdEE18_M_fill_initializeEyRKd,"x"
	.linkonce discard
	.align 2
	.globl	_ZNSt6vectorIdSaIdEE18_M_fill_initializeEyRKd
	.def	_ZNSt6vectorIdSaIdEE18_M_fill_initializeEyRKd;	.scl	2;	.type	32;	.endef
	.seh_proc	_ZNSt6vectorIdSaIdEE18_M_fill_initializeEyRKd
_ZNSt6vectorIdSaIdEE18_M_fill_initializeEyRKd:
.LFB5387:
	.loc 6 1997 7 is_stmt 1
	.cfi_startproc
	pushq	%rbp	 #
	.seh_pushreg	%rbp
	.cfi_def_cfa_offset 16
	.cfi_offset 6, -16
	movq	%rsp, %rbp	 #,
	.seh_setframe	%rbp, 0
	.cfi_def_cfa_register 6
	subq	$32, %rsp	 #,
	.seh_stackalloc	32
	.seh_endprologue
	movq	%rcx, 16(%rbp)	 # this, this
	movq	%rdx, 24(%rbp)	 # __n, __n
	movq	%r8, 32(%rbp)	 # __value, __value
 # D:/msys64/ucrt64/include/c++/15.2.0/bits/stl_vector.h:2001: 					_M_get_Tp_allocator());
	.loc 6 2001 25
	movq	16(%rbp), %rax	 # this, _1
	movq	%rax, %rcx	 # _1,
	call	_ZNSt12_Vector_baseIdSaIdEE19_M_get_Tp_allocatorEv	 #
	movq	%rax, %rcx	 #, _2
 # D:/msys64/ucrt64/include/c++/15.2.0/bits/stl_vector.h:2000: 	  std::__uninitialized_fill_n_a(this->_M_impl._M_start, __n, __value,
	.loc 6 2000 48
	movq	16(%rbp), %rax	 # this, tmp102
	movq	(%rax), %rax	 # this_5(D)->D.68084._M_impl.D.67390._M_start, _3
 # D:/msys64/ucrt64/include/c++/15.2.0/bits/stl_vector.h:2000: 	  std::__uninitialized_fill_n_a(this->_M_impl._M_start, __n, __value,
	.loc 6 2000 33
	movq	32(%rbp), %r8	 # __value, tmp103
	movq	24(%rbp), %rdx	 # __n, tmp104
	movq	%rcx, %r9	 # _2,
	movq	%rax, %rcx	 # _3,
	call	_ZSt24__uninitialized_fill_n_aIPdyddET_S1_T0_RKT1_RSaIT2_E	 #
 # D:/msys64/ucrt64/include/c++/15.2.0/bits/stl_vector.h:1999: 	this->_M_impl._M_finish =
	.loc 6 1999 26
	movq	16(%rbp), %rdx	 # this, tmp105
	movq	%rax, 8(%rdx)	 # _4, this_5(D)->D.68084._M_impl.D.67390._M_finish
 # D:/msys64/ucrt64/include/c++/15.2.0/bits/stl_vector.h:2002:       }
	.loc 6 2002 7
	nop	
	addq	$32, %rsp	 #,
	popq	%rbp	 #
	.cfi_restore 6
	.cfi_def_cfa 7, 8
	ret	
	.cfi_endproc
.LFE5387:
	.seh_endproc
	.section	.text$_ZNSt12_Vector_baseIdSaIdEE19_M_get_Tp_allocatorEv,"x"
	.linkonce discard
	.align 2
	.globl	_ZNSt12_Vector_baseIdSaIdEE19_M_get_Tp_allocatorEv
	.def	_ZNSt12_Vector_baseIdSaIdEE19_M_get_Tp_allocatorEv;	.scl	2;	.type	32;	.endef
	.seh_proc	_ZNSt12_Vector_baseIdSaIdEE19_M_get_Tp_allocatorEv
_ZNSt12_Vector_baseIdSaIdEE19_M_get_Tp_allocatorEv:
.LFB5388:
	.loc 6 307 7
	.cfi_startproc
	pushq	%rbp	 #
	.seh_pushreg	%rbp
	.cfi_def_cfa_offset 16
	.cfi_offset 6, -16
	movq	%rsp, %rbp	 #,
	.seh_setframe	%rbp, 0
	.cfi_def_cfa_register 6
	.seh_endprologue
	movq	%rcx, 16(%rbp)	 # this, this
 # D:/msys64/ucrt64/include/c++/15.2.0/bits/stl_vector.h:308:       { return this->_M_impl; }
	.loc 6 308 22
	movq	16(%rbp), %rax	 # this, _2
 # D:/msys64/ucrt64/include/c++/15.2.0/bits/stl_vector.h:308:       { return this->_M_impl; }
	.loc 6 308 31
	popq	%rbp	 #
	.cfi_restore 6
	.cfi_def_cfa 7, 8
	ret	
	.cfi_endproc
.LFE5388:
	.seh_endproc
	.section	.text$_ZNSt12_Vector_baseIdSaIdEE17_Vector_impl_dataC2Ev,"x"
	.linkonce discard
	.align 2
	.globl	_ZNSt12_Vector_baseIdSaIdEE17_Vector_impl_dataC2Ev
	.def	_ZNSt12_Vector_baseIdSaIdEE17_Vector_impl_dataC2Ev;	.scl	2;	.type	32;	.endef
	.seh_proc	_ZNSt12_Vector_baseIdSaIdEE17_Vector_impl_dataC2Ev
_ZNSt12_Vector_baseIdSaIdEE17_Vector_impl_dataC2Ev:
.LFB5439:
	.loc 6 105 2
	.cfi_startproc
	pushq	%rbp	 #
	.seh_pushreg	%rbp
	.cfi_def_cfa_offset 16
	.cfi_offset 6, -16
	movq	%rsp, %rbp	 #,
	.seh_setframe	%rbp, 0
	.cfi_def_cfa_register 6
	.seh_endprologue
	movq	%rcx, 16(%rbp)	 # this, this
.LBB252:
 # D:/msys64/ucrt64/include/c++/15.2.0/bits/stl_vector.h:106: 	: _M_start(), _M_finish(), _M_end_of_storage()
	.loc 6 106 4
	movq	16(%rbp), %rax	 # this, tmp98
	movq	$0, (%rax)	 #, this_2(D)->_M_start
 # D:/msys64/ucrt64/include/c++/15.2.0/bits/stl_vector.h:106: 	: _M_start(), _M_finish(), _M_end_of_storage()
	.loc 6 106 16
	movq	16(%rbp), %rax	 # this, tmp99
	movq	$0, 8(%rax)	 #, this_2(D)->_M_finish
 # D:/msys64/ucrt64/include/c++/15.2.0/bits/stl_vector.h:106: 	: _M_start(), _M_finish(), _M_end_of_storage()
	.loc 6 106 29
	movq	16(%rbp), %rax	 # this, tmp100
	movq	$0, 16(%rax)	 #, this_2(D)->_M_end_of_storage
.LBE252:
 # D:/msys64/ucrt64/include/c++/15.2.0/bits/stl_vector.h:107: 	{ }
	.loc 6 107 4
	nop	
	popq	%rbp	 #
	.cfi_restore 6
	.cfi_def_cfa 7, 8
	ret	
	.cfi_endproc
.LFE5439:
	.seh_endproc
	.section	.text$_ZNSt12_Vector_baseIdSaIdEE13_M_deallocateEPdy,"x"
	.linkonce discard
	.align 2
	.globl	_ZNSt12_Vector_baseIdSaIdEE13_M_deallocateEPdy
	.def	_ZNSt12_Vector_baseIdSaIdEE13_M_deallocateEPdy;	.scl	2;	.type	32;	.endef
	.seh_proc	_ZNSt12_Vector_baseIdSaIdEE13_M_deallocateEPdy
_ZNSt12_Vector_baseIdSaIdEE13_M_deallocateEPdy:
.LFB5441:
	.loc 6 392 7
	.cfi_startproc
	pushq	%rbp	 #
	.seh_pushreg	%rbp
	.cfi_def_cfa_offset 16
	.cfi_offset 6, -16
	movq	%rsp, %rbp	 #,
	.seh_setframe	%rbp, 0
	.cfi_def_cfa_register 6
	subq	$80, %rsp	 #,
	.seh_stackalloc	80
	.seh_endprologue
	movq	%rcx, 16(%rbp)	 # this, this
	movq	%rdx, 24(%rbp)	 # __p, __p
	movq	%r8, 32(%rbp)	 # __n, __n
 # D:/msys64/ucrt64/include/c++/15.2.0/bits/stl_vector.h:395: 	if (__p)
	.loc 6 395 2
	cmpq	$0, 24(%rbp)	 #, __p
	je	.L69	 #,
 # D:/msys64/ucrt64/include/c++/15.2.0/bits/stl_vector.h:396: 	  _Tr::deallocate(_M_impl, __p, __n);
	.loc 6 396 20
	movq	16(%rbp), %rax	 # this, _1
	movq	%rax, -8(%rbp)	 # _1, __a
	movq	24(%rbp), %rax	 # __p, tmp100
	movq	%rax, -16(%rbp)	 # tmp100, __p
	movq	32(%rbp), %rax	 # __n, tmp101
	movq	%rax, -24(%rbp)	 # tmp101, __n
	movq	-8(%rbp), %rax	 # __a, tmp102
	movq	%rax, -32(%rbp)	 # tmp102, this
	movq	-16(%rbp), %rax	 # __p, tmp103
	movq	%rax, -40(%rbp)	 # tmp103, __p
	movq	-24(%rbp), %rax	 # __n, tmp104
	movq	%rax, -48(%rbp)	 # tmp104, __n
.LBB253:
.LBB254:
.LBB255:
.LBB256:
.LBB257:
.LBB258:
 # D:/msys64/ucrt64/include/c++/15.2.0/x86_64-w64-mingw32/bits/c++config.h:589:     return __builtin_is_constant_evaluated();
	.file 11 "D:/msys64/ucrt64/include/c++/15.2.0/x86_64-w64-mingw32/bits/c++config.h"
	.loc 11 589 44
	movl	$0, %eax	 #, _13
.LBE258:
.LBE257:
 # D:/msys64/ucrt64/include/c++/15.2.0/bits/allocator.h:210: 	if (std::__is_constant_evaluated())
	.loc 5 210 2 discriminator 1
	testb	%al, %al	 # _13
	je	.L67	 #,
 # D:/msys64/ucrt64/include/c++/15.2.0/bits/allocator.h:212: 	    ::operator delete(__p);
	.loc 5 212 23
	movq	-40(%rbp), %rax	 # __p, tmp105
	movq	%rax, %rcx	 # tmp105,
	call	_ZdlPv	 #
 # D:/msys64/ucrt64/include/c++/15.2.0/bits/allocator.h:213: 	    return;
	.loc 5 213 6
	jmp	.L68	 #
.L67:
 # D:/msys64/ucrt64/include/c++/15.2.0/bits/allocator.h:215: 	__allocator_base<_Tp>::deallocate(__p, __n);
	.loc 5 215 35
	movq	-48(%rbp), %rcx	 # __n, tmp106
	movq	-40(%rbp), %rdx	 # __p, tmp107
	movq	-32(%rbp), %rax	 # this, tmp108
	movq	%rcx, %r8	 # tmp106,
	movq	%rax, %rcx	 # tmp108,
	call	_ZNSt15__new_allocatorIdE10deallocateEPdy	 #
.L68:
.LBE256:
.LBE255:
 # D:/msys64/ucrt64/include/c++/15.2.0/bits/alloc_traits.h:649:       { __a.deallocate(__p, __n); }
	.loc 8 649 35
	nop	
.L69:
.LBE254:
.LBE253:
 # D:/msys64/ucrt64/include/c++/15.2.0/bits/stl_vector.h:397:       }
	.loc 6 397 7
	nop	
	addq	$80, %rsp	 #,
	popq	%rbp	 #
	.cfi_restore 6
	.cfi_def_cfa 7, 8
	ret	
	.cfi_endproc
.LFE5441:
	.seh_endproc
	.section	.text$_ZNKSt6vectorIdSaIdEE8max_sizeEv,"x"
	.linkonce discard
	.align 2
	.globl	_ZNKSt6vectorIdSaIdEE8max_sizeEv
	.def	_ZNKSt6vectorIdSaIdEE8max_sizeEv;	.scl	2;	.type	32;	.endef
	.seh_proc	_ZNKSt6vectorIdSaIdEE8max_sizeEv
_ZNKSt6vectorIdSaIdEE8max_sizeEv:
.LFB5442:
	.loc 6 1128 7
	.cfi_startproc
	pushq	%rbp	 #
	.seh_pushreg	%rbp
	.cfi_def_cfa_offset 16
	.cfi_offset 6, -16
	movq	%rsp, %rbp	 #,
	.seh_setframe	%rbp, 0
	.cfi_def_cfa_register 6
	subq	$32, %rsp	 #,
	.seh_stackalloc	32
	.seh_endprologue
	movq	%rcx, 16(%rbp)	 # this, this
 # D:/msys64/ucrt64/include/c++/15.2.0/bits/stl_vector.h:1129:       { return _S_max_size(_M_get_Tp_allocator()); }
	.loc 6 1129 47
	movq	16(%rbp), %rax	 # this, _1
	movq	%rax, %rcx	 # _1,
	call	_ZNKSt12_Vector_baseIdSaIdEE19_M_get_Tp_allocatorEv	 #
 # D:/msys64/ucrt64/include/c++/15.2.0/bits/stl_vector.h:1129:       { return _S_max_size(_M_get_Tp_allocator()); }
	.loc 6 1129 27 discriminator 1
	movq	%rax, %rcx	 # _2,
	call	_ZNSt6vectorIdSaIdEE11_S_max_sizeERKS0_	 #
 # D:/msys64/ucrt64/include/c++/15.2.0/bits/stl_vector.h:1129:       { return _S_max_size(_M_get_Tp_allocator()); }
	.loc 6 1129 52
	addq	$32, %rsp	 #,
	popq	%rbp	 #
	.cfi_restore 6
	.cfi_def_cfa 7, 8
	ret	
	.cfi_endproc
.LFE5442:
	.seh_endproc
	.section	.text$_ZNKSt6vectorIdSaIdEE8capacityEv,"x"
	.linkonce discard
	.align 2
	.globl	_ZNKSt6vectorIdSaIdEE8capacityEv
	.def	_ZNKSt6vectorIdSaIdEE8capacityEv;	.scl	2;	.type	32;	.endef
	.seh_proc	_ZNKSt6vectorIdSaIdEE8capacityEv
_ZNKSt6vectorIdSaIdEE8capacityEv:
.LFB5443:
	.loc 6 1208 7
	.cfi_startproc
	pushq	%rbp	 #
	.seh_pushreg	%rbp
	.cfi_def_cfa_offset 16
	.cfi_offset 6, -16
	movq	%rsp, %rbp	 #,
	.seh_setframe	%rbp, 0
	.cfi_def_cfa_register 6
	subq	$16, %rsp	 #,
	.seh_stackalloc	16
	.seh_endprologue
	movq	%rcx, 16(%rbp)	 # this, this
 # D:/msys64/ucrt64/include/c++/15.2.0/bits/stl_vector.h:1210: 	ptrdiff_t __dif = this->_M_impl._M_end_of_storage
	.loc 6 1210 34
	movq	16(%rbp), %rax	 # this, tmp103
	movq	16(%rax), %rdx	 # this_5(D)->D.68084._M_impl.D.67390._M_end_of_storage, _1
 # D:/msys64/ucrt64/include/c++/15.2.0/bits/stl_vector.h:1211: 			  - this->_M_impl._M_start;
	.loc 6 1211 22
	movq	16(%rbp), %rax	 # this, tmp104
	movq	(%rax), %rax	 # this_5(D)->D.68084._M_impl.D.67390._M_start, _2
 # D:/msys64/ucrt64/include/c++/15.2.0/bits/stl_vector.h:1211: 			  - this->_M_impl._M_start;
	.loc 6 1211 6
	subq	%rax, %rdx	 # _2, _3
 # D:/msys64/ucrt64/include/c++/15.2.0/bits/stl_vector.h:1210: 	ptrdiff_t __dif = this->_M_impl._M_end_of_storage
	.loc 6 1210 12
	movq	%rdx, %rax	 # _3, _3
	sarq	$3, %rax	 #, _3
	movq	%rax, -8(%rbp)	 # __dif_6, __dif
 # D:/msys64/ucrt64/include/c++/15.2.0/bits/stl_vector.h:1212: 	if (__dif < 0)
	.loc 6 1212 2
	cmpq	$0, -8(%rbp)	 #, __dif
 # D:/msys64/ucrt64/include/c++/15.2.0/bits/stl_vector.h:1214: 	return size_type(__dif);
	.loc 6 1214 24
	movq	-8(%rbp), %rax	 # __dif, _7
 # D:/msys64/ucrt64/include/c++/15.2.0/bits/stl_vector.h:1215:       }
	.loc 6 1215 7
	addq	$16, %rsp	 #,
	popq	%rbp	 #
	.cfi_restore 6
	.cfi_def_cfa 7, 8
	ret	
	.cfi_endproc
.LFE5443:
	.seh_endproc
	.section	.text$_ZNSt12_Vector_baseIdSaIdEE11_M_allocateEy,"x"
	.linkonce discard
	.align 2
	.globl	_ZNSt12_Vector_baseIdSaIdEE11_M_allocateEy
	.def	_ZNSt12_Vector_baseIdSaIdEE11_M_allocateEy;	.scl	2;	.type	32;	.endef
	.seh_proc	_ZNSt12_Vector_baseIdSaIdEE11_M_allocateEy
_ZNSt12_Vector_baseIdSaIdEE11_M_allocateEy:
.LFB5444:
	.loc 6 384 7
	.cfi_startproc
	pushq	%rbp	 #
	.seh_pushreg	%rbp
	.cfi_def_cfa_offset 16
	.cfi_offset 6, -16
	movq	%rsp, %rbp	 #,
	.seh_setframe	%rbp, 0
	.cfi_def_cfa_register 6
	subq	$64, %rsp	 #,
	.seh_stackalloc	64
	.seh_endprologue
	movq	%rcx, 16(%rbp)	 # this, this
	movq	%rdx, 24(%rbp)	 # __n, __n
 # D:/msys64/ucrt64/include/c++/15.2.0/bits/stl_vector.h:387: 	return __n != 0 ? _Tr::allocate(_M_impl, __n) : pointer();
	.loc 6 387 18
	cmpq	$0, 24(%rbp)	 #, __n
	je	.L76	 #,
 # D:/msys64/ucrt64/include/c++/15.2.0/bits/stl_vector.h:387: 	return __n != 0 ? _Tr::allocate(_M_impl, __n) : pointer();
	.loc 6 387 34 discriminator 1
	movq	16(%rbp), %rax	 # this, _1
	movq	%rax, -8(%rbp)	 # _1, __a
	movq	24(%rbp), %rax	 # __n, tmp110
	movq	%rax, -16(%rbp)	 # tmp110, __n
	movq	-8(%rbp), %rax	 # __a, tmp111
	movq	%rax, -24(%rbp)	 # tmp111, this
	movq	-16(%rbp), %rax	 # __n, tmp112
	movq	%rax, -32(%rbp)	 # tmp112, __n
.LBB259:
.LBB260:
.LBB261:
.LBB262:
.LBB263:
.LBB264:
 # D:/msys64/ucrt64/include/c++/15.2.0/x86_64-w64-mingw32/bits/c++config.h:589:     return __builtin_is_constant_evaluated();
	.loc 11 589 44
	movl	$0, %eax	 #, _13
.LBE264:
.LBE263:
 # D:/msys64/ucrt64/include/c++/15.2.0/bits/allocator.h:196: 	if (std::__is_constant_evaluated())
	.loc 5 196 2 discriminator 1
	testb	%al, %al	 # _13
	je	.L78	 #,
 # D:/msys64/ucrt64/include/c++/15.2.0/bits/allocator.h:198: 	    if (__builtin_mul_overflow(__n, sizeof(_Tp), &__n))
	.loc 5 198 32
	movq	-32(%rbp), %rax	 # __n, __n.4_16
	movl	$0, %ecx	 #, _17
	leaq	0(,%rax,8), %rdx	 #, tmp113
	shrq	$61, %rax	 #, tmp114
	testq	%rax, %rax	 # tmp114
	je	.L79	 #,
	movl	$1, %ecx	 #, _17
.L79:
	movq	%rdx, %rax	 # tmp113, _17
 # D:/msys64/ucrt64/include/c++/15.2.0/bits/allocator.h:198: 	    if (__builtin_mul_overflow(__n, sizeof(_Tp), &__n))
	.loc 5 198 32 is_stmt 0 discriminator 1
	movq	%rax, -32(%rbp)	 # _18, __n
	movq	%rcx, %rax	 # _17, _19
	andl	$1, %eax	 #, retval.3_20
 # D:/msys64/ucrt64/include/c++/15.2.0/bits/allocator.h:198: 	    if (__builtin_mul_overflow(__n, sizeof(_Tp), &__n))
	.loc 5 198 6 is_stmt 1 discriminator 1
	testb	%al, %al	 # retval.3_20
	je	.L81	 #,
 # D:/msys64/ucrt64/include/c++/15.2.0/bits/allocator.h:199: 	      std::__throw_bad_array_new_length();
	.loc 5 199 41
	call	_ZSt28__throw_bad_array_new_lengthv	 #
.L81:
 # D:/msys64/ucrt64/include/c++/15.2.0/bits/allocator.h:200: 	    return static_cast<_Tp*>(::operator new(__n));
	.loc 5 200 45
	movq	-32(%rbp), %rax	 # __n, __n.5_21
	movq	%rax, %rcx	 # __n.5_21,
	call	_Znwy	 #
 # D:/msys64/ucrt64/include/c++/15.2.0/bits/allocator.h:200: 	    return static_cast<_Tp*>(::operator new(__n));
	.loc 5 200 50
	jmp	.L82	 #
.L78:
 # D:/msys64/ucrt64/include/c++/15.2.0/bits/allocator.h:203: 	return __allocator_base<_Tp>::allocate(__n, 0);
	.loc 5 203 40
	movq	-32(%rbp), %rdx	 # __n, __n.6_24
	movq	-24(%rbp), %rax	 # this, tmp116
	movl	$0, %r8d	 #,
	movq	%rax, %rcx	 # tmp116,
	call	_ZNSt15__new_allocatorIdE8allocateEyPKv	 #
 # D:/msys64/ucrt64/include/c++/15.2.0/bits/allocator.h:203: 	return __allocator_base<_Tp>::allocate(__n, 0);
	.loc 5 203 47
	nop	
.L82:
.LBE262:
.LBE261:
 # D:/msys64/ucrt64/include/c++/15.2.0/bits/alloc_traits.h:614:       { return __a.allocate(__n); }
	.loc 8 614 32
	nop	
	jmp	.L84	 #
.L76:
.LBE260:
.LBE259:
 # D:/msys64/ucrt64/include/c++/15.2.0/bits/stl_vector.h:387: 	return __n != 0 ? _Tr::allocate(_M_impl, __n) : pointer();
	.loc 6 387 58 discriminator 2
	movl	$0, %eax	 #, D.97490
.L84:
 # D:/msys64/ucrt64/include/c++/15.2.0/bits/stl_vector.h:388:       }
	.loc 6 388 7
	addq	$64, %rsp	 #,
	popq	%rbp	 #
	.cfi_restore 6
	.cfi_def_cfa 7, 8
	ret	
	.cfi_endproc
.LFE5444:
	.seh_endproc
	.section	.text$_ZNSt6vectorIdSaIdEE11_S_relocateEPdS2_S2_RS0_,"x"
	.linkonce discard
	.globl	_ZNSt6vectorIdSaIdEE11_S_relocateEPdS2_S2_RS0_
	.def	_ZNSt6vectorIdSaIdEE11_S_relocateEPdS2_S2_RS0_;	.scl	2;	.type	32;	.endef
	.seh_proc	_ZNSt6vectorIdSaIdEE11_S_relocateEPdS2_S2_RS0_
_ZNSt6vectorIdSaIdEE11_S_relocateEPdS2_S2_RS0_:
.LFB5445:
	.loc 6 534 7
	.cfi_startproc
	pushq	%rbp	 #
	.seh_pushreg	%rbp
	.cfi_def_cfa_offset 16
	.cfi_offset 6, -16
	movq	%rsp, %rbp	 #,
	.seh_setframe	%rbp, 0
	.cfi_def_cfa_register 6
	subq	$32, %rsp	 #,
	.seh_stackalloc	32
	.seh_endprologue
	movq	%rcx, 16(%rbp)	 # __first, __first
	movq	%rdx, 24(%rbp)	 # __last, __last
	movq	%r8, 32(%rbp)	 # __result, __result
	movq	%r9, 40(%rbp)	 # __alloc, __alloc
 # D:/msys64/ucrt64/include/c++/15.2.0/bits/stl_vector.h:539: 	return std::__relocate_a(__first, __last, __result, __alloc);
	.loc 6 539 26
	movq	40(%rbp), %r8	 # __alloc, tmp100
	movq	32(%rbp), %rcx	 # __result, tmp101
	movq	24(%rbp), %rdx	 # __last, tmp102
	movq	16(%rbp), %rax	 # __first, tmp103
	movq	%r8, %r9	 # tmp100,
	movq	%rcx, %r8	 # tmp101,
	movq	%rax, %rcx	 # tmp103,
	call	_ZSt12__relocate_aIPdS0_SaIdEET0_T_S3_S2_RT1_	 #
 # D:/msys64/ucrt64/include/c++/15.2.0/bits/stl_vector.h:544:       }
	.loc 6 544 7
	addq	$32, %rsp	 #,
	popq	%rbp	 #
	.cfi_restore 6
	.cfi_def_cfa 7, 8
	ret	
	.cfi_endproc
.LFE5445:
	.seh_endproc
	.section	.text$_ZNSt6vectorIdSaIdEE12emplace_backIJdEEERdDpOT_,"x"
	.linkonce discard
	.align 2
	.globl	_ZNSt6vectorIdSaIdEE12emplace_backIJdEEERdDpOT_
	.def	_ZNSt6vectorIdSaIdEE12emplace_backIJdEEERdDpOT_;	.scl	2;	.type	32;	.endef
	.seh_proc	_ZNSt6vectorIdSaIdEE12emplace_backIJdEEERdDpOT_
_ZNSt6vectorIdSaIdEE12emplace_backIJdEEERdDpOT_:
.LFB5447:
	.loc 9 111 7
	.cfi_startproc
	pushq	%rbp	 #
	.seh_pushreg	%rbp
	.cfi_def_cfa_offset 16
	.cfi_offset 6, -16
	movq	%rsp, %rbp	 #,
	.seh_setframe	%rbp, 0
	.cfi_def_cfa_register 6
	subq	$80, %rsp	 #,
	.seh_stackalloc	80
	.seh_endprologue
	movq	%rcx, 16(%rbp)	 # this, this
	movq	%rdx, 24(%rbp)	 # __args#0, __args#0
 # D:/msys64/ucrt64/include/c++/15.2.0/bits/vector.tcc:114: 	if (this->_M_impl._M_finish != this->_M_impl._M_end_of_storage)
	.loc 9 114 20
	movq	16(%rbp), %rax	 # this, tmp109
	movq	8(%rax), %rdx	 # this_11(D)->D.68084._M_impl.D.67390._M_finish, _1
 # D:/msys64/ucrt64/include/c++/15.2.0/bits/vector.tcc:114: 	if (this->_M_impl._M_finish != this->_M_impl._M_end_of_storage)
	.loc 9 114 47
	movq	16(%rbp), %rax	 # this, tmp110
	movq	16(%rax), %rax	 # this_11(D)->D.68084._M_impl.D.67390._M_end_of_storage, _2
 # D:/msys64/ucrt64/include/c++/15.2.0/bits/vector.tcc:114: 	if (this->_M_impl._M_finish != this->_M_impl._M_end_of_storage)
	.loc 9 114 2
	cmpq	%rax, %rdx	 # _2, _1
	je	.L89	 #,
	movq	24(%rbp), %rax	 # __args#0, tmp111
	movq	%rax, -40(%rbp)	 # tmp111, __t
.LBB265:
.LBB266:
 # D:/msys64/ucrt64/include/c++/15.2.0/bits/move.h:73:     { return static_cast<_Tp&&>(__t); }
	.loc 10 73 36
	movq	-40(%rbp), %rdx	 # __t, D.97636
.LBE266:
.LBE265:
 # D:/msys64/ucrt64/include/c++/15.2.0/bits/vector.tcc:117: 	    _Alloc_traits::construct(this->_M_impl, this->_M_impl._M_finish,
	.loc 9 117 60 discriminator 1
	movq	16(%rbp), %rax	 # this, tmp112
	movq	8(%rax), %rcx	 # this_11(D)->D.68084._M_impl.D.67390._M_finish, _4
 # D:/msys64/ucrt64/include/c++/15.2.0/bits/vector.tcc:117: 	    _Alloc_traits::construct(this->_M_impl, this->_M_impl._M_finish,
	.loc 9 117 37 discriminator 1
	movq	16(%rbp), %rax	 # this, _5
	movq	%rcx, -8(%rbp)	 # _4, __p
	movq	%rdx, -16(%rbp)	 # D.97636, __args#0
	movq	%rax, -24(%rbp)	 # _5, __a
	movq	-16(%rbp), %rax	 # __args#0, tmp113
	movq	%rax, -32(%rbp)	 # tmp113, __t
.LBB267:
.LBB268:
.LBB269:
.LBB270:
 # D:/msys64/ucrt64/include/c++/15.2.0/bits/move.h:73:     { return static_cast<_Tp&&>(__t); }
	.loc 10 73 36
	movq	-32(%rbp), %rdx	 # __t, _21
.LBE270:
.LBE269:
 # D:/msys64/ucrt64/include/c++/15.2.0/bits/alloc_traits.h:676: 	  std::construct_at(__p, std::forward<_Args>(__args)...);
	.loc 8 676 21 discriminator 1
	movq	-8(%rbp), %rax	 # __p, tmp114
	movq	%rax, %rcx	 # tmp114,
	call	_ZSt12construct_atIdJdEQaant20is_unbounded_array_vIT_ErqXgsnwcvPvLi0E_S0_pispcl7declvalIT0_EEEEEPS0_S3_DpOS2_	 #
 # D:/msys64/ucrt64/include/c++/15.2.0/bits/alloc_traits.h:680: 	}
	.loc 8 680 2
	nop	
.LBE268:
.LBE267:
 # D:/msys64/ucrt64/include/c++/15.2.0/bits/vector.tcc:119: 	    ++this->_M_impl._M_finish;
	.loc 9 119 22
	movq	16(%rbp), %rax	 # this, tmp115
	movq	8(%rax), %rax	 # this_11(D)->D.68084._M_impl.D.67390._M_finish, _6
 # D:/msys64/ucrt64/include/c++/15.2.0/bits/vector.tcc:119: 	    ++this->_M_impl._M_finish;
	.loc 9 119 6
	leaq	8(%rax), %rdx	 #, _7
	movq	16(%rbp), %rax	 # this, tmp116
	movq	%rdx, 8(%rax)	 # _7, this_11(D)->D.68084._M_impl.D.67390._M_finish
	jmp	.L92	 #
.L89:
	movq	24(%rbp), %rax	 # __args#0, tmp117
	movq	%rax, -48(%rbp)	 # tmp117, __t
.LBB271:
.LBB272:
 # D:/msys64/ucrt64/include/c++/15.2.0/bits/move.h:73:     { return static_cast<_Tp&&>(__t); }
	.loc 10 73 36
	movq	-48(%rbp), %rdx	 # __t, D.97640
.LBE272:
.LBE271:
 # D:/msys64/ucrt64/include/c++/15.2.0/bits/vector.tcc:123: 	  _M_realloc_append(std::forward<_Args>(__args)...);
	.loc 9 123 21 discriminator 1
	movq	16(%rbp), %rax	 # this, tmp118
	movq	%rax, %rcx	 # tmp118,
	call	_ZNSt6vectorIdSaIdEE17_M_realloc_appendIJdEEEvDpOT_	 #
.L92:
 # D:/msys64/ucrt64/include/c++/15.2.0/bits/vector.tcc:125: 	return back();
	.loc 9 125 13
	movq	16(%rbp), %rax	 # this, tmp119
	movq	%rax, %rcx	 # tmp119,
	call	_ZNSt6vectorIdSaIdEE4backEv	 #
 # D:/msys64/ucrt64/include/c++/15.2.0/bits/vector.tcc:127:       }
	.loc 9 127 7
	addq	$80, %rsp	 #,
	popq	%rbp	 #
	.cfi_restore 6
	.cfi_def_cfa 7, 8
	ret	
	.cfi_endproc
.LFE5447:
	.seh_endproc
	.section	.text$_ZSt3minIyERKT_S2_S2_,"x"
	.linkonce discard
	.globl	_ZSt3minIyERKT_S2_S2_
	.def	_ZSt3minIyERKT_S2_S2_;	.scl	2;	.type	32;	.endef
	.seh_proc	_ZSt3minIyERKT_S2_S2_
_ZSt3minIyERKT_S2_S2_:
.LFB5462:
	.file 12 "D:/msys64/ucrt64/include/c++/15.2.0/bits/stl_algobase.h"
	.loc 12 234 5
	.cfi_startproc
	pushq	%rbp	 #
	.seh_pushreg	%rbp
	.cfi_def_cfa_offset 16
	.cfi_offset 6, -16
	movq	%rsp, %rbp	 #,
	.seh_setframe	%rbp, 0
	.cfi_def_cfa_register 6
	.seh_endprologue
	movq	%rcx, 16(%rbp)	 # __a, __a
	movq	%rdx, 24(%rbp)	 # __b, __b
 # D:/msys64/ucrt64/include/c++/15.2.0/bits/stl_algobase.h:239:       if (__b < __a)
	.loc 12 239 15
	movq	24(%rbp), %rax	 # __b, tmp102
	movq	(%rax), %rdx	 # *__b_5(D), _1
	movq	16(%rbp), %rax	 # __a, tmp103
	movq	(%rax), %rax	 # *__a_6(D), _2
 # D:/msys64/ucrt64/include/c++/15.2.0/bits/stl_algobase.h:239:       if (__b < __a)
	.loc 12 239 7
	cmpq	%rax, %rdx	 # _2, _1
	jnb	.L96	 #,
 # D:/msys64/ucrt64/include/c++/15.2.0/bits/stl_algobase.h:240: 	return __b;
	.loc 12 240 9
	movq	24(%rbp), %rax	 # __b, _3
	jmp	.L97	 #
.L96:
 # D:/msys64/ucrt64/include/c++/15.2.0/bits/stl_algobase.h:241:       return __a;
	.loc 12 241 14
	movq	16(%rbp), %rax	 # __a, _3
.L97:
 # D:/msys64/ucrt64/include/c++/15.2.0/bits/stl_algobase.h:242:     }
	.loc 12 242 5
	popq	%rbp	 #
	.cfi_restore 6
	.cfi_def_cfa 7, 8
	ret	
	.cfi_endproc
.LFE5462:
	.seh_endproc
	.section	.text$_ZNSt6vectorIdSaIdEE11_S_max_sizeERKS0_,"x"
	.linkonce discard
	.globl	_ZNSt6vectorIdSaIdEE11_S_max_sizeERKS0_
	.def	_ZNSt6vectorIdSaIdEE11_S_max_sizeERKS0_;	.scl	2;	.type	32;	.endef
	.seh_proc	_ZNSt6vectorIdSaIdEE11_S_max_sizeERKS0_
_ZNSt6vectorIdSaIdEE11_S_max_sizeERKS0_:
.LFB5533:
	.loc 6 2217 7
	.cfi_startproc
	pushq	%rbp	 #
	.seh_pushreg	%rbp
	.cfi_def_cfa_offset 16
	.cfi_offset 6, -16
	movq	%rsp, %rbp	 #,
	.seh_setframe	%rbp, 0
	.cfi_def_cfa_register 6
	subq	$48, %rsp	 #,
	.seh_stackalloc	48
	.seh_endprologue
	movq	%rcx, 16(%rbp)	 # __a, __a
 # D:/msys64/ucrt64/include/c++/15.2.0/bits/stl_vector.h:2222: 	const size_t __diffmax
	.loc 6 2222 15
	movabsq	$1152921504606846975, %rax	 #, tmp105
	movq	%rax, -8(%rbp)	 # tmp105, __diffmax
 # D:/msys64/ucrt64/include/c++/15.2.0/bits/stl_vector.h:2224: 	const size_t __allocmax = _Alloc_traits::max_size(__a);
	.loc 6 2224 15
	movabsq	$2305843009213693951, %rax	 #, tmp106
	movq	%rax, -16(%rbp)	 # tmp106, __allocmax
 # D:/msys64/ucrt64/include/c++/15.2.0/bits/stl_vector.h:2225: 	return (std::min)(__diffmax, __allocmax);
	.loc 6 2225 19
	leaq	-16(%rbp), %rdx	 #, tmp101
	leaq	-8(%rbp), %rax	 #, tmp102
	movq	%rax, %rcx	 # tmp102,
	call	_ZSt3minIyERKT_S2_S2_	 #
 # D:/msys64/ucrt64/include/c++/15.2.0/bits/stl_vector.h:2225: 	return (std::min)(__diffmax, __allocmax);
	.loc 6 2225 41 discriminator 1
	movq	(%rax), %rax	 # *_1, _6
 # D:/msys64/ucrt64/include/c++/15.2.0/bits/stl_vector.h:2226:       }
	.loc 6 2226 7
	addq	$48, %rsp	 #,
	popq	%rbp	 #
	.cfi_restore 6
	.cfi_def_cfa 7, 8
	ret	
	.cfi_endproc
.LFE5533:
	.seh_endproc
	.section	.text$_ZNSt12_Vector_baseIdSaIdEE12_Vector_implC1ERKS0_,"x"
	.linkonce discard
	.align 2
	.globl	_ZNSt12_Vector_baseIdSaIdEE12_Vector_implC1ERKS0_
	.def	_ZNSt12_Vector_baseIdSaIdEE12_Vector_implC1ERKS0_;	.scl	2;	.type	32;	.endef
	.seh_proc	_ZNSt12_Vector_baseIdSaIdEE12_Vector_implC1ERKS0_
_ZNSt12_Vector_baseIdSaIdEE12_Vector_implC1ERKS0_:
.LFB5537:
	.loc 6 152 2
	.cfi_startproc
	pushq	%rbp	 #
	.seh_pushreg	%rbp
	.cfi_def_cfa_offset 16
	.cfi_offset 6, -16
	movq	%rsp, %rbp	 #,
	.seh_setframe	%rbp, 0
	.cfi_def_cfa_register 6
	subq	$64, %rsp	 #,
	.seh_stackalloc	64
	.seh_endprologue
	movq	%rcx, 16(%rbp)	 # this, this
	movq	%rdx, 24(%rbp)	 # __a, __a
	movq	16(%rbp), %rax	 # this, tmp99
	movq	%rax, -8(%rbp)	 # tmp99, this
	movq	24(%rbp), %rax	 # __a, tmp100
	movq	%rax, -16(%rbp)	 # tmp100, __a
	movq	-8(%rbp), %rax	 # this, tmp101
	movq	%rax, -24(%rbp)	 # tmp101, this
	movq	-16(%rbp), %rax	 # __a, tmp102
	movq	%rax, -32(%rbp)	 # tmp102, D.97390
.LBB273:
.LBB274:
.LBB275:
.LBB276:
.LBB277:
.LBB278:
 # D:/msys64/ucrt64/include/c++/15.2.0/bits/new_allocator.h:92:       __new_allocator(const __new_allocator&) _GLIBCXX_USE_NOEXCEPT { }
	.loc 4 92 58
	nop	
.LBE278:
.LBE277:
.LBE276:
 # D:/msys64/ucrt64/include/c++/15.2.0/bits/allocator.h:173:       : __allocator_base<_Tp>(__a) { }
	.loc 5 173 38
	nop	
.LBE275:
.LBE274:
 # D:/msys64/ucrt64/include/c++/15.2.0/bits/stl_vector.h:153: 	: _Tp_alloc_type(__a)
	.loc 6 153 22 discriminator 1
	movq	16(%rbp), %rax	 # this, _1
	movq	%rax, %rcx	 # _1,
	call	_ZNSt12_Vector_baseIdSaIdEE17_Vector_impl_dataC2Ev	 #
.LBE273:
 # D:/msys64/ucrt64/include/c++/15.2.0/bits/stl_vector.h:154: 	{ }
	.loc 6 154 4
	nop	
	addq	$64, %rsp	 #,
	popq	%rbp	 #
	.cfi_restore 6
	.cfi_def_cfa 7, 8
	ret	
	.cfi_endproc
.LFE5537:
	.seh_endproc
	.section	.text$_ZNSt12_Vector_baseIdSaIdEE17_M_create_storageEy,"x"
	.linkonce discard
	.align 2
	.globl	_ZNSt12_Vector_baseIdSaIdEE17_M_create_storageEy
	.def	_ZNSt12_Vector_baseIdSaIdEE17_M_create_storageEy;	.scl	2;	.type	32;	.endef
	.seh_proc	_ZNSt12_Vector_baseIdSaIdEE17_M_create_storageEy
_ZNSt12_Vector_baseIdSaIdEE17_M_create_storageEy:
.LFB5538:
	.loc 6 403 7
	.cfi_startproc
	pushq	%rbp	 #
	.seh_pushreg	%rbp
	.cfi_def_cfa_offset 16
	.cfi_offset 6, -16
	movq	%rsp, %rbp	 #,
	.seh_setframe	%rbp, 0
	.cfi_def_cfa_register 6
	subq	$32, %rsp	 #,
	.seh_stackalloc	32
	.seh_endprologue
	movq	%rcx, 16(%rbp)	 # this, this
	movq	%rdx, 24(%rbp)	 # __n, __n
 # D:/msys64/ucrt64/include/c++/15.2.0/bits/stl_vector.h:405: 	this->_M_impl._M_start = this->_M_allocate(__n);
	.loc 6 405 44
	movq	24(%rbp), %rdx	 # __n, tmp103
	movq	16(%rbp), %rax	 # this, tmp104
	movq	%rax, %rcx	 # tmp104,
	call	_ZNSt12_Vector_baseIdSaIdEE11_M_allocateEy	 #
 # D:/msys64/ucrt64/include/c++/15.2.0/bits/stl_vector.h:405: 	this->_M_impl._M_start = this->_M_allocate(__n);
	.loc 6 405 25 discriminator 1
	movq	16(%rbp), %rdx	 # this, tmp105
	movq	%rax, (%rdx)	 # _1, this_7(D)->_M_impl.D.67390._M_start
 # D:/msys64/ucrt64/include/c++/15.2.0/bits/stl_vector.h:406: 	this->_M_impl._M_finish = this->_M_impl._M_start;
	.loc 6 406 42
	movq	16(%rbp), %rax	 # this, tmp106
	movq	(%rax), %rdx	 # this_7(D)->_M_impl.D.67390._M_start, _2
 # D:/msys64/ucrt64/include/c++/15.2.0/bits/stl_vector.h:406: 	this->_M_impl._M_finish = this->_M_impl._M_start;
	.loc 6 406 26
	movq	16(%rbp), %rax	 # this, tmp107
	movq	%rdx, 8(%rax)	 # _2, this_7(D)->_M_impl.D.67390._M_finish
 # D:/msys64/ucrt64/include/c++/15.2.0/bits/stl_vector.h:407: 	this->_M_impl._M_end_of_storage = this->_M_impl._M_start + __n;
	.loc 6 407 50
	movq	16(%rbp), %rax	 # this, tmp108
	movq	(%rax), %rax	 # this_7(D)->_M_impl.D.67390._M_start, _3
 # D:/msys64/ucrt64/include/c++/15.2.0/bits/stl_vector.h:407: 	this->_M_impl._M_end_of_storage = this->_M_impl._M_start + __n;
	.loc 6 407 59
	movq	24(%rbp), %rdx	 # __n, tmp109
	salq	$3, %rdx	 #, _4
	addq	%rax, %rdx	 # _3, _5
 # D:/msys64/ucrt64/include/c++/15.2.0/bits/stl_vector.h:407: 	this->_M_impl._M_end_of_storage = this->_M_impl._M_start + __n;
	.loc 6 407 34
	movq	16(%rbp), %rax	 # this, tmp110
	movq	%rdx, 16(%rax)	 # _5, this_7(D)->_M_impl.D.67390._M_end_of_storage
 # D:/msys64/ucrt64/include/c++/15.2.0/bits/stl_vector.h:408:       }
	.loc 6 408 7
	nop	
	addq	$32, %rsp	 #,
	popq	%rbp	 #
	.cfi_restore 6
	.cfi_def_cfa 7, 8
	ret	
	.cfi_endproc
.LFE5538:
	.seh_endproc
	.section	.text$_ZSt24__uninitialized_fill_n_aIPdyddET_S1_T0_RKT1_RSaIT2_E,"x"
	.linkonce discard
	.globl	_ZSt24__uninitialized_fill_n_aIPdyddET_S1_T0_RKT1_RSaIT2_E
	.def	_ZSt24__uninitialized_fill_n_aIPdyddET_S1_T0_RKT1_RSaIT2_E;	.scl	2;	.type	32;	.endef
	.seh_proc	_ZSt24__uninitialized_fill_n_aIPdyddET_S1_T0_RKT1_RSaIT2_E
_ZSt24__uninitialized_fill_n_aIPdyddET_S1_T0_RKT1_RSaIT2_E:
.LFB5539:
	.file 13 "D:/msys64/ucrt64/include/c++/15.2.0/bits/stl_uninitialized.h"
	.loc 13 720 5
	.cfi_startproc
	pushq	%rbp	 #
	.seh_pushreg	%rbp
	.cfi_def_cfa_offset 16
	.cfi_offset 6, -16
	movq	%rsp, %rbp	 #,
	.seh_setframe	%rbp, 0
	.cfi_def_cfa_register 6
	subq	$32, %rsp	 #,
	.seh_stackalloc	32
	.seh_endprologue
	movq	%rcx, 16(%rbp)	 # __first, __first
	movq	%rdx, 24(%rbp)	 # __n, __n
	movq	%r8, 32(%rbp)	 # __x, __x
	movq	%r9, 40(%rbp)	 # D.94486, D.94486
 # D:/msys64/ucrt64/include/c++/15.2.0/bits/stl_uninitialized.h:724:       if (std::is_constant_evaluated())
	.loc 13 724 37
	call	_ZSt21is_constant_evaluatedv	 #
 # D:/msys64/ucrt64/include/c++/15.2.0/bits/stl_uninitialized.h:724:       if (std::is_constant_evaluated())
	.loc 13 724 7 discriminator 1
	testb	%al, %al	 # retval.22_5
	je	.L103	 #,
 # D:/msys64/ucrt64/include/c++/15.2.0/bits/stl_uninitialized.h:725: 	return std::__do_uninit_fill_n(__first, __n, __x);
	.loc 13 725 32
	movq	32(%rbp), %rcx	 # __x, tmp101
	movq	24(%rbp), %rdx	 # __n, tmp102
	movq	16(%rbp), %rax	 # __first, tmp103
	movq	%rcx, %r8	 # tmp101,
	movq	%rax, %rcx	 # tmp103,
	call	_ZSt18__do_uninit_fill_nIPdydET_S1_T0_RKT1_	 #
 # D:/msys64/ucrt64/include/c++/15.2.0/bits/stl_uninitialized.h:725: 	return std::__do_uninit_fill_n(__first, __n, __x);
	.loc 13 725 50
	jmp	.L104	 #
.L103:
 # D:/msys64/ucrt64/include/c++/15.2.0/bits/stl_uninitialized.h:727:       return std::uninitialized_fill_n(__first, __n, __x);
	.loc 13 727 39
	movq	32(%rbp), %rcx	 # __x, tmp104
	movq	24(%rbp), %rdx	 # __n, tmp105
	movq	16(%rbp), %rax	 # __first, tmp106
	movq	%rcx, %r8	 # tmp104,
	movq	%rax, %rcx	 # tmp106,
	call	_ZSt20uninitialized_fill_nIPdydET_S1_T0_RKT1_	 #
 # D:/msys64/ucrt64/include/c++/15.2.0/bits/stl_uninitialized.h:727:       return std::uninitialized_fill_n(__first, __n, __x);
	.loc 13 727 57
	nop	
.L104:
 # D:/msys64/ucrt64/include/c++/15.2.0/bits/stl_uninitialized.h:728:     }
	.loc 13 728 5
	addq	$32, %rsp	 #,
	popq	%rbp	 #
	.cfi_restore 6
	.cfi_def_cfa 7, 8
	ret	
	.cfi_endproc
.LFE5539:
	.seh_endproc
	.section	.text$_ZSt8_DestroyIPdEvT_S1_,"x"
	.linkonce discard
	.globl	_ZSt8_DestroyIPdEvT_S1_
	.def	_ZSt8_DestroyIPdEvT_S1_;	.scl	2;	.type	32;	.endef
	.seh_proc	_ZSt8_DestroyIPdEvT_S1_
_ZSt8_DestroyIPdEvT_S1_:
.LFB5540:
	.file 14 "D:/msys64/ucrt64/include/c++/15.2.0/bits/stl_construct.h"
	.loc 14 202 5
	.cfi_startproc
	pushq	%rbp	 #
	.seh_pushreg	%rbp
	.cfi_def_cfa_offset 16
	.cfi_offset 6, -16
	movq	%rsp, %rbp	 #,
	.seh_setframe	%rbp, 0
	.cfi_def_cfa_register 6
	subq	$48, %rsp	 #,
	.seh_stackalloc	48
	.seh_endprologue
	movq	%rcx, 16(%rbp)	 # __first, __first
	movq	%rdx, 24(%rbp)	 # __last, __last
.LBB279:
.LBB280:
 # D:/msys64/ucrt64/include/c++/15.2.0/x86_64-w64-mingw32/bits/c++config.h:589:     return __builtin_is_constant_evaluated();
	.loc 11 589 44
	movl	$0, %eax	 #, D.97391
.LBE280:
.LBE279:
 # D:/msys64/ucrt64/include/c++/15.2.0/bits/stl_construct.h:214:       else if (std::__is_constant_evaluated())
	.loc 14 214 12 discriminator 1
	testb	%al, %al	 # D.97391
	je	.L111	 #,
 # D:/msys64/ucrt64/include/c++/15.2.0/bits/stl_construct.h:215: 	for (; __first != __last; ++__first)
	.loc 14 215 2
	jmp	.L108	 #
.L110:
	movq	16(%rbp), %rax	 # __first, tmp100
	movq	%rax, -8(%rbp)	 # tmp100, __r
.LBB281:
.LBB282:
 # D:/msys64/ucrt64/include/c++/15.2.0/bits/move.h:53:     { return __builtin_addressof(__r); }
	.loc 10 53 37
	movq	-8(%rbp), %rax	 # __r, D.97395
.LBE282:
.LBE281:
 # D:/msys64/ucrt64/include/c++/15.2.0/bits/stl_construct.h:216: 	  std::destroy_at(std::__addressof(*__first));
	.loc 14 216 19 discriminator 1
	movq	%rax, %rcx	 # D.97395,
	call	_ZSt10destroy_atIdEvPT_	 #
 # D:/msys64/ucrt64/include/c++/15.2.0/bits/stl_construct.h:215: 	for (; __first != __last; ++__first)
	.loc 14 215 2 discriminator 2
	addq	$8, 16(%rbp)	 #, __first
.L108:
 # D:/msys64/ucrt64/include/c++/15.2.0/bits/stl_construct.h:215: 	for (; __first != __last; ++__first)
	.loc 14 215 17 discriminator 1
	movq	16(%rbp), %rax	 # __first, tmp101
	cmpq	24(%rbp), %rax	 # __last, tmp101
	jne	.L110	 #,
.L111:
 # D:/msys64/ucrt64/include/c++/15.2.0/bits/stl_construct.h:222:     }
	.loc 14 222 5
	nop	
	addq	$48, %rsp	 #,
	popq	%rbp	 #
	.cfi_restore 6
	.cfi_def_cfa 7, 8
	ret	
	.cfi_endproc
.LFE5540:
	.seh_endproc
	.section	.text$_ZNKSt12_Vector_baseIdSaIdEE19_M_get_Tp_allocatorEv,"x"
	.linkonce discard
	.align 2
	.globl	_ZNKSt12_Vector_baseIdSaIdEE19_M_get_Tp_allocatorEv
	.def	_ZNKSt12_Vector_baseIdSaIdEE19_M_get_Tp_allocatorEv;	.scl	2;	.type	32;	.endef
	.seh_proc	_ZNKSt12_Vector_baseIdSaIdEE19_M_get_Tp_allocatorEv
_ZNKSt12_Vector_baseIdSaIdEE19_M_get_Tp_allocatorEv:
.LFB5569:
	.loc 6 312 7
	.cfi_startproc
	pushq	%rbp	 #
	.seh_pushreg	%rbp
	.cfi_def_cfa_offset 16
	.cfi_offset 6, -16
	movq	%rsp, %rbp	 #,
	.seh_setframe	%rbp, 0
	.cfi_def_cfa_register 6
	.seh_endprologue
	movq	%rcx, 16(%rbp)	 # this, this
 # D:/msys64/ucrt64/include/c++/15.2.0/bits/stl_vector.h:313:       { return this->_M_impl; }
	.loc 6 313 22
	movq	16(%rbp), %rax	 # this, _2
 # D:/msys64/ucrt64/include/c++/15.2.0/bits/stl_vector.h:313:       { return this->_M_impl; }
	.loc 6 313 31
	popq	%rbp	 #
	.cfi_restore 6
	.cfi_def_cfa 7, 8
	ret	
	.cfi_endproc
.LFE5569:
	.seh_endproc
	.section	.text$_ZSt12__relocate_aIPdS0_SaIdEET0_T_S3_S2_RT1_,"x"
	.linkonce discard
	.globl	_ZSt12__relocate_aIPdS0_SaIdEET0_T_S3_S2_RT1_
	.def	_ZSt12__relocate_aIPdS0_SaIdEET0_T_S3_S2_RT1_;	.scl	2;	.type	32;	.endef
	.seh_proc	_ZSt12__relocate_aIPdS0_SaIdEET0_T_S3_S2_RT1_
_ZSt12__relocate_aIPdS0_SaIdEET0_T_S3_S2_RT1_:
.LFB5571:
	.loc 13 1353 5
	.cfi_startproc
	pushq	%rbp	 #
	.seh_pushreg	%rbp
	.cfi_def_cfa_offset 16
	.cfi_offset 6, -16
	movq	%rsp, %rbp	 #,
	.seh_setframe	%rbp, 0
	.cfi_def_cfa_register 6
	subq	$64, %rsp	 #,
	.seh_stackalloc	64
	.seh_endprologue
	movq	%rcx, 16(%rbp)	 # __first, __first
	movq	%rdx, 24(%rbp)	 # __last, __last
	movq	%r8, 32(%rbp)	 # __result, __result
	movq	%r9, 40(%rbp)	 # __alloc, __alloc
	movq	32(%rbp), %rax	 # __result, tmp103
	movq	%rax, -24(%rbp)	 # tmp103, __it
.LBB283:
.LBB284:
 # D:/msys64/ucrt64/include/c++/15.2.0/bits/stl_iterator.h:3011:     { return __it; }
	.file 15 "D:/msys64/ucrt64/include/c++/15.2.0/bits/stl_iterator.h"
	.loc 15 3011 14
	movq	-24(%rbp), %rcx	 # __it, D.97593
	movq	24(%rbp), %rax	 # __last, tmp104
	movq	%rax, -16(%rbp)	 # tmp104, __it
.LBE284:
.LBE283:
.LBB285:
.LBB286:
	movq	-16(%rbp), %rdx	 # __it, D.97589
	movq	16(%rbp), %rax	 # __first, tmp105
	movq	%rax, -8(%rbp)	 # tmp105, __it
.LBE286:
.LBE285:
.LBB287:
.LBB288:
	movq	-8(%rbp), %rax	 # __it, D.97585
.LBE288:
.LBE287:
 # D:/msys64/ucrt64/include/c++/15.2.0/bits/stl_uninitialized.h:1359:       return std::__relocate_a_1(std::__niter_base(__first),
	.loc 13 1359 33 discriminator 3
	movq	40(%rbp), %r8	 # __alloc, tmp106
	movq	%r8, %r9	 # tmp106,
	movq	%rcx, %r8	 # D.97593,
	movq	%rax, %rcx	 # D.97585,
	call	_ZSt14__relocate_a_1IddENSt9enable_ifIXsrSt24__is_bitwise_relocatableIT_vE5valueEPS2_E4typeES4_S4_S4_RSaIT0_E	 #
 # D:/msys64/ucrt64/include/c++/15.2.0/bits/stl_uninitialized.h:1362:     }
	.loc 13 1362 5
	addq	$64, %rsp	 #,
	popq	%rbp	 #
	.cfi_restore 6
	.cfi_def_cfa 7, 8
	ret	
	.cfi_endproc
.LFE5571:
	.seh_endproc
	.section	.text$_ZSt3maxIyERKT_S2_S2_,"x"
	.linkonce discard
	.globl	_ZSt3maxIyERKT_S2_S2_
	.def	_ZSt3maxIyERKT_S2_S2_;	.scl	2;	.type	32;	.endef
	.seh_proc	_ZSt3maxIyERKT_S2_S2_
_ZSt3maxIyERKT_S2_S2_:
.LFB5576:
	.loc 12 258 5
	.cfi_startproc
	pushq	%rbp	 #
	.seh_pushreg	%rbp
	.cfi_def_cfa_offset 16
	.cfi_offset 6, -16
	movq	%rsp, %rbp	 #,
	.seh_setframe	%rbp, 0
	.cfi_def_cfa_register 6
	.seh_endprologue
	movq	%rcx, 16(%rbp)	 # __a, __a
	movq	%rdx, 24(%rbp)	 # __b, __b
 # D:/msys64/ucrt64/include/c++/15.2.0/bits/stl_algobase.h:263:       if (__a < __b)
	.loc 12 263 15
	movq	16(%rbp), %rax	 # __a, tmp102
	movq	(%rax), %rdx	 # *__a_5(D), _1
	movq	24(%rbp), %rax	 # __b, tmp103
	movq	(%rax), %rax	 # *__b_6(D), _2
 # D:/msys64/ucrt64/include/c++/15.2.0/bits/stl_algobase.h:263:       if (__a < __b)
	.loc 12 263 7
	cmpq	%rax, %rdx	 # _2, _1
	jnb	.L120	 #,
 # D:/msys64/ucrt64/include/c++/15.2.0/bits/stl_algobase.h:264: 	return __b;
	.loc 12 264 9
	movq	24(%rbp), %rax	 # __b, _3
	jmp	.L121	 #
.L120:
 # D:/msys64/ucrt64/include/c++/15.2.0/bits/stl_algobase.h:265:       return __a;
	.loc 12 265 14
	movq	16(%rbp), %rax	 # __a, _3
.L121:
 # D:/msys64/ucrt64/include/c++/15.2.0/bits/stl_algobase.h:266:     }
	.loc 12 266 5
	popq	%rbp	 #
	.cfi_restore 6
	.cfi_def_cfa 7, 8
	ret	
	.cfi_endproc
.LFE5576:
	.seh_endproc
	.section	.text$_ZNKSt6vectorIdSaIdEE12_M_check_lenEyPKc,"x"
	.linkonce discard
	.align 2
	.globl	_ZNKSt6vectorIdSaIdEE12_M_check_lenEyPKc
	.def	_ZNKSt6vectorIdSaIdEE12_M_check_lenEyPKc;	.scl	2;	.type	32;	.endef
	.seh_proc	_ZNKSt6vectorIdSaIdEE12_M_check_lenEyPKc
_ZNKSt6vectorIdSaIdEE12_M_check_lenEyPKc:
.LFB5575:
	.loc 6 2197 7
	.cfi_startproc
	pushq	%rbp	 #
	.seh_pushreg	%rbp
	.cfi_def_cfa_offset 16
	.cfi_offset 6, -16
	pushq	%rbx	 #
	.seh_pushreg	%rbx
	.cfi_def_cfa_offset 24
	.cfi_offset 3, -24
	subq	$56, %rsp	 #,
	.seh_stackalloc	56
	.cfi_def_cfa_offset 80
	leaq	48(%rsp), %rbp	 #,
	.seh_setframe	%rbp, 48
	.cfi_def_cfa 6, 32
	.seh_endprologue
	movq	%rcx, 32(%rbp)	 # this, this
	movq	%rdx, 40(%rbp)	 # __n, __n
	movq	%r8, 48(%rbp)	 # __s, __s
 # D:/msys64/ucrt64/include/c++/15.2.0/bits/stl_vector.h:2199: 	if (max_size() - size() < __n)
	.loc 6 2199 14
	movq	32(%rbp), %rax	 # this, tmp111
	movq	%rax, %rcx	 # tmp111,
	call	_ZNKSt6vectorIdSaIdEE8max_sizeEv	 #
	movq	%rax, %rbx	 #, _1
 # D:/msys64/ucrt64/include/c++/15.2.0/bits/stl_vector.h:2199: 	if (max_size() - size() < __n)
	.loc 6 2199 23 discriminator 1
	movq	32(%rbp), %rax	 # this, tmp112
	movq	%rax, %rcx	 # tmp112,
	call	_ZNKSt6vectorIdSaIdEE4sizeEv	 #
 # D:/msys64/ucrt64/include/c++/15.2.0/bits/stl_vector.h:2199: 	if (max_size() - size() < __n)
	.loc 6 2199 17 discriminator 2
	subq	%rax, %rbx	 # _2, _1
	movq	%rbx, %rdx	 # _1, _3
 # D:/msys64/ucrt64/include/c++/15.2.0/bits/stl_vector.h:2199: 	if (max_size() - size() < __n)
	.loc 6 2199 26 discriminator 2
	movq	40(%rbp), %rax	 # __n, __n.15_4
	cmpq	%rax, %rdx	 # __n.15_4, _3
	setb	%al	 #, retval.14_18
 # D:/msys64/ucrt64/include/c++/15.2.0/bits/stl_vector.h:2199: 	if (max_size() - size() < __n)
	.loc 6 2199 2 discriminator 2
	testb	%al, %al	 # retval.14_18
	je	.L123	 #,
 # D:/msys64/ucrt64/include/c++/15.2.0/bits/stl_vector.h:2200: 	  __throw_length_error(__N(__s));
	.loc 6 2200 24
	movq	48(%rbp), %rax	 # __s, tmp113
	movq	%rax, %rcx	 # tmp113,
	call	_ZSt20__throw_length_errorPKc	 #
.L123:
 # D:/msys64/ucrt64/include/c++/15.2.0/bits/stl_vector.h:2202: 	const size_type __len = size() + (std::max)(size(), __n);
	.loc 6 2202 30
	movq	32(%rbp), %rax	 # this, tmp114
	movq	%rax, %rcx	 # tmp114,
	call	_ZNKSt6vectorIdSaIdEE4sizeEv	 #
	movq	%rax, %rbx	 #, _5
 # D:/msys64/ucrt64/include/c++/15.2.0/bits/stl_vector.h:2202: 	const size_type __len = size() + (std::max)(size(), __n);
	.loc 6 2202 50 discriminator 1
	movq	32(%rbp), %rax	 # this, tmp115
	movq	%rax, %rcx	 # tmp115,
	call	_ZNKSt6vectorIdSaIdEE4sizeEv	 #
 # D:/msys64/ucrt64/include/c++/15.2.0/bits/stl_vector.h:2202: 	const size_type __len = size() + (std::max)(size(), __n);
	.loc 6 2202 50 is_stmt 0 discriminator 2
	movq	%rax, -16(%rbp)	 # _6, D.95013
 # D:/msys64/ucrt64/include/c++/15.2.0/bits/stl_vector.h:2202: 	const size_type __len = size() + (std::max)(size(), __n);
	.loc 6 2202 45 is_stmt 1 discriminator 2
	leaq	40(%rbp), %rdx	 #, tmp116
	leaq	-16(%rbp), %rax	 #, tmp117
	movq	%rax, %rcx	 # tmp117,
	call	_ZSt3maxIyERKT_S2_S2_	 #
 # D:/msys64/ucrt64/include/c++/15.2.0/bits/stl_vector.h:2202: 	const size_type __len = size() + (std::max)(size(), __n);
	.loc 6 2202 33 discriminator 3
	movq	(%rax), %rax	 # *_7, _8
 # D:/msys64/ucrt64/include/c++/15.2.0/bits/stl_vector.h:2202: 	const size_type __len = size() + (std::max)(size(), __n);
	.loc 6 2202 18 discriminator 3
	addq	%rbx, %rax	 # _5, tmp118
	movq	%rax, -8(%rbp)	 # tmp118, __len
 # D:/msys64/ucrt64/include/c++/15.2.0/bits/stl_vector.h:2203: 	return (__len < size() || __len > max_size()) ? max_size() : __len;
	.loc 6 2203 22
	movq	32(%rbp), %rax	 # this, tmp119
	movq	%rax, %rcx	 # tmp119,
	call	_ZNKSt6vectorIdSaIdEE4sizeEv	 #
 # D:/msys64/ucrt64/include/c++/15.2.0/bits/stl_vector.h:2203: 	return (__len < size() || __len > max_size()) ? max_size() : __len;
	.loc 6 2203 48 discriminator 1
	cmpq	%rax, -8(%rbp)	 # _9, __len
	jb	.L124	 #,
 # D:/msys64/ucrt64/include/c++/15.2.0/bits/stl_vector.h:2203: 	return (__len < size() || __len > max_size()) ? max_size() : __len;
	.loc 6 2203 44 discriminator 3
	movq	32(%rbp), %rax	 # this, tmp120
	movq	%rax, %rcx	 # tmp120,
	call	_ZNKSt6vectorIdSaIdEE8max_sizeEv	 #
 # D:/msys64/ucrt64/include/c++/15.2.0/bits/stl_vector.h:2203: 	return (__len < size() || __len > max_size()) ? max_size() : __len;
	.loc 6 2203 25 discriminator 4
	cmpq	-8(%rbp), %rax	 # __len, _10
	jnb	.L125	 #,
.L124:
 # D:/msys64/ucrt64/include/c++/15.2.0/bits/stl_vector.h:2203: 	return (__len < size() || __len > max_size()) ? max_size() : __len;
	.loc 6 2203 58 discriminator 5
	movq	32(%rbp), %rax	 # this, tmp121
	movq	%rax, %rcx	 # tmp121,
	call	_ZNKSt6vectorIdSaIdEE8max_sizeEv	 #
 # D:/msys64/ucrt64/include/c++/15.2.0/bits/stl_vector.h:2203: 	return (__len < size() || __len > max_size()) ? max_size() : __len;
	.loc 6 2203 63
	jmp	.L127	 #
.L125:
 # D:/msys64/ucrt64/include/c++/15.2.0/bits/stl_vector.h:2203: 	return (__len < size() || __len > max_size()) ? max_size() : __len;
	.loc 6 2203 63 is_stmt 0 discriminator 6
	movq	-8(%rbp), %rax	 # __len, _11
.L127:
 # D:/msys64/ucrt64/include/c++/15.2.0/bits/stl_vector.h:2204:       }
	.loc 6 2204 7 is_stmt 1
	addq	$56, %rsp	 #,
	popq	%rbx	 #
	.cfi_restore 3
	popq	%rbp	 #
	.cfi_restore 6
	.cfi_def_cfa 7, -40
	ret	
	.cfi_endproc
.LFE5575:
	.seh_endproc
	.section	.text$_ZNSt6vectorIdSaIdEE3endEv,"x"
	.linkonce discard
	.align 2
	.globl	_ZNSt6vectorIdSaIdEE3endEv
	.def	_ZNSt6vectorIdSaIdEE3endEv;	.scl	2;	.type	32;	.endef
	.seh_proc	_ZNSt6vectorIdSaIdEE3endEv
_ZNSt6vectorIdSaIdEE3endEv:
.LFB5578:
	.loc 6 1018 7
	.cfi_startproc
	pushq	%rbp	 #
	.seh_pushreg	%rbp
	.cfi_def_cfa_offset 16
	.cfi_offset 6, -16
	movq	%rsp, %rbp	 #,
	.seh_setframe	%rbp, 0
	.cfi_def_cfa_register 6
	subq	$16, %rsp	 #,
	.seh_stackalloc	16
	.seh_endprologue
	movq	%rcx, 16(%rbp)	 # this, this
 # D:/msys64/ucrt64/include/c++/15.2.0/bits/stl_vector.h:1019:       { return iterator(this->_M_impl._M_finish); }
	.loc 6 1019 39
	movq	16(%rbp), %rax	 # this, tmp102
	addq	$8, %rax	 #, _1
	movq	%rax, -8(%rbp)	 # _1, __i
.LBB289:
.LBB290:
.LBB291:
 # D:/msys64/ucrt64/include/c++/15.2.0/bits/stl_iterator.h:1059:       : _M_current(__i) { }
	.loc 15 1059 9
	movq	-8(%rbp), %rax	 # __i, tmp103
	movq	(%rax), %rax	 # *__i_6, _7
	movq	%rax, -16(%rbp)	 # _7, D.95070._M_current
.LBE291:
 # D:/msys64/ucrt64/include/c++/15.2.0/bits/stl_iterator.h:1059:       : _M_current(__i) { }
	.loc 15 1059 27
	nop	
.LBE290:
.LBE289:
 # D:/msys64/ucrt64/include/c++/15.2.0/bits/stl_vector.h:1019:       { return iterator(this->_M_impl._M_finish); }
	.loc 6 1019 48 discriminator 1
	movq	-16(%rbp), %rax	 # D.95070, D.97065
 # D:/msys64/ucrt64/include/c++/15.2.0/bits/stl_vector.h:1019:       { return iterator(this->_M_impl._M_finish); }
	.loc 6 1019 51
	addq	$16, %rsp	 #,
	popq	%rbp	 #
	.cfi_restore 6
	.cfi_def_cfa 7, 8
	ret	
	.cfi_endproc
.LFE5578:
	.seh_endproc
	.section	.text$_ZNSt6vectorIdSaIdEE5beginEv,"x"
	.linkonce discard
	.align 2
	.globl	_ZNSt6vectorIdSaIdEE5beginEv
	.def	_ZNSt6vectorIdSaIdEE5beginEv;	.scl	2;	.type	32;	.endef
	.seh_proc	_ZNSt6vectorIdSaIdEE5beginEv
_ZNSt6vectorIdSaIdEE5beginEv:
.LFB5579:
	.loc 6 998 7
	.cfi_startproc
	pushq	%rbp	 #
	.seh_pushreg	%rbp
	.cfi_def_cfa_offset 16
	.cfi_offset 6, -16
	movq	%rsp, %rbp	 #,
	.seh_setframe	%rbp, 0
	.cfi_def_cfa_register 6
	subq	$16, %rsp	 #,
	.seh_stackalloc	16
	.seh_endprologue
	movq	%rcx, 16(%rbp)	 # this, this
 # D:/msys64/ucrt64/include/c++/15.2.0/bits/stl_vector.h:999:       { return iterator(this->_M_impl._M_start); }
	.loc 6 999 39
	movq	16(%rbp), %rax	 # this, _1
	movq	%rax, -8(%rbp)	 # _1, __i
.LBB292:
.LBB293:
.LBB294:
 # D:/msys64/ucrt64/include/c++/15.2.0/bits/stl_iterator.h:1059:       : _M_current(__i) { }
	.loc 15 1059 9
	movq	-8(%rbp), %rax	 # __i, tmp102
	movq	(%rax), %rax	 # *__i_6, _7
	movq	%rax, -16(%rbp)	 # _7, D.95075._M_current
.LBE294:
 # D:/msys64/ucrt64/include/c++/15.2.0/bits/stl_iterator.h:1059:       : _M_current(__i) { }
	.loc 15 1059 27
	nop	
.LBE293:
.LBE292:
 # D:/msys64/ucrt64/include/c++/15.2.0/bits/stl_vector.h:999:       { return iterator(this->_M_impl._M_start); }
	.loc 6 999 47 discriminator 1
	movq	-16(%rbp), %rax	 # D.95075, D.97062
 # D:/msys64/ucrt64/include/c++/15.2.0/bits/stl_vector.h:999:       { return iterator(this->_M_impl._M_start); }
	.loc 6 999 50
	addq	$16, %rsp	 #,
	popq	%rbp	 #
	.cfi_restore 6
	.cfi_def_cfa 7, 8
	ret	
	.cfi_endproc
.LFE5579:
	.seh_endproc
	.section .rdata,"dr"
.LC7:
	.ascii "vector::_M_realloc_append\0"
	.section	.text$_ZNSt6vectorIdSaIdEE17_M_realloc_appendIJdEEEvDpOT_,"x"
	.linkonce discard
	.align 2
	.globl	_ZNSt6vectorIdSaIdEE17_M_realloc_appendIJdEEEvDpOT_
	.def	_ZNSt6vectorIdSaIdEE17_M_realloc_appendIJdEEEvDpOT_;	.scl	2;	.type	32;	.endef
	.seh_proc	_ZNSt6vectorIdSaIdEE17_M_realloc_appendIJdEEEvDpOT_
_ZNSt6vectorIdSaIdEE17_M_realloc_appendIJdEEEvDpOT_:
.LFB5574:
	.loc 9 557 7
	.cfi_startproc
	pushq	%rbp	 #
	.seh_pushreg	%rbp
	.cfi_def_cfa_offset 16
	.cfi_offset 6, -16
	movq	%rsp, %rbp	 #,
	.seh_setframe	%rbp, 0
	.cfi_def_cfa_register 6
	subq	$192, %rsp	 #,
	.seh_stackalloc	192
	.seh_endprologue
	movq	%rcx, 16(%rbp)	 # this, this
	movq	%rdx, 24(%rbp)	 # __args#0, __args#0
 # D:/msys64/ucrt64/include/c++/15.2.0/bits/vector.tcc:566:       const size_type __len = _M_check_len(1u, "vector::_M_realloc_append");
	.loc 9 566 43
	leaq	.LC7(%rip), %rdx	 #, tmp123
	movq	16(%rbp), %rax	 # this, tmp124
	movq	%rdx, %r8	 # tmp123,
	movl	$1, %edx	 #,
	movq	%rax, %rcx	 # tmp124,
	call	_ZNKSt6vectorIdSaIdEE12_M_check_lenEyPKc	 #
 # D:/msys64/ucrt64/include/c++/15.2.0/bits/vector.tcc:566:       const size_type __len = _M_check_len(1u, "vector::_M_realloc_append");
	.loc 9 566 43 is_stmt 0 discriminator 1
	movq	%rax, -8(%rbp)	 # _20, __len
 # D:/msys64/ucrt64/include/c++/15.2.0/bits/vector.tcc:567:       if (__len <= 0)
	.loc 9 567 7 is_stmt 1
	cmpq	$0, -8(%rbp)	 #, __len
 # D:/msys64/ucrt64/include/c++/15.2.0/bits/vector.tcc:569:       pointer __old_start = this->_M_impl._M_start;
	.loc 9 569 15
	movq	16(%rbp), %rax	 # this, tmp125
	movq	(%rax), %rax	 # this_18(D)->D.68084._M_impl.D.67390._M_start, tmp126
	movq	%rax, -16(%rbp)	 # tmp126, __old_start
 # D:/msys64/ucrt64/include/c++/15.2.0/bits/vector.tcc:570:       pointer __old_finish = this->_M_impl._M_finish;
	.loc 9 570 15
	movq	16(%rbp), %rax	 # this, tmp127
	movq	8(%rax), %rax	 # this_18(D)->D.68084._M_impl.D.67390._M_finish, tmp128
	movq	%rax, -24(%rbp)	 # tmp128, __old_finish
 # D:/msys64/ucrt64/include/c++/15.2.0/bits/vector.tcc:571:       const size_type __elems = end() - begin();
	.loc 9 571 46
	movq	16(%rbp), %rax	 # this, tmp129
	movq	%rax, %rcx	 # tmp129,
	call	_ZNSt6vectorIdSaIdEE5beginEv	 #
	movq	%rax, -136(%rbp)	 # tmp131, D.95036
 # D:/msys64/ucrt64/include/c++/15.2.0/bits/vector.tcc:571:       const size_type __elems = end() - begin();
	.loc 9 571 36 discriminator 1
	movq	16(%rbp), %rax	 # this, tmp132
	movq	%rax, %rcx	 # tmp132,
	call	_ZNSt6vectorIdSaIdEE3endEv	 #
	movq	%rax, -128(%rbp)	 # tmp134, D.95029
	leaq	-128(%rbp), %rax	 #, tmp135
	movq	%rax, -104(%rbp)	 # tmp135, this
.LBB295:
.LBB296:
.LBB297:
.LBB298:
 # D:/msys64/ucrt64/include/c++/15.2.0/bits/stl_iterator.h:1166:       { return _M_current; }
	.loc 15 1166 16
	movq	-104(%rbp), %rax	 # this, _63
.LBE298:
.LBE297:
 # D:/msys64/ucrt64/include/c++/15.2.0/bits/stl_iterator.h:1340:     { return __lhs.base() - __rhs.base(); }
	.loc 15 1340 27 discriminator 1
	movq	(%rax), %rdx	 # *_65, _66
	leaq	-136(%rbp), %rax	 #, tmp136
	movq	%rax, -112(%rbp)	 # tmp136, this
.LBB299:
.LBB300:
 # D:/msys64/ucrt64/include/c++/15.2.0/bits/stl_iterator.h:1166:       { return _M_current; }
	.loc 15 1166 16
	movq	-112(%rbp), %rax	 # this, _68
.LBE300:
.LBE299:
 # D:/msys64/ucrt64/include/c++/15.2.0/bits/stl_iterator.h:1340:     { return __lhs.base() - __rhs.base(); }
	.loc 15 1340 27 discriminator 2
	movq	(%rax), %rax	 # *_70, _71
	subq	%rax, %rdx	 # _71, _72
 # D:/msys64/ucrt64/include/c++/15.2.0/bits/stl_iterator.h:1340:     { return __lhs.base() - __rhs.base(); }
	.loc 15 1340 40 discriminator 2
	movq	%rdx, %rax	 # _72, _72
	sarq	$3, %rax	 #, _72
.LBE296:
.LBE295:
 # D:/msys64/ucrt64/include/c++/15.2.0/bits/vector.tcc:571:       const size_type __elems = end() - begin();
	.loc 9 571 23 discriminator 3
	movq	%rax, -32(%rbp)	 # D.97621, __elems
 # D:/msys64/ucrt64/include/c++/15.2.0/bits/vector.tcc:572:       pointer __new_start(this->_M_allocate(__len));
	.loc 9 572 44
	movq	16(%rbp), %rax	 # this, _2
	movq	-8(%rbp), %rdx	 # __len, tmp138
	movq	%rax, %rcx	 # _2,
	call	_ZNSt12_Vector_baseIdSaIdEE11_M_allocateEy	 #
 # D:/msys64/ucrt64/include/c++/15.2.0/bits/vector.tcc:572:       pointer __new_start(this->_M_allocate(__len));
	.loc 9 572 44 is_stmt 0 discriminator 1
	movq	%rax, -40(%rbp)	 # _30, __new_start
 # D:/msys64/ucrt64/include/c++/15.2.0/bits/vector.tcc:573:       pointer __new_finish(__new_start);
	.loc 9 573 15 is_stmt 1
	movq	-40(%rbp), %rax	 # __new_start, tmp139
	movq	%rax, -48(%rbp)	 # tmp139, __new_finish
.LBB301:
 # D:/msys64/ucrt64/include/c++/15.2.0/bits/vector.tcc:576: 	_Guard_alloc __guard(__new_start, __len, *this);
	.loc 9 576 15
	movq	16(%rbp), %r8	 # this, _3
	movq	-8(%rbp), %rcx	 # __len, tmp140
	movq	-40(%rbp), %rdx	 # __new_start, tmp141
	leaq	-160(%rbp), %rax	 #, tmp142
	movq	%r8, %r9	 # _3,
	movq	%rcx, %r8	 # tmp140,
	movq	%rax, %rcx	 # tmp142,
	call	_ZNSt6vectorIdSaIdEE12_Guard_allocC1EPdyRSt12_Vector_baseIdS0_E	 #
	movq	24(%rbp), %rax	 # __args#0, tmp143
	movq	%rax, -96(%rbp)	 # tmp143, __t
.LBB302:
.LBB303:
 # D:/msys64/ucrt64/include/c++/15.2.0/bits/move.h:73:     { return static_cast<_Tp&&>(__t); }
	.loc 10 73 36
	movq	-96(%rbp), %rdx	 # __t, D.97612
.LBE303:
.LBE302:
 # D:/msys64/ucrt64/include/c++/15.2.0/bits/vector.tcc:587: 				 std::__to_address(__new_start + __elems),
	.loc 9 587 36
	movq	-32(%rbp), %rax	 # __elems, tmp144
	leaq	0(,%rax,8), %rcx	 #, _5
	movq	-40(%rbp), %rax	 # __new_start, tmp145
	addq	%rcx, %rax	 # _5, _6
	movq	%rax, -120(%rbp)	 # _6, D.95132
.LBB304:
.LBB305:
 # D:/msys64/ucrt64/include/c++/15.2.0/bits/ptr_traits.h:264:     { return std::to_address(__ptr); }
	.file 16 "D:/msys64/ucrt64/include/c++/15.2.0/bits/ptr_traits.h"
	.loc 16 264 29
	movq	-120(%rbp), %rax	 # D.95132, _55
	movq	%rax, -88(%rbp)	 # _55, __ptr
.LBB306:
.LBB307:
 # D:/msys64/ucrt64/include/c++/15.2.0/bits/ptr_traits.h:236:       return __ptr;
	.loc 16 236 14
	movq	-88(%rbp), %rcx	 # __ptr, D.97606
.LBE307:
.LBE306:
 # D:/msys64/ucrt64/include/c++/15.2.0/bits/ptr_traits.h:264:     { return std::to_address(__ptr); }
	.loc 16 264 35
	nop	
.LBE305:
.LBE304:
 # D:/msys64/ucrt64/include/c++/15.2.0/bits/vector.tcc:586: 	_Alloc_traits::construct(this->_M_impl,
	.loc 9 586 33 discriminator 2
	movq	16(%rbp), %rax	 # this, _8
	movq	%rcx, -56(%rbp)	 # D.97606, __p
	movq	%rdx, -64(%rbp)	 # D.97612, __args#0
	movq	%rax, -72(%rbp)	 # _8, __a
	movq	-64(%rbp), %rax	 # __args#0, tmp146
	movq	%rax, -80(%rbp)	 # tmp146, __t
.LBB308:
.LBB309:
.LBB310:
.LBB311:
 # D:/msys64/ucrt64/include/c++/15.2.0/bits/move.h:73:     { return static_cast<_Tp&&>(__t); }
	.loc 10 73 36
	movq	-80(%rbp), %rdx	 # __t, _52
.LBE311:
.LBE310:
 # D:/msys64/ucrt64/include/c++/15.2.0/bits/alloc_traits.h:676: 	  std::construct_at(__p, std::forward<_Args>(__args)...);
	.loc 8 676 21 discriminator 1
	movq	-56(%rbp), %rax	 # __p, tmp147
	movq	%rax, %rcx	 # tmp147,
	call	_ZSt12construct_atIdJdEQaant20is_unbounded_array_vIT_ErqXgsnwcvPvLi0E_S0_pispcl7declvalIT0_EEEEEPS0_S3_DpOS2_	 #
 # D:/msys64/ucrt64/include/c++/15.2.0/bits/alloc_traits.h:680: 	}
	.loc 8 680 2
	nop	
.LBE309:
.LBE308:
 # D:/msys64/ucrt64/include/c++/15.2.0/bits/vector.tcc:600: 				       __new_start, _M_get_Tp_allocator());
	.loc 9 600 44
	movq	16(%rbp), %rax	 # this, _9
	movq	%rax, %rcx	 # _9,
	call	_ZNSt12_Vector_baseIdSaIdEE19_M_get_Tp_allocatorEv	 #
	movq	%rax, %rcx	 #, _10
 # D:/msys64/ucrt64/include/c++/15.2.0/bits/vector.tcc:599: 	    __new_finish = _S_relocate(__old_start, __old_finish,
	.loc 9 599 32
	movq	-40(%rbp), %r8	 # __new_start, tmp148
	movq	-24(%rbp), %rdx	 # __old_finish, tmp149
	movq	-16(%rbp), %rax	 # __old_start, tmp150
	movq	%rcx, %r9	 # _10,
	movq	%rax, %rcx	 # tmp150,
	call	_ZNSt6vectorIdSaIdEE11_S_relocateEPdS2_S2_RS0_	 #
	movq	%rax, -48(%rbp)	 # tmp151, __new_finish
 # D:/msys64/ucrt64/include/c++/15.2.0/bits/vector.tcc:601: 	    ++__new_finish;
	.loc 9 601 6
	addq	$8, -48(%rbp)	 #, __new_finish
 # D:/msys64/ucrt64/include/c++/15.2.0/bits/vector.tcc:638: 	__guard._M_storage = __old_start;
	.loc 9 638 21
	movq	-16(%rbp), %rax	 # __old_start, tmp152
	movq	%rax, -160(%rbp)	 # tmp152, __guard._M_storage
 # D:/msys64/ucrt64/include/c++/15.2.0/bits/vector.tcc:639: 	__guard._M_len = this->_M_impl._M_end_of_storage - __old_start;
	.loc 9 639 33
	movq	16(%rbp), %rax	 # this, tmp153
	movq	16(%rax), %rax	 # this_18(D)->D.68084._M_impl.D.67390._M_end_of_storage, _11
 # D:/msys64/ucrt64/include/c++/15.2.0/bits/vector.tcc:639: 	__guard._M_len = this->_M_impl._M_end_of_storage - __old_start;
	.loc 9 639 51
	subq	-16(%rbp), %rax	 # __old_start, _12
	sarq	$3, %rax	 #, _13
 # D:/msys64/ucrt64/include/c++/15.2.0/bits/vector.tcc:639: 	__guard._M_len = this->_M_impl._M_end_of_storage - __old_start;
	.loc 9 639 17
	movq	%rax, -152(%rbp)	 # _14, __guard._M_len
 # D:/msys64/ucrt64/include/c++/15.2.0/bits/vector.tcc:640:       }
	.loc 9 640 7
	leaq	-160(%rbp), %rax	 #, tmp155
	movq	%rax, %rcx	 # tmp155,
	call	_ZNSt6vectorIdSaIdEE12_Guard_allocD1Ev	 #
.LBE301:
 # D:/msys64/ucrt64/include/c++/15.2.0/bits/vector.tcc:644:       this->_M_impl._M_start = __new_start;
	.loc 9 644 30
	movq	16(%rbp), %rax	 # this, tmp156
	movq	-40(%rbp), %rdx	 # __new_start, tmp157
	movq	%rdx, (%rax)	 # tmp157, this_18(D)->D.68084._M_impl.D.67390._M_start
 # D:/msys64/ucrt64/include/c++/15.2.0/bits/vector.tcc:645:       this->_M_impl._M_finish = __new_finish;
	.loc 9 645 31
	movq	16(%rbp), %rax	 # this, tmp158
	movq	-48(%rbp), %rdx	 # __new_finish, tmp159
	movq	%rdx, 8(%rax)	 # tmp159, this_18(D)->D.68084._M_impl.D.67390._M_finish
 # D:/msys64/ucrt64/include/c++/15.2.0/bits/vector.tcc:646:       this->_M_impl._M_end_of_storage = __new_start + __len;
	.loc 9 646 53
	movq	-8(%rbp), %rax	 # __len, tmp160
	leaq	0(,%rax,8), %rdx	 #, _15
	movq	-40(%rbp), %rax	 # __new_start, tmp161
	addq	%rax, %rdx	 # tmp161, _16
 # D:/msys64/ucrt64/include/c++/15.2.0/bits/vector.tcc:646:       this->_M_impl._M_end_of_storage = __new_start + __len;
	.loc 9 646 39
	movq	16(%rbp), %rax	 # this, tmp162
	movq	%rdx, 16(%rax)	 # _16, this_18(D)->D.68084._M_impl.D.67390._M_end_of_storage
 # D:/msys64/ucrt64/include/c++/15.2.0/bits/vector.tcc:647:     }
	.loc 9 647 5
	nop	
	addq	$192, %rsp	 #,
	popq	%rbp	 #
	.cfi_restore 6
	.cfi_def_cfa 7, 8
	ret	
	.cfi_endproc
.LFE5574:
	.seh_endproc
	.section .rdata,"dr"
.LC8:
	.ascii "!this->empty()\0"
	.align 8
.LC9:
	.ascii "constexpr std::vector<_Tp, _Alloc>::reference std::vector<_Tp, _Alloc>::back() [with _Tp = double; _Alloc = std::allocator<double>; reference = double&]\0"
	.section	.text$_ZNSt6vectorIdSaIdEE4backEv,"x"
	.linkonce discard
	.align 2
	.globl	_ZNSt6vectorIdSaIdEE4backEv
	.def	_ZNSt6vectorIdSaIdEE4backEv;	.scl	2;	.type	32;	.endef
	.seh_proc	_ZNSt6vectorIdSaIdEE4backEv
_ZNSt6vectorIdSaIdEE4backEv:
.LFB5584:
	.loc 6 1368 7
	.cfi_startproc
	pushq	%rbp	 #
	.seh_pushreg	%rbp
	.cfi_def_cfa_offset 16
	.cfi_offset 6, -16
	movq	%rsp, %rbp	 #,
	.seh_setframe	%rbp, 0
	.cfi_def_cfa_register 6
	subq	$80, %rsp	 #,
	.seh_stackalloc	80
	.seh_endprologue
	movq	%rcx, 16(%rbp)	 # this, this
 # D:/msys64/ucrt64/include/c++/15.2.0/bits/stl_vector.h:1370: 	__glibcxx_requires_nonempty();
	.loc 6 1370 46
	movq	16(%rbp), %rax	 # this, tmp112
	movq	%rax, %rcx	 # tmp112,
	call	_ZNKSt6vectorIdSaIdEE5emptyEv	 #
 # D:/msys64/ucrt64/include/c++/15.2.0/bits/stl_vector.h:1370: 	__glibcxx_requires_nonempty();
	.loc 6 1370 27 discriminator 1
	movzbl	%al, %eax	 # _1, _2
 # D:/msys64/ucrt64/include/c++/15.2.0/bits/stl_vector.h:1370: 	__glibcxx_requires_nonempty();
	.loc 6 1370 27 is_stmt 0 discriminator 2
	testl	%eax, %eax	 # _3
	setne	%al	 #, retval.16_7
 # D:/msys64/ucrt64/include/c++/15.2.0/bits/stl_vector.h:1370: 	__glibcxx_requires_nonempty();
	.loc 6 1370 7 is_stmt 1 discriminator 2
	testb	%al, %al	 # retval.16_7
	je	.L142	 #,
 # D:/msys64/ucrt64/include/c++/15.2.0/bits/stl_vector.h:1370: 	__glibcxx_requires_nonempty();
	.loc 6 1370 85 discriminator 3
	leaq	.LC8(%rip), %rcx	 #, tmp113
	leaq	.LC9(%rip), %rdx	 #, tmp114
	leaq	.LC4(%rip), %rax	 #, tmp115
	movq	%rcx, %r9	 # tmp113,
	movq	%rdx, %r8	 # tmp114,
	movl	$1370, %edx	 #,
	movq	%rax, %rcx	 # tmp115,
	call	_ZSt21__glibcxx_assert_failPKciS0_S0_	 #
.L142:
 # D:/msys64/ucrt64/include/c++/15.2.0/bits/stl_vector.h:1371: 	return *(end() - 1);
	.loc 6 1371 14
	movq	16(%rbp), %rax	 # this, tmp116
	movq	%rax, %rcx	 # tmp116,
	call	_ZNSt6vectorIdSaIdEE3endEv	 #
	movq	%rax, -32(%rbp)	 # tmp118, D.95157
	movq	$1, -8(%rbp)	 #, __n
.LBB312:
.LBB313:
 # D:/msys64/ucrt64/include/c++/15.2.0/bits/stl_iterator.h:1160:       { return __normal_iterator(_M_current - __n); }
	.loc 15 1160 34
	movq	-32(%rbp), %rax	 # D.95157._M_current, _15
 # D:/msys64/ucrt64/include/c++/15.2.0/bits/stl_iterator.h:1160:       { return __normal_iterator(_M_current - __n); }
	.loc 15 1160 47
	movq	-8(%rbp), %rdx	 # __n, __n.17_16
 # D:/msys64/ucrt64/include/c++/15.2.0/bits/stl_iterator.h:1160:       { return __normal_iterator(_M_current - __n); }
	.loc 15 1160 45
	salq	$3, %rdx	 #, _17
	negq	%rdx	 # _18
	addq	%rdx, %rax	 # _18, _19
	movq	%rax, -24(%rbp)	 # _19, D.97541
.LBB314:
.LBB315:
.LBB316:
 # D:/msys64/ucrt64/include/c++/15.2.0/bits/stl_iterator.h:1059:       : _M_current(__i) { }
	.loc 15 1059 9
	movq	-24(%rbp), %rax	 # D.97541, _20
	movq	%rax, -16(%rbp)	 # _20, D.97542._M_current
.LBE316:
 # D:/msys64/ucrt64/include/c++/15.2.0/bits/stl_iterator.h:1059:       : _M_current(__i) { }
	.loc 15 1059 27
	nop	
.LBE315:
.LBE314:
 # D:/msys64/ucrt64/include/c++/15.2.0/bits/stl_iterator.h:1160:       { return __normal_iterator(_M_current - __n); }
	.loc 15 1160 50 discriminator 1
	movq	-16(%rbp), %rax	 # D.97542, D.97543
.LBE313:
.LBE312:
 # D:/msys64/ucrt64/include/c++/15.2.0/bits/stl_vector.h:1371: 	return *(end() - 1);
	.loc 6 1371 17 discriminator 1
	movq	%rax, -40(%rbp)	 # D.97540, D.95158
.LBB317:
.LBB318:
 # D:/msys64/ucrt64/include/c++/15.2.0/bits/stl_iterator.h:1090:       { return *_M_current; }
	.loc 15 1090 17
	movq	-40(%rbp), %rax	 # D.95158._M_current, D.97533
.LBE318:
.LBE317:
 # D:/msys64/ucrt64/include/c++/15.2.0/bits/stl_vector.h:1372:       }
	.loc 6 1372 7
	addq	$80, %rsp	 #,
	popq	%rbp	 #
	.cfi_restore 6
	.cfi_def_cfa 7, 8
	ret	
	.cfi_endproc
.LFE5584:
	.seh_endproc
	.section	.text$_ZNSt19_UninitDestroyGuardIPdvEC1ERS0_,"x"
	.linkonce discard
	.align 2
	.globl	_ZNSt19_UninitDestroyGuardIPdvEC1ERS0_
	.def	_ZNSt19_UninitDestroyGuardIPdvEC1ERS0_;	.scl	2;	.type	32;	.endef
	.seh_proc	_ZNSt19_UninitDestroyGuardIPdvEC1ERS0_
_ZNSt19_UninitDestroyGuardIPdvEC1ERS0_:
.LFB5661:
	.loc 13 113 7
	.cfi_startproc
	pushq	%rbp	 #
	.seh_pushreg	%rbp
	.cfi_def_cfa_offset 16
	.cfi_offset 6, -16
	movq	%rsp, %rbp	 #,
	.seh_setframe	%rbp, 0
	.cfi_def_cfa_register 6
	.seh_endprologue
	movq	%rcx, 16(%rbp)	 # this, this
	movq	%rdx, 24(%rbp)	 # __first, __first
.LBB319:
 # D:/msys64/ucrt64/include/c++/15.2.0/bits/stl_uninitialized.h:114:       : _M_first(__first), _M_cur(__builtin_addressof(__first))
	.loc 13 114 9
	movq	24(%rbp), %rax	 # __first, tmp99
	movq	(%rax), %rdx	 # *__first_5(D), _1
	movq	16(%rbp), %rax	 # this, tmp100
	movq	%rdx, (%rax)	 # _1, this_3(D)->_M_first
 # D:/msys64/ucrt64/include/c++/15.2.0/bits/stl_uninitialized.h:114:       : _M_first(__first), _M_cur(__builtin_addressof(__first))
	.loc 13 114 28
	movq	16(%rbp), %rax	 # this, tmp101
	movq	24(%rbp), %rdx	 # __first, tmp102
	movq	%rdx, 8(%rax)	 # tmp102, this_3(D)->_M_cur
.LBE319:
 # D:/msys64/ucrt64/include/c++/15.2.0/bits/stl_uninitialized.h:115:       { }
	.loc 13 115 9
	nop	
	popq	%rbp	 #
	.cfi_restore 6
	.cfi_def_cfa 7, 8
	ret	
	.cfi_endproc
.LFE5661:
	.seh_endproc
	.section	.text$_ZSt18__do_uninit_fill_nIPdydET_S1_T0_RKT1_,"x"
	.linkonce discard
	.globl	_ZSt18__do_uninit_fill_nIPdydET_S1_T0_RKT1_
	.def	_ZSt18__do_uninit_fill_nIPdydET_S1_T0_RKT1_;	.scl	2;	.type	32;	.endef
	.seh_proc	_ZSt18__do_uninit_fill_nIPdydET_S1_T0_RKT1_
_ZSt18__do_uninit_fill_nIPdydET_S1_T0_RKT1_:
.LFB5658:
	.loc 13 455 5
	.cfi_startproc
	pushq	%rbp	 #
	.seh_pushreg	%rbp
	.cfi_def_cfa_offset 16
	.cfi_offset 6, -16
	pushq	%rbx	 #
	.seh_pushreg	%rbx
	.cfi_def_cfa_offset 24
	.cfi_offset 3, -24
	subq	$72, %rsp	 #,
	.seh_stackalloc	72
	.cfi_def_cfa_offset 96
	leaq	64(%rsp), %rbp	 #,
	.seh_setframe	%rbp, 64
	.cfi_def_cfa 6, 32
	.seh_endprologue
	movq	%rcx, 32(%rbp)	 # __first, __first
	movq	%rdx, 40(%rbp)	 # __n, __n
	movq	%r8, 48(%rbp)	 # __x, __x
 # D:/msys64/ucrt64/include/c++/15.2.0/bits/stl_uninitialized.h:457:       _UninitDestroyGuard<_ForwardIterator> __guard(__first);
	.loc 13 457 45
	leaq	-32(%rbp), %rax	 #, tmp106
	leaq	32(%rbp), %rdx	 #,
	movq	%rax, %rcx	 # tmp106,
	call	_ZNSt19_UninitDestroyGuardIPdvEC1ERS0_	 #
 # D:/msys64/ucrt64/include/c++/15.2.0/bits/stl_uninitialized.h:469:       for (; __n--; ++__first)
	.loc 13 469 7
	jmp	.L148	 #
.L150:
 # D:/msys64/ucrt64/include/c++/15.2.0/bits/stl_uninitialized.h:470: 	std::_Construct(std::__addressof(*__first), __x);
	.loc 13 470 17
	movq	32(%rbp), %rax	 # __first, __first.23_1
	movq	%rax, -8(%rbp)	 # __first.23_1, __r
.LBB320:
.LBB321:
 # D:/msys64/ucrt64/include/c++/15.2.0/bits/move.h:53:     { return __builtin_addressof(__r); }
	.loc 10 53 37
	movq	-8(%rbp), %rax	 # __r, D.97461
.LBE321:
.LBE320:
 # D:/msys64/ucrt64/include/c++/15.2.0/bits/stl_uninitialized.h:470: 	std::_Construct(std::__addressof(*__first), __x);
	.loc 13 470 17 discriminator 1
	movq	48(%rbp), %rdx	 # __x, tmp107
	movq	%rax, %rcx	 # D.97461,
	call	_ZSt10_ConstructIdJRKdEEvPT_DpOT0_	 #
 # D:/msys64/ucrt64/include/c++/15.2.0/bits/stl_uninitialized.h:469:       for (; __n--; ++__first)
	.loc 13 469 7 discriminator 2
	movq	32(%rbp), %rax	 # __first, __first.24_3
	addq	$8, %rax	 #, _4
	movq	%rax, 32(%rbp)	 # _4, __first
.L148:
 # D:/msys64/ucrt64/include/c++/15.2.0/bits/stl_uninitialized.h:469:       for (; __n--; ++__first)
	.loc 13 469 7 is_stmt 0 discriminator 1
	movq	40(%rbp), %rax	 # __n, __n.26_5
	leaq	-1(%rax), %rdx	 #, tmp108
	movq	%rdx, 40(%rbp)	 # tmp108, __n
	testq	%rax, %rax	 # __n.26_5
	setne	%al	 #, retval.25_12
	testb	%al, %al	 # retval.25_12
	jne	.L150	 #,
 # D:/msys64/ucrt64/include/c++/15.2.0/bits/stl_uninitialized.h:471:       __guard.release();
	.loc 13 471 22 is_stmt 1
	leaq	-32(%rbp), %rax	 #, tmp109
	movq	%rax, %rcx	 # tmp109,
	call	_ZNSt19_UninitDestroyGuardIPdvE7releaseEv	 #
 # D:/msys64/ucrt64/include/c++/15.2.0/bits/stl_uninitialized.h:472:       return __first;
	.loc 13 472 14
	movq	32(%rbp), %rbx	 # __first, _14
 # D:/msys64/ucrt64/include/c++/15.2.0/bits/stl_uninitialized.h:473:     }
	.loc 13 473 5
	leaq	-32(%rbp), %rax	 #, tmp110
	movq	%rax, %rcx	 # tmp110,
	call	_ZNSt19_UninitDestroyGuardIPdvED1Ev	 #
 # D:/msys64/ucrt64/include/c++/15.2.0/bits/stl_uninitialized.h:472:       return __first;
	.loc 13 472 14
	movq	%rbx, %rax	 # _14, <retval>
 # D:/msys64/ucrt64/include/c++/15.2.0/bits/stl_uninitialized.h:473:     }
	.loc 13 473 5
	addq	$72, %rsp	 #,
	popq	%rbx	 #
	.cfi_restore 3
	popq	%rbp	 #
	.cfi_restore 6
	.cfi_def_cfa 7, -56
	ret	
	.cfi_endproc
.LFE5658:
	.seh_endproc
	.section	.text$_ZSt20uninitialized_fill_nIPdydET_S1_T0_RKT1_,"x"
	.linkonce discard
	.globl	_ZSt20uninitialized_fill_nIPdydET_S1_T0_RKT1_
	.def	_ZSt20uninitialized_fill_nIPdydET_S1_T0_RKT1_;	.scl	2;	.type	32;	.endef
	.seh_proc	_ZSt20uninitialized_fill_nIPdydET_S1_T0_RKT1_
_ZSt20uninitialized_fill_nIPdydET_S1_T0_RKT1_:
.LFB5662:
	.loc 13 526 5
	.cfi_startproc
	pushq	%rbp	 #
	.seh_pushreg	%rbp
	.cfi_def_cfa_offset 16
	.cfi_offset 6, -16
	movq	%rsp, %rbp	 #,
	.seh_setframe	%rbp, 0
	.cfi_def_cfa_register 6
	subq	$32, %rsp	 #,
	.seh_stackalloc	32
	.seh_endprologue
	movq	%rcx, 16(%rbp)	 # __first, __first
	movq	%rdx, 24(%rbp)	 # __n, __n
	movq	%r8, 32(%rbp)	 # __x, __x
 # D:/msys64/ucrt64/include/c++/15.2.0/bits/stl_uninitialized.h:571:       return std::__do_uninit_fill_n(__first, __n, __x);
	.loc 13 571 37
	movq	32(%rbp), %rcx	 # __x, tmp100
	movq	24(%rbp), %rdx	 # __n, tmp101
	movq	16(%rbp), %rax	 # __first, tmp102
	movq	%rcx, %r8	 # tmp100,
	movq	%rax, %rcx	 # tmp102,
	call	_ZSt18__do_uninit_fill_nIPdydET_S1_T0_RKT1_	 #
 # D:/msys64/ucrt64/include/c++/15.2.0/bits/stl_uninitialized.h:580:     }
	.loc 13 580 5
	addq	$32, %rsp	 #,
	popq	%rbp	 #
	.cfi_restore 6
	.cfi_def_cfa 7, 8
	ret	
	.cfi_endproc
.LFE5662:
	.seh_endproc
	.section	.text$_ZSt10destroy_atIdEvPT_,"x"
	.linkonce discard
	.globl	_ZSt10destroy_atIdEvPT_
	.def	_ZSt10destroy_atIdEvPT_;	.scl	2;	.type	32;	.endef
	.seh_proc	_ZSt10destroy_atIdEvPT_
_ZSt10destroy_atIdEvPT_:
.LFB5664:
	.loc 14 80 5
	.cfi_startproc
	pushq	%rbp	 #
	.seh_pushreg	%rbp
	.cfi_def_cfa_offset 16
	.cfi_offset 6, -16
	movq	%rsp, %rbp	 #,
	.seh_setframe	%rbp, 0
	.cfi_def_cfa_register 6
	.seh_endprologue
	movq	%rcx, 16(%rbp)	 # __location, __location
 # D:/msys64/ucrt64/include/c++/15.2.0/bits/stl_construct.h:89:     }
	.loc 14 89 5
	nop	
	popq	%rbp	 #
	.cfi_restore 6
	.cfi_def_cfa 7, 8
	ret	
	.cfi_endproc
.LFE5664:
	.seh_endproc
	.section	.text$_ZSt14__relocate_a_1IddENSt9enable_ifIXsrSt24__is_bitwise_relocatableIT_vE5valueEPS2_E4typeES4_S4_S4_RSaIT0_E,"x"
	.linkonce discard
	.globl	_ZSt14__relocate_a_1IddENSt9enable_ifIXsrSt24__is_bitwise_relocatableIT_vE5valueEPS2_E4typeES4_S4_S4_RSaIT0_E
	.def	_ZSt14__relocate_a_1IddENSt9enable_ifIXsrSt24__is_bitwise_relocatableIT_vE5valueEPS2_E4typeES4_S4_S4_RSaIT0_E;	.scl	2;	.type	32;	.endef
	.seh_proc	_ZSt14__relocate_a_1IddENSt9enable_ifIXsrSt24__is_bitwise_relocatableIT_vE5valueEPS2_E4typeES4_S4_S4_RSaIT0_E
_ZSt14__relocate_a_1IddENSt9enable_ifIXsrSt24__is_bitwise_relocatableIT_vE5valueEPS2_E4typeES4_S4_S4_RSaIT0_E:
.LFB5681:
	.loc 13 1326 5
	.cfi_startproc
	pushq	%rbp	 #
	.seh_pushreg	%rbp
	.cfi_def_cfa_offset 16
	.cfi_offset 6, -16
	movq	%rsp, %rbp	 #,
	.seh_setframe	%rbp, 0
	.cfi_def_cfa_register 6
	subq	$48, %rsp	 #,
	.seh_stackalloc	48
	.seh_endprologue
	movq	%rcx, 16(%rbp)	 # __first, __first
	movq	%rdx, 24(%rbp)	 # __last, __last
	movq	%r8, 32(%rbp)	 # __result, __result
	movq	%r9, 40(%rbp)	 # __alloc, __alloc
 # D:/msys64/ucrt64/include/c++/15.2.0/bits/stl_uninitialized.h:1330:       ptrdiff_t __count = __last - __first;
	.loc 13 1330 34
	movq	24(%rbp), %rax	 # __last, tmp110
	subq	16(%rbp), %rax	 # __first, _1
 # D:/msys64/ucrt64/include/c++/15.2.0/bits/stl_uninitialized.h:1330:       ptrdiff_t __count = __last - __first;
	.loc 13 1330 17
	sarq	$3, %rax	 #, __count_14
	movq	%rax, -8(%rbp)	 # __count_14, __count
.LBB322:
 # D:/msys64/ucrt64/include/c++/15.2.0/bits/stl_uninitialized.h:1331:       if (__count > 0)
	.loc 13 1331 7
	cmpq	$0, -8(%rbp)	 #, __count
	jle	.L156	 #,
.LBB323:
.LBB324:
 # D:/msys64/ucrt64/include/c++/15.2.0/bits/stl_uninitialized.h:1334: 	  if (std::is_constant_evaluated())
	.loc 13 1334 34
	call	_ZSt21is_constant_evaluatedv	 #
 # D:/msys64/ucrt64/include/c++/15.2.0/bits/stl_uninitialized.h:1334: 	  if (std::is_constant_evaluated())
	.loc 13 1334 4 discriminator 1
	testb	%al, %al	 # retval.8_17
	je	.L157	 #,
.LBB325:
.LBB326:
.LBB327:
.LBB328:
 # D:/msys64/ucrt64/include/c++/15.2.0/bits/stl_iterator.h:1059:       : _M_current(__i) { }
	.loc 15 1059 9
	movq	32(%rbp), %rax	 # __result, _25
	movq	%rax, -16(%rbp)	 # _25, __out._M_current
.LBE328:
 # D:/msys64/ucrt64/include/c++/15.2.0/bits/stl_iterator.h:1059:       : _M_current(__i) { }
	.loc 15 1059 27
	nop	
.LBE327:
.LBE326:
 # D:/msys64/ucrt64/include/c++/15.2.0/bits/stl_uninitialized.h:1339: 	      __out = std::__relocate_a_1(__first, __last, __out, __alloc);
	.loc 13 1339 35
	movq	40(%rbp), %r8	 # __alloc, tmp112
	movq	-16(%rbp), %rcx	 # __out, tmp113
	movq	24(%rbp), %rdx	 # __last, tmp114
	movq	16(%rbp), %rax	 # __first, tmp115
	movq	%r8, %r9	 # tmp112,
	movq	%rcx, %r8	 # tmp113,
	movq	%rax, %rcx	 # tmp115,
	call	_ZSt14__relocate_a_1IPdN9__gnu_cxx17__normal_iteratorIS0_vEESaIdEET0_T_S6_S5_RT1_	 #
	movq	%rax, -16(%rbp)	 # tmp117, __out
.LBB329:
.LBB330:
 # D:/msys64/ucrt64/include/c++/15.2.0/bits/stl_iterator.h:1166:       { return _M_current; }
	.loc 15 1166 16
	leaq	-16(%rbp), %rax	 #, D.97579
.LBE330:
.LBE329:
 # D:/msys64/ucrt64/include/c++/15.2.0/bits/stl_uninitialized.h:1340: 	      return __out.base();
	.loc 13 1340 26 discriminator 1
	movq	(%rax), %rax	 # *_2, _9
 # D:/msys64/ucrt64/include/c++/15.2.0/bits/stl_uninitialized.h:1340: 	      return __out.base();
	.loc 13 1340 26 is_stmt 0
	jmp	.L159	 #
.L157:
.LBE325:
.LBE324:
 # D:/msys64/ucrt64/include/c++/15.2.0/bits/stl_uninitialized.h:1343: 	  __builtin_memcpy(__result, __first, __count * sizeof(_Tp));
	.loc 13 1343 40 is_stmt 1
	movq	-8(%rbp), %rax	 # __count, __count.9_3
 # D:/msys64/ucrt64/include/c++/15.2.0/bits/stl_uninitialized.h:1343: 	  __builtin_memcpy(__result, __first, __count * sizeof(_Tp));
	.loc 13 1343 20
	leaq	0(,%rax,8), %r8	 #, _4
	movq	32(%rbp), %rdx	 # __result, __result.10_5
	movq	16(%rbp), %rax	 # __first, tmp118
	movq	%rdx, %rcx	 # __result.10_5, tmp119
	movq	%r8, %rdx	 # _4, tmp121
	movq	%rdx, %r8	 # tmp121,
	movq	%rax, %rdx	 # tmp120,
	call	memcpy	 #
.L156:
.LBE323:
.LBE322:
 # D:/msys64/ucrt64/include/c++/15.2.0/bits/stl_uninitialized.h:1345:       return __result + __count;
	.loc 13 1345 23
	movq	32(%rbp), %rax	 # __result, __result.11_6
 # D:/msys64/ucrt64/include/c++/15.2.0/bits/stl_uninitialized.h:1345:       return __result + __count;
	.loc 13 1345 25
	movq	-8(%rbp), %rdx	 # __count, __count.12_7
 # D:/msys64/ucrt64/include/c++/15.2.0/bits/stl_uninitialized.h:1345:       return __result + __count;
	.loc 13 1345 23
	salq	$3, %rdx	 #, _8
 # D:/msys64/ucrt64/include/c++/15.2.0/bits/stl_uninitialized.h:1345:       return __result + __count;
	.loc 13 1345 25
	addq	%rdx, %rax	 # _8, _9
.L159:
 # D:/msys64/ucrt64/include/c++/15.2.0/bits/stl_uninitialized.h:1346:     }
	.loc 13 1346 5
	addq	$48, %rsp	 #,
	popq	%rbp	 #
	.cfi_restore 6
	.cfi_def_cfa 7, 8
	ret	
	.cfi_endproc
.LFE5681:
	.seh_endproc
	.section	.text$_ZSt12construct_atIdJdEQaant20is_unbounded_array_vIT_ErqXgsnwcvPvLi0E_S0_pispcl7declvalIT0_EEEEEPS0_S3_DpOS2_,"x"
	.linkonce discard
	.globl	_ZSt12construct_atIdJdEQaant20is_unbounded_array_vIT_ErqXgsnwcvPvLi0E_S0_pispcl7declvalIT0_EEEEEPS0_S3_DpOS2_
	.def	_ZSt12construct_atIdJdEQaant20is_unbounded_array_vIT_ErqXgsnwcvPvLi0E_S0_pispcl7declvalIT0_EEEEEPS0_S3_DpOS2_;	.scl	2;	.type	32;	.endef
	.seh_proc	_ZSt12construct_atIdJdEQaant20is_unbounded_array_vIT_ErqXgsnwcvPvLi0E_S0_pispcl7declvalIT0_EEEEEPS0_S3_DpOS2_
_ZSt12construct_atIdJdEQaant20is_unbounded_array_vIT_ErqXgsnwcvPvLi0E_S0_pispcl7declvalIT0_EEEEEPS0_S3_DpOS2_:
.LFB5685:
	.loc 14 96 5
	.cfi_startproc
	pushq	%rbp	 #
	.seh_pushreg	%rbp
	.cfi_def_cfa_offset 16
	.cfi_offset 6, -16
	pushq	%rsi	 #
	.seh_pushreg	%rsi
	.cfi_def_cfa_offset 24
	.cfi_offset 4, -24
	pushq	%rbx	 #
	.seh_pushreg	%rbx
	.cfi_def_cfa_offset 32
	.cfi_offset 3, -32
	subq	$48, %rsp	 #,
	.seh_stackalloc	48
	.cfi_def_cfa_offset 80
	leaq	48(%rsp), %rbp	 #,
	.seh_setframe	%rbp, 48
	.cfi_def_cfa 6, 32
	.seh_endprologue
	movq	%rcx, 32(%rbp)	 # __location, __location
	movq	%rdx, 40(%rbp)	 # __args#0, __args#0
 # D:/msys64/ucrt64/include/c++/15.2.0/bits/stl_construct.h:99:       void* __loc = __location;
	.loc 14 99 13
	movq	32(%rbp), %rax	 # __location, tmp105
	movq	%rax, -8(%rbp)	 # tmp105, __loc
 # D:/msys64/ucrt64/include/c++/15.2.0/bits/stl_construct.h:110: 	return ::new(__loc) _Tp(std::forward<_Args>(__args)...);
	.loc 14 110 15
	movq	-8(%rbp), %rsi	 # __loc, _6
 # D:/msys64/ucrt64/include/c++/15.2.0/bits/stl_construct.h:110: 	return ::new(__loc) _Tp(std::forward<_Args>(__args)...);
	.loc 14 110 9
	movq	%rsi, %rdx	 # _6,
	movl	$8, %ecx	 #,
	call	_ZnwyPv	 #
	movq	%rax, %rbx	 #, _9
	movq	40(%rbp), %rax	 # __args#0, tmp106
	movq	%rax, -16(%rbp)	 # tmp106, __t
.LBB331:
.LBB332:
 # D:/msys64/ucrt64/include/c++/15.2.0/bits/move.h:73:     { return static_cast<_Tp&&>(__t); }
	.loc 10 73 36
	movq	-16(%rbp), %rax	 # __t, D.97399
.LBE332:
.LBE331:
 # D:/msys64/ucrt64/include/c++/15.2.0/bits/stl_construct.h:110: 	return ::new(__loc) _Tp(std::forward<_Args>(__args)...);
	.loc 14 110 9 discriminator 2
	movsd	(%rax), %xmm0	 # *_1, _2
	movsd	%xmm0, (%rbx)	 # _2, MEM[(double *)_9]
 # D:/msys64/ucrt64/include/c++/15.2.0/bits/stl_construct.h:110: 	return ::new(__loc) _Tp(std::forward<_Args>(__args)...);
	.loc 14 110 56 discriminator 2
	movl	$0, %eax	 #, _13
 # D:/msys64/ucrt64/include/c++/15.2.0/bits/stl_construct.h:110: 	return ::new(__loc) _Tp(std::forward<_Args>(__args)...);
	.loc 14 110 56 is_stmt 0 discriminator 3
	testb	%al, %al	 # _13
	je	.L163	 #,
 # D:/msys64/ucrt64/include/c++/15.2.0/bits/stl_construct.h:110: 	return ::new(__loc) _Tp(std::forward<_Args>(__args)...);
	.loc 14 110 9 is_stmt 1 discriminator 4
	movq	%rsi, %rdx	 # _6,
	movq	%rbx, %rcx	 # _9,
	call	_ZdlPvS_	 #
.L163:
 # D:/msys64/ucrt64/include/c++/15.2.0/bits/stl_construct.h:110: 	return ::new(__loc) _Tp(std::forward<_Args>(__args)...);
	.loc 14 110 56 discriminator 8
	movq	%rbx, %rax	 # _9, <retval>
 # D:/msys64/ucrt64/include/c++/15.2.0/bits/stl_construct.h:111:     }
	.loc 14 111 5
	addq	$48, %rsp	 #,
	popq	%rbx	 #
	.cfi_restore 3
	popq	%rsi	 #
	.cfi_restore 4
	popq	%rbp	 #
	.cfi_restore 6
	.cfi_def_cfa 7, -24
	ret	
	.cfi_endproc
.LFE5685:
	.seh_endproc
	.weak	_ZSt12construct_atIdJdEEPT_S1_DpOT0_
	.def	_ZSt12construct_atIdJdEEPT_S1_DpOT0_;	.scl	2;	.type	32;	.endef
	.set	_ZSt12construct_atIdJdEEPT_S1_DpOT0_,_ZSt12construct_atIdJdEQaant20is_unbounded_array_vIT_ErqXgsnwcvPvLi0E_S0_pispcl7declvalIT0_EEEEEPS0_S3_DpOS2_
	.section	.text$_ZNSt6vectorIdSaIdEE12_Guard_allocC1EPdyRSt12_Vector_baseIdS0_E,"x"
	.linkonce discard
	.align 2
	.globl	_ZNSt6vectorIdSaIdEE12_Guard_allocC1EPdyRSt12_Vector_baseIdS0_E
	.def	_ZNSt6vectorIdSaIdEE12_Guard_allocC1EPdyRSt12_Vector_baseIdS0_E;	.scl	2;	.type	32;	.endef
	.seh_proc	_ZNSt6vectorIdSaIdEE12_Guard_allocC1EPdyRSt12_Vector_baseIdS0_E
_ZNSt6vectorIdSaIdEE12_Guard_allocC1EPdyRSt12_Vector_baseIdS0_E:
.LFB5689:
	.loc 6 1875 2
	.cfi_startproc
	pushq	%rbp	 #
	.seh_pushreg	%rbp
	.cfi_def_cfa_offset 16
	.cfi_offset 6, -16
	movq	%rsp, %rbp	 #,
	.seh_setframe	%rbp, 0
	.cfi_def_cfa_register 6
	.seh_endprologue
	movq	%rcx, 16(%rbp)	 # this, this
	movq	%rdx, 24(%rbp)	 # __s, __s
	movq	%r8, 32(%rbp)	 # __l, __l
	movq	%r9, 40(%rbp)	 # __vect, __vect
.LBB333:
 # D:/msys64/ucrt64/include/c++/15.2.0/bits/stl_vector.h:1876: 	: _M_storage(__s), _M_len(__l), _M_vect(__vect)
	.loc 6 1876 4
	movq	16(%rbp), %rax	 # this, tmp98
	movq	24(%rbp), %rdx	 # __s, tmp99
	movq	%rdx, (%rax)	 # tmp99, this_2(D)->_M_storage
 # D:/msys64/ucrt64/include/c++/15.2.0/bits/stl_vector.h:1876: 	: _M_storage(__s), _M_len(__l), _M_vect(__vect)
	.loc 6 1876 21
	movq	16(%rbp), %rax	 # this, tmp100
	movq	32(%rbp), %rdx	 # __l, tmp101
	movq	%rdx, 8(%rax)	 # tmp101, this_2(D)->_M_len
 # D:/msys64/ucrt64/include/c++/15.2.0/bits/stl_vector.h:1876: 	: _M_storage(__s), _M_len(__l), _M_vect(__vect)
	.loc 6 1876 34
	movq	16(%rbp), %rax	 # this, tmp102
	movq	40(%rbp), %rdx	 # __vect, tmp103
	movq	%rdx, 16(%rax)	 # tmp103, this_2(D)->_M_vect
.LBE333:
 # D:/msys64/ucrt64/include/c++/15.2.0/bits/stl_vector.h:1877: 	{ }
	.loc 6 1877 4
	nop	
	popq	%rbp	 #
	.cfi_restore 6
	.cfi_def_cfa 7, 8
	ret	
	.cfi_endproc
.LFE5689:
	.seh_endproc
	.section	.text$_ZNSt6vectorIdSaIdEE12_Guard_allocD1Ev,"x"
	.linkonce discard
	.align 2
	.globl	_ZNSt6vectorIdSaIdEE12_Guard_allocD1Ev
	.def	_ZNSt6vectorIdSaIdEE12_Guard_allocD1Ev;	.scl	2;	.type	32;	.endef
	.seh_proc	_ZNSt6vectorIdSaIdEE12_Guard_allocD1Ev
_ZNSt6vectorIdSaIdEE12_Guard_allocD1Ev:
.LFB5692:
	.loc 6 1880 2
	.cfi_startproc
	pushq	%rbp	 #
	.seh_pushreg	%rbp
	.cfi_def_cfa_offset 16
	.cfi_offset 6, -16
	movq	%rsp, %rbp	 #,
	.seh_setframe	%rbp, 0
	.cfi_def_cfa_register 6
	subq	$32, %rsp	 #,
	.seh_stackalloc	32
	.seh_endprologue
	movq	%rcx, 16(%rbp)	 # this, this
.LBB334:
 # D:/msys64/ucrt64/include/c++/15.2.0/bits/stl_vector.h:1882: 	  if (_M_storage)
	.loc 6 1882 8
	movq	16(%rbp), %rax	 # this, tmp102
	movq	(%rax), %rax	 # this_7(D)->_M_storage, _1
 # D:/msys64/ucrt64/include/c++/15.2.0/bits/stl_vector.h:1882: 	  if (_M_storage)
	.loc 6 1882 4
	testq	%rax, %rax	 # _1
	je	.L167	 #,
 # D:/msys64/ucrt64/include/c++/15.2.0/bits/stl_vector.h:1883: 	    _M_vect._M_deallocate(_M_storage, _M_len);
	.loc 6 1883 6
	movq	16(%rbp), %rax	 # this, tmp103
	movq	16(%rax), %rax	 # this_7(D)->_M_vect, _2
 # D:/msys64/ucrt64/include/c++/15.2.0/bits/stl_vector.h:1883: 	    _M_vect._M_deallocate(_M_storage, _M_len);
	.loc 6 1883 40
	movq	16(%rbp), %rdx	 # this, tmp104
	movq	8(%rdx), %rcx	 # this_7(D)->_M_len, _3
 # D:/msys64/ucrt64/include/c++/15.2.0/bits/stl_vector.h:1883: 	    _M_vect._M_deallocate(_M_storage, _M_len);
	.loc 6 1883 28
	movq	16(%rbp), %rdx	 # this, tmp105
	movq	(%rdx), %rdx	 # this_7(D)->_M_storage, _4
 # D:/msys64/ucrt64/include/c++/15.2.0/bits/stl_vector.h:1883: 	    _M_vect._M_deallocate(_M_storage, _M_len);
	.loc 6 1883 27
	movq	%rcx, %r8	 # _3,
	movq	%rax, %rcx	 # _2,
	call	_ZNSt12_Vector_baseIdSaIdEE13_M_deallocateEPdy	 #
.L167:
.LBE334:
 # D:/msys64/ucrt64/include/c++/15.2.0/bits/stl_vector.h:1884: 	}
	.loc 6 1884 2
	nop	
	addq	$32, %rsp	 #,
	popq	%rbp	 #
	.cfi_restore 6
	.cfi_def_cfa 7, 8
	ret	
	.cfi_endproc
.LFE5692:
	.seh_endproc
	.section	.text$_ZNKSt6vectorIdSaIdEE5emptyEv,"x"
	.linkonce discard
	.align 2
	.globl	_ZNKSt6vectorIdSaIdEE5emptyEv
	.def	_ZNKSt6vectorIdSaIdEE5emptyEv;	.scl	2;	.type	32;	.endef
	.seh_proc	_ZNKSt6vectorIdSaIdEE5emptyEv
_ZNKSt6vectorIdSaIdEE5emptyEv:
.LFB5694:
	.loc 6 1223 7
	.cfi_startproc
	pushq	%rbp	 #
	.seh_pushreg	%rbp
	.cfi_def_cfa_offset 16
	.cfi_offset 6, -16
	movq	%rsp, %rbp	 #,
	.seh_setframe	%rbp, 0
	.cfi_def_cfa_register 6
	subq	$64, %rsp	 #,
	.seh_stackalloc	64
	.seh_endprologue
	movq	%rcx, 16(%rbp)	 # this, this
 # D:/msys64/ucrt64/include/c++/15.2.0/bits/stl_vector.h:1224:       { return begin() == end(); }
	.loc 6 1224 30
	movq	16(%rbp), %rax	 # this, tmp104
	movq	%rax, %rcx	 # tmp104,
	call	_ZNKSt6vectorIdSaIdEE3endEv	 #
	movq	%rax, -32(%rbp)	 # tmp106, D.96277
 # D:/msys64/ucrt64/include/c++/15.2.0/bits/stl_vector.h:1224:       { return begin() == end(); }
	.loc 6 1224 21 discriminator 1
	movq	16(%rbp), %rax	 # this, tmp107
	movq	%rax, %rcx	 # tmp107,
	call	_ZNKSt6vectorIdSaIdEE5beginEv	 #
	movq	%rax, -24(%rbp)	 # tmp109, D.96270
	leaq	-24(%rbp), %rax	 #, tmp110
	movq	%rax, -8(%rbp)	 # tmp110, this
.LBB335:
.LBB336:
.LBB337:
.LBB338:
 # D:/msys64/ucrt64/include/c++/15.2.0/bits/stl_iterator.h:1166:       { return _M_current; }
	.loc 15 1166 16
	movq	-8(%rbp), %rax	 # this, _9
.LBE338:
.LBE337:
 # D:/msys64/ucrt64/include/c++/15.2.0/bits/stl_iterator.h:1206:     { return __lhs.base() == __rhs.base(); }
	.loc 15 1206 27 discriminator 1
	movq	(%rax), %rdx	 # *_11, _12
	leaq	-32(%rbp), %rax	 #, tmp111
	movq	%rax, -16(%rbp)	 # tmp111, this
.LBB339:
.LBB340:
 # D:/msys64/ucrt64/include/c++/15.2.0/bits/stl_iterator.h:1166:       { return _M_current; }
	.loc 15 1166 16
	movq	-16(%rbp), %rax	 # this, _14
.LBE340:
.LBE339:
 # D:/msys64/ucrt64/include/c++/15.2.0/bits/stl_iterator.h:1206:     { return __lhs.base() == __rhs.base(); }
	.loc 15 1206 27 discriminator 2
	movq	(%rax), %rax	 # *_16, _17
 # D:/msys64/ucrt64/include/c++/15.2.0/bits/stl_iterator.h:1206:     { return __lhs.base() == __rhs.base(); }
	.loc 15 1206 41 discriminator 2
	cmpq	%rax, %rdx	 # _17, _12
	sete	%al	 #, D.97525
.LBE336:
.LBE335:
 # D:/msys64/ucrt64/include/c++/15.2.0/bits/stl_vector.h:1224:       { return begin() == end(); }
	.loc 6 1224 34
	addq	$64, %rsp	 #,
	popq	%rbp	 #
	.cfi_restore 6
	.cfi_def_cfa 7, 8
	ret	
	.cfi_endproc
.LFE5694:
	.seh_endproc
	.section	.text$_ZNSt19_UninitDestroyGuardIPdvED1Ev,"x"
	.linkonce discard
	.align 2
	.globl	_ZNSt19_UninitDestroyGuardIPdvED1Ev
	.def	_ZNSt19_UninitDestroyGuardIPdvED1Ev;	.scl	2;	.type	32;	.endef
	.seh_proc	_ZNSt19_UninitDestroyGuardIPdvED1Ev
_ZNSt19_UninitDestroyGuardIPdvED1Ev:
.LFB5724:
	.loc 13 118 7
	.cfi_startproc
	pushq	%rbp	 #
	.seh_pushreg	%rbp
	.cfi_def_cfa_offset 16
	.cfi_offset 6, -16
	movq	%rsp, %rbp	 #,
	.seh_setframe	%rbp, 0
	.cfi_def_cfa_register 6
	subq	$32, %rsp	 #,
	.seh_stackalloc	32
	.seh_endprologue
	movq	%rcx, 16(%rbp)	 # this, this
.LBB341:
 # D:/msys64/ucrt64/include/c++/15.2.0/bits/stl_uninitialized.h:120: 	if (__builtin_expect(_M_cur != 0, 0))
	.loc 13 120 23
	movq	16(%rbp), %rax	 # this, tmp105
	movq	8(%rax), %rax	 # this_10(D)->_M_cur, _1
 # D:/msys64/ucrt64/include/c++/15.2.0/bits/stl_uninitialized.h:120: 	if (__builtin_expect(_M_cur != 0, 0))
	.loc 13 120 30
	testq	%rax, %rax	 # _1
	setne	%al	 #, _2
 # D:/msys64/ucrt64/include/c++/15.2.0/bits/stl_uninitialized.h:120: 	if (__builtin_expect(_M_cur != 0, 0))
	.loc 13 120 22
	movzbl	%al, %eax	 # _2, _3
 # D:/msys64/ucrt64/include/c++/15.2.0/bits/stl_uninitialized.h:120: 	if (__builtin_expect(_M_cur != 0, 0))
	.loc 13 120 2 discriminator 1
	testl	%eax, %eax	 # _4
	je	.L175	 #,
 # D:/msys64/ucrt64/include/c++/15.2.0/bits/stl_uninitialized.h:121: 	  std::_Destroy(_M_first, *_M_cur);
	.loc 13 121 29
	movq	16(%rbp), %rax	 # this, tmp106
	movq	8(%rax), %rax	 # this_10(D)->_M_cur, _5
 # D:/msys64/ucrt64/include/c++/15.2.0/bits/stl_uninitialized.h:121: 	  std::_Destroy(_M_first, *_M_cur);
	.loc 13 121 17
	movq	(%rax), %rdx	 # *_5, _6
 # D:/msys64/ucrt64/include/c++/15.2.0/bits/stl_uninitialized.h:121: 	  std::_Destroy(_M_first, *_M_cur);
	.loc 13 121 18
	movq	16(%rbp), %rax	 # this, tmp107
	movq	(%rax), %rax	 # this_10(D)->_M_first, _7
 # D:/msys64/ucrt64/include/c++/15.2.0/bits/stl_uninitialized.h:121: 	  std::_Destroy(_M_first, *_M_cur);
	.loc 13 121 17
	movq	%rax, %rcx	 # _7,
	call	_ZSt8_DestroyIPdEvT_S1_	 #
.L175:
.LBE341:
 # D:/msys64/ucrt64/include/c++/15.2.0/bits/stl_uninitialized.h:122:       }
	.loc 13 122 7
	nop	
	addq	$32, %rsp	 #,
	popq	%rbp	 #
	.cfi_restore 6
	.cfi_def_cfa 7, 8
	ret	
	.cfi_endproc
.LFE5724:
	.seh_endproc
	.section	.text$_ZSt10_ConstructIdJRKdEEvPT_DpOT0_,"x"
	.linkonce discard
	.globl	_ZSt10_ConstructIdJRKdEEvPT_DpOT0_
	.def	_ZSt10_ConstructIdJRKdEEvPT_DpOT0_;	.scl	2;	.type	32;	.endef
	.seh_proc	_ZSt10_ConstructIdJRKdEEvPT_DpOT0_
_ZSt10_ConstructIdJRKdEEvPT_DpOT0_:
.LFB5725:
	.loc 14 123 5
	.cfi_startproc
	pushq	%rbp	 #
	.seh_pushreg	%rbp
	.cfi_def_cfa_offset 16
	.cfi_offset 6, -16
	pushq	%rbx	 #
	.seh_pushreg	%rbx
	.cfi_def_cfa_offset 24
	.cfi_offset 3, -24
	subq	$56, %rsp	 #,
	.seh_stackalloc	56
	.cfi_def_cfa_offset 80
	leaq	48(%rsp), %rbp	 #,
	.seh_setframe	%rbp, 48
	.cfi_def_cfa 6, 32
	.seh_endprologue
	movq	%rcx, 32(%rbp)	 # __p, __p
	movq	%rdx, 40(%rbp)	 # __args#0, __args#0
.LBB342:
.LBB343:
 # D:/msys64/ucrt64/include/c++/15.2.0/x86_64-w64-mingw32/bits/c++config.h:589:     return __builtin_is_constant_evaluated();
	.loc 11 589 44
	movl	$0, %eax	 #, D.97449
.LBE343:
.LBE342:
 # D:/msys64/ucrt64/include/c++/15.2.0/bits/stl_construct.h:126:       if (std::__is_constant_evaluated())
	.loc 14 126 7 discriminator 1
	testb	%al, %al	 # D.97449
	je	.L178	 #,
	movq	40(%rbp), %rax	 # __args#0, tmp106
	movq	%rax, -8(%rbp)	 # tmp106, __t
.LBB344:
.LBB345:
 # D:/msys64/ucrt64/include/c++/15.2.0/bits/move.h:73:     { return static_cast<_Tp&&>(__t); }
	.loc 10 73 36
	movq	-8(%rbp), %rdx	 # __t, D.97453
.LBE345:
.LBE344:
 # D:/msys64/ucrt64/include/c++/15.2.0/bits/stl_construct.h:129: 	  std::construct_at(__p, std::forward<_Args>(__args)...);
	.loc 14 129 21 discriminator 1
	movq	32(%rbp), %rax	 # __p, tmp107
	movq	%rax, %rcx	 # tmp107,
	call	_ZSt12construct_atIdJRKdEQaant20is_unbounded_array_vIT_ErqXgsnwcvPvLi0E_S2_pispcl7declvalIT0_EEEEEPS2_S5_DpOS4_	 #
 # D:/msys64/ucrt64/include/c++/15.2.0/bits/stl_construct.h:130: 	  return;
	.loc 14 130 4
	jmp	.L176	 #
.L178:
 # D:/msys64/ucrt64/include/c++/15.2.0/bits/stl_construct.h:133:       ::new(static_cast<void*>(__p)) _Tp(std::forward<_Args>(__args)...);
	.loc 14 133 13
	movq	32(%rbp), %rbx	 # __p, _8
 # D:/msys64/ucrt64/include/c++/15.2.0/bits/stl_construct.h:133:       ::new(static_cast<void*>(__p)) _Tp(std::forward<_Args>(__args)...);
	.loc 14 133 7
	movq	%rbx, %rdx	 # _8,
	movl	$8, %ecx	 #,
	call	_ZnwyPv	 #
	movq	40(%rbp), %rdx	 # __args#0, tmp108
	movq	%rdx, -16(%rbp)	 # tmp108, __t
.LBB346:
.LBB347:
 # D:/msys64/ucrt64/include/c++/15.2.0/bits/move.h:73:     { return static_cast<_Tp&&>(__t); }
	.loc 10 73 36
	movq	-16(%rbp), %rdx	 # __t, D.97457
.LBE347:
.LBE346:
 # D:/msys64/ucrt64/include/c++/15.2.0/bits/stl_construct.h:133:       ::new(static_cast<void*>(__p)) _Tp(std::forward<_Args>(__args)...);
	.loc 14 133 7 discriminator 2
	movsd	(%rdx), %xmm0	 # *_2, _3
	movsd	%xmm0, (%rax)	 # _3, MEM[(double *)_10]
	movl	$0, %edx	 #, _14
	testb	%dl, %dl	 # _14
	je	.L176	 #,
 # D:/msys64/ucrt64/include/c++/15.2.0/bits/stl_construct.h:133:       ::new(static_cast<void*>(__p)) _Tp(std::forward<_Args>(__args)...);
	.loc 14 133 7 is_stmt 0 discriminator 3
	movq	%rbx, %rdx	 # _8,
	movq	%rax, %rcx	 # _10,
	call	_ZdlPvS_	 #
	nop	
.L176:
 # D:/msys64/ucrt64/include/c++/15.2.0/bits/stl_construct.h:134:     }
	.loc 14 134 5 is_stmt 1
	addq	$56, %rsp	 #,
	popq	%rbx	 #
	.cfi_restore 3
	popq	%rbp	 #
	.cfi_restore 6
	.cfi_def_cfa 7, -40
	ret	
	.cfi_endproc
.LFE5725:
	.seh_endproc
	.section	.text$_ZNSt19_UninitDestroyGuardIPdvE7releaseEv,"x"
	.linkonce discard
	.align 2
	.globl	_ZNSt19_UninitDestroyGuardIPdvE7releaseEv
	.def	_ZNSt19_UninitDestroyGuardIPdvE7releaseEv;	.scl	2;	.type	32;	.endef
	.seh_proc	_ZNSt19_UninitDestroyGuardIPdvE7releaseEv
_ZNSt19_UninitDestroyGuardIPdvE7releaseEv:
.LFB5726:
	.loc 13 125 12
	.cfi_startproc
	pushq	%rbp	 #
	.seh_pushreg	%rbp
	.cfi_def_cfa_offset 16
	.cfi_offset 6, -16
	movq	%rsp, %rbp	 #,
	.seh_setframe	%rbp, 0
	.cfi_def_cfa_register 6
	.seh_endprologue
	movq	%rcx, 16(%rbp)	 # this, this
 # D:/msys64/ucrt64/include/c++/15.2.0/bits/stl_uninitialized.h:125:       void release() { _M_cur = 0; }
	.loc 13 125 31
	movq	16(%rbp), %rax	 # this, tmp98
	movq	$0, 8(%rax)	 #, this_2(D)->_M_cur
 # D:/msys64/ucrt64/include/c++/15.2.0/bits/stl_uninitialized.h:125:       void release() { _M_cur = 0; }
	.loc 13 125 36
	nop	
	popq	%rbp	 #
	.cfi_restore 6
	.cfi_def_cfa 7, 8
	ret	
	.cfi_endproc
.LFE5726:
	.seh_endproc
	.section	.text$_ZNSt15__new_allocatorIdE10deallocateEPdy,"x"
	.linkonce discard
	.align 2
	.globl	_ZNSt15__new_allocatorIdE10deallocateEPdy
	.def	_ZNSt15__new_allocatorIdE10deallocateEPdy;	.scl	2;	.type	32;	.endef
	.seh_proc	_ZNSt15__new_allocatorIdE10deallocateEPdy
_ZNSt15__new_allocatorIdE10deallocateEPdy:
.LFB5728:
	.loc 4 156 7
	.cfi_startproc
	pushq	%rbp	 #
	.seh_pushreg	%rbp
	.cfi_def_cfa_offset 16
	.cfi_offset 6, -16
	movq	%rsp, %rbp	 #,
	.seh_setframe	%rbp, 0
	.cfi_def_cfa_register 6
	subq	$32, %rsp	 #,
	.seh_stackalloc	32
	.seh_endprologue
	movq	%rcx, 16(%rbp)	 # this, this
	movq	%rdx, 24(%rbp)	 # __p, __p
	movq	%r8, 32(%rbp)	 # __n, __n
 # D:/msys64/ucrt64/include/c++/15.2.0/bits/new_allocator.h:172: 	_GLIBCXX_OPERATOR_DELETE(_GLIBCXX_SIZED_DEALLOC(__p, __n));
	.loc 4 172 54
	movq	32(%rbp), %rax	 # __n, tmp99
	leaq	0(,%rax,8), %rdx	 #, _2
	movq	24(%rbp), %rax	 # __p, tmp100
	movq	%rax, %rcx	 # tmp100,
	call	_ZdlPvy	 #
	nop	
 # D:/msys64/ucrt64/include/c++/15.2.0/bits/new_allocator.h:173:       }
	.loc 4 173 7
	addq	$32, %rsp	 #,
	popq	%rbp	 #
	.cfi_restore 6
	.cfi_def_cfa 7, 8
	ret	
	.cfi_endproc
.LFE5728:
	.seh_endproc
	.section	.text$_ZNSt15__new_allocatorIdE8allocateEyPKv,"x"
	.linkonce discard
	.align 2
	.globl	_ZNSt15__new_allocatorIdE8allocateEyPKv
	.def	_ZNSt15__new_allocatorIdE8allocateEyPKv;	.scl	2;	.type	32;	.endef
	.seh_proc	_ZNSt15__new_allocatorIdE8allocateEyPKv
_ZNSt15__new_allocatorIdE8allocateEyPKv:
.LFB5729:
	.loc 4 126 7
	.cfi_startproc
	pushq	%rbp	 #
	.seh_pushreg	%rbp
	.cfi_def_cfa_offset 16
	.cfi_offset 6, -16
	movq	%rsp, %rbp	 #,
	.seh_setframe	%rbp, 0
	.cfi_def_cfa_register 6
	subq	$48, %rsp	 #,
	.seh_stackalloc	48
	.seh_endprologue
	movq	%rcx, 16(%rbp)	 # this, this
	movq	%rdx, 24(%rbp)	 # __n, __n
	movq	%r8, 32(%rbp)	 # D.96607, D.96607
	movq	16(%rbp), %rax	 # this, tmp106
	movq	%rax, -8(%rbp)	 # tmp106, this
.LBB348:
.LBB349:
 # D:/msys64/ucrt64/include/c++/15.2.0/bits/new_allocator.h:233: 	return std::size_t(__PTRDIFF_MAX__) / sizeof(_Tp);
	.loc 4 233 55
	movabsq	$1152921504606846975, %rax	 #, D.97465
.LBE349:
.LBE348:
 # D:/msys64/ucrt64/include/c++/15.2.0/bits/new_allocator.h:134: 	if (__builtin_expect(__n > this->_M_max_size(), false))
	.loc 4 134 27 discriminator 1
	cmpq	24(%rbp), %rax	 # __n, D.97465
	setb	%al	 #, _2
 # D:/msys64/ucrt64/include/c++/15.2.0/bits/new_allocator.h:134: 	if (__builtin_expect(__n > this->_M_max_size(), false))
	.loc 4 134 22 discriminator 1
	movzbl	%al, %eax	 # _2, _3
 # D:/msys64/ucrt64/include/c++/15.2.0/bits/new_allocator.h:134: 	if (__builtin_expect(__n > this->_M_max_size(), false))
	.loc 4 134 22 is_stmt 0 discriminator 2
	testl	%eax, %eax	 # _4
	setne	%al	 #, retval.7_9
 # D:/msys64/ucrt64/include/c++/15.2.0/bits/new_allocator.h:134: 	if (__builtin_expect(__n > this->_M_max_size(), false))
	.loc 4 134 2 is_stmt 1 discriminator 2
	testb	%al, %al	 # retval.7_9
	je	.L187	 #,
 # D:/msys64/ucrt64/include/c++/15.2.0/bits/new_allocator.h:138: 	    if (__n > (std::size_t(-1) / sizeof(_Tp)))
	.loc 4 138 6
	movabsq	$2305843009213693951, %rax	 #, tmp107
	cmpq	24(%rbp), %rax	 # __n, tmp107
	jnb	.L188	 #,
 # D:/msys64/ucrt64/include/c++/15.2.0/bits/new_allocator.h:139: 	      std::__throw_bad_array_new_length();
	.loc 4 139 41
	call	_ZSt28__throw_bad_array_new_lengthv	 #
.L188:
 # D:/msys64/ucrt64/include/c++/15.2.0/bits/new_allocator.h:140: 	    std::__throw_bad_alloc();
	.loc 4 140 28
	call	_ZSt17__throw_bad_allocv	 #
.L187:
 # D:/msys64/ucrt64/include/c++/15.2.0/bits/new_allocator.h:151: 	return static_cast<_Tp*>(_GLIBCXX_OPERATOR_NEW(__n * sizeof(_Tp)));
	.loc 4 151 67
	movq	24(%rbp), %rax	 # __n, tmp108
	salq	$3, %rax	 #, _6
	movq	%rax, %rcx	 # _6,
	call	_Znwy	 #
 # D:/msys64/ucrt64/include/c++/15.2.0/bits/new_allocator.h:151: 	return static_cast<_Tp*>(_GLIBCXX_OPERATOR_NEW(__n * sizeof(_Tp)));
	.loc 4 151 68
	nop	
 # D:/msys64/ucrt64/include/c++/15.2.0/bits/new_allocator.h:152:       }
	.loc 4 152 7
	addq	$48, %rsp	 #,
	popq	%rbp	 #
	.cfi_restore 6
	.cfi_def_cfa 7, 8
	ret	
	.cfi_endproc
.LFE5729:
	.seh_endproc
	.section	.text$_ZSt14__relocate_a_1IPdN9__gnu_cxx17__normal_iteratorIS0_vEESaIdEET0_T_S6_S5_RT1_,"x"
	.linkonce discard
	.globl	_ZSt14__relocate_a_1IPdN9__gnu_cxx17__normal_iteratorIS0_vEESaIdEET0_T_S6_S5_RT1_
	.def	_ZSt14__relocate_a_1IPdN9__gnu_cxx17__normal_iteratorIS0_vEESaIdEET0_T_S6_S5_RT1_;	.scl	2;	.type	32;	.endef
	.seh_proc	_ZSt14__relocate_a_1IPdN9__gnu_cxx17__normal_iteratorIS0_vEESaIdEET0_T_S6_S5_RT1_
_ZSt14__relocate_a_1IPdN9__gnu_cxx17__normal_iteratorIS0_vEESaIdEET0_T_S6_S5_RT1_:
.LFB5730:
	.loc 13 1303 5
	.cfi_startproc
	pushq	%rbp	 #
	.seh_pushreg	%rbp
	.cfi_def_cfa_offset 16
	.cfi_offset 6, -16
	movq	%rsp, %rbp	 #,
	.seh_setframe	%rbp, 0
	.cfi_def_cfa_register 6
	subq	$64, %rsp	 #,
	.seh_stackalloc	64
	.seh_endprologue
	movq	%rcx, 16(%rbp)	 # __first, __first
	movq	%rdx, 24(%rbp)	 # __last, __last
	movq	%r8, 32(%rbp)	 # __result, __result
	movq	%r9, 40(%rbp)	 # __alloc, __alloc
 # D:/msys64/ucrt64/include/c++/15.2.0/bits/stl_uninitialized.h:1315:       _ForwardIterator __cur = __result;
	.loc 13 1315 24
	movq	32(%rbp), %rax	 # __result, tmp106
	movq	%rax, -24(%rbp)	 # tmp106, __cur
 # D:/msys64/ucrt64/include/c++/15.2.0/bits/stl_uninitialized.h:1316:       for (; __first != __last; ++__first, (void)++__cur)
	.loc 13 1316 7
	jmp	.L191	 #
.L196:
	movq	16(%rbp), %rax	 # __first, tmp107
	movq	%rax, -16(%rbp)	 # tmp107, __r
.LBB350:
.LBB351:
 # D:/msys64/ucrt64/include/c++/15.2.0/bits/move.h:53:     { return __builtin_addressof(__r); }
	.loc 10 53 37
	movq	-16(%rbp), %rdx	 # __r, D.97575
.LBE351:
.LBE350:
.LBB352:
.LBB353:
 # D:/msys64/ucrt64/include/c++/15.2.0/bits/stl_iterator.h:1090:       { return *_M_current; }
	.loc 15 1090 17
	movq	-24(%rbp), %rax	 # __cur._M_current, D.97571
	movq	%rax, -8(%rbp)	 # D.97571, __r
.LBE353:
.LBE352:
.LBB354:
.LBB355:
 # D:/msys64/ucrt64/include/c++/15.2.0/bits/move.h:53:     { return __builtin_addressof(__r); }
	.loc 10 53 37
	movq	-8(%rbp), %rax	 # __r, D.97567
.LBE355:
.LBE354:
 # D:/msys64/ucrt64/include/c++/15.2.0/bits/stl_uninitialized.h:1317: 	std::__relocate_object_a(std::__addressof(*__cur),
	.loc 13 1317 26 discriminator 3
	movq	40(%rbp), %rcx	 # __alloc, tmp108
	movq	%rcx, %r8	 # tmp108,
	movq	%rax, %rcx	 # D.97567,
	call	_ZSt19__relocate_object_aIddSaIdEEvPT_PT0_RT1_	 #
 # D:/msys64/ucrt64/include/c++/15.2.0/bits/stl_uninitialized.h:1316:       for (; __first != __last; ++__first, (void)++__cur)
	.loc 13 1316 7 discriminator 3
	addq	$8, 16(%rbp)	 #, __first
.LBB356:
.LBB357:
 # D:/msys64/ucrt64/include/c++/15.2.0/bits/stl_iterator.h:1103: 	++_M_current;
	.loc 15 1103 4
	movq	-24(%rbp), %rax	 # __cur._M_current, _15
 # D:/msys64/ucrt64/include/c++/15.2.0/bits/stl_iterator.h:1103: 	++_M_current;
	.loc 15 1103 2
	addq	$8, %rax	 #, _16
	movq	%rax, -24(%rbp)	 # _16, __cur._M_current
 # D:/msys64/ucrt64/include/c++/15.2.0/bits/stl_iterator.h:1104: 	return *this;
	.loc 15 1104 10
	nop	
.L191:
.LBE357:
.LBE356:
 # D:/msys64/ucrt64/include/c++/15.2.0/bits/stl_uninitialized.h:1316:       for (; __first != __last; ++__first, (void)++__cur)
	.loc 13 1316 22 discriminator 2
	movq	16(%rbp), %rax	 # __first, tmp109
	cmpq	24(%rbp), %rax	 # __last, tmp109
	jne	.L196	 #,
 # D:/msys64/ucrt64/include/c++/15.2.0/bits/stl_uninitialized.h:1319:       return __cur;
	.loc 13 1319 14
	movq	-24(%rbp), %rax	 # __cur, D.97007
 # D:/msys64/ucrt64/include/c++/15.2.0/bits/stl_uninitialized.h:1320:     }
	.loc 13 1320 5
	addq	$64, %rsp	 #,
	popq	%rbp	 #
	.cfi_restore 6
	.cfi_def_cfa 7, 8
	ret	
	.cfi_endproc
.LFE5730:
	.seh_endproc
	.section	.text$_ZNKSt6vectorIdSaIdEE5beginEv,"x"
	.linkonce discard
	.align 2
	.globl	_ZNKSt6vectorIdSaIdEE5beginEv
	.def	_ZNKSt6vectorIdSaIdEE5beginEv;	.scl	2;	.type	32;	.endef
	.seh_proc	_ZNKSt6vectorIdSaIdEE5beginEv
_ZNKSt6vectorIdSaIdEE5beginEv:
.LFB5732:
	.loc 6 1008 7
	.cfi_startproc
	pushq	%rbp	 #
	.seh_pushreg	%rbp
	.cfi_def_cfa_offset 16
	.cfi_offset 6, -16
	movq	%rsp, %rbp	 #,
	.seh_setframe	%rbp, 0
	.cfi_def_cfa_register 6
	subq	$16, %rsp	 #,
	.seh_stackalloc	16
	.seh_endprologue
	movq	%rcx, 16(%rbp)	 # this, this
 # D:/msys64/ucrt64/include/c++/15.2.0/bits/stl_vector.h:1009:       { return const_iterator(this->_M_impl._M_start); }
	.loc 6 1009 45
	movq	16(%rbp), %rax	 # this, _1
	movq	%rax, -8(%rbp)	 # _1, __i
.LBB358:
.LBB359:
.LBB360:
 # D:/msys64/ucrt64/include/c++/15.2.0/bits/stl_iterator.h:1059:       : _M_current(__i) { }
	.loc 15 1059 9
	movq	-8(%rbp), %rax	 # __i, tmp102
	movq	(%rax), %rax	 # *__i_6, _7
	movq	%rax, -16(%rbp)	 # _7, D.96675._M_current
.LBE360:
 # D:/msys64/ucrt64/include/c++/15.2.0/bits/stl_iterator.h:1059:       : _M_current(__i) { }
	.loc 15 1059 27
	nop	
.LBE359:
.LBE358:
 # D:/msys64/ucrt64/include/c++/15.2.0/bits/stl_vector.h:1009:       { return const_iterator(this->_M_impl._M_start); }
	.loc 6 1009 53 discriminator 1
	movq	-16(%rbp), %rax	 # D.96675, D.97093
 # D:/msys64/ucrt64/include/c++/15.2.0/bits/stl_vector.h:1009:       { return const_iterator(this->_M_impl._M_start); }
	.loc 6 1009 56
	addq	$16, %rsp	 #,
	popq	%rbp	 #
	.cfi_restore 6
	.cfi_def_cfa 7, 8
	ret	
	.cfi_endproc
.LFE5732:
	.seh_endproc
	.section	.text$_ZNKSt6vectorIdSaIdEE3endEv,"x"
	.linkonce discard
	.align 2
	.globl	_ZNKSt6vectorIdSaIdEE3endEv
	.def	_ZNKSt6vectorIdSaIdEE3endEv;	.scl	2;	.type	32;	.endef
	.seh_proc	_ZNKSt6vectorIdSaIdEE3endEv
_ZNKSt6vectorIdSaIdEE3endEv:
.LFB5733:
	.loc 6 1028 7
	.cfi_startproc
	pushq	%rbp	 #
	.seh_pushreg	%rbp
	.cfi_def_cfa_offset 16
	.cfi_offset 6, -16
	movq	%rsp, %rbp	 #,
	.seh_setframe	%rbp, 0
	.cfi_def_cfa_register 6
	subq	$16, %rsp	 #,
	.seh_stackalloc	16
	.seh_endprologue
	movq	%rcx, 16(%rbp)	 # this, this
 # D:/msys64/ucrt64/include/c++/15.2.0/bits/stl_vector.h:1029:       { return const_iterator(this->_M_impl._M_finish); }
	.loc 6 1029 45
	movq	16(%rbp), %rax	 # this, tmp102
	addq	$8, %rax	 #, _1
	movq	%rax, -8(%rbp)	 # _1, __i
.LBB361:
.LBB362:
.LBB363:
 # D:/msys64/ucrt64/include/c++/15.2.0/bits/stl_iterator.h:1059:       : _M_current(__i) { }
	.loc 15 1059 9
	movq	-8(%rbp), %rax	 # __i, tmp103
	movq	(%rax), %rax	 # *__i_6, _7
	movq	%rax, -16(%rbp)	 # _7, D.96680._M_current
.LBE363:
 # D:/msys64/ucrt64/include/c++/15.2.0/bits/stl_iterator.h:1059:       : _M_current(__i) { }
	.loc 15 1059 27
	nop	
.LBE362:
.LBE361:
 # D:/msys64/ucrt64/include/c++/15.2.0/bits/stl_vector.h:1029:       { return const_iterator(this->_M_impl._M_finish); }
	.loc 6 1029 54 discriminator 1
	movq	-16(%rbp), %rax	 # D.96680, D.97090
 # D:/msys64/ucrt64/include/c++/15.2.0/bits/stl_vector.h:1029:       { return const_iterator(this->_M_impl._M_finish); }
	.loc 6 1029 57
	addq	$16, %rsp	 #,
	popq	%rbp	 #
	.cfi_restore 6
	.cfi_def_cfa 7, 8
	ret	
	.cfi_endproc
.LFE5733:
	.seh_endproc
	.section	.text$_ZSt12construct_atIdJRKdEQaant20is_unbounded_array_vIT_ErqXgsnwcvPvLi0E_S2_pispcl7declvalIT0_EEEEEPS2_S5_DpOS4_,"x"
	.linkonce discard
	.globl	_ZSt12construct_atIdJRKdEQaant20is_unbounded_array_vIT_ErqXgsnwcvPvLi0E_S2_pispcl7declvalIT0_EEEEEPS2_S5_DpOS4_
	.def	_ZSt12construct_atIdJRKdEQaant20is_unbounded_array_vIT_ErqXgsnwcvPvLi0E_S2_pispcl7declvalIT0_EEEEEPS2_S5_DpOS4_;	.scl	2;	.type	32;	.endef
	.seh_proc	_ZSt12construct_atIdJRKdEQaant20is_unbounded_array_vIT_ErqXgsnwcvPvLi0E_S2_pispcl7declvalIT0_EEEEEPS2_S5_DpOS4_
_ZSt12construct_atIdJRKdEQaant20is_unbounded_array_vIT_ErqXgsnwcvPvLi0E_S2_pispcl7declvalIT0_EEEEEPS2_S5_DpOS4_:
.LFB5752:
	.loc 14 96 5
	.cfi_startproc
	pushq	%rbp	 #
	.seh_pushreg	%rbp
	.cfi_def_cfa_offset 16
	.cfi_offset 6, -16
	pushq	%rsi	 #
	.seh_pushreg	%rsi
	.cfi_def_cfa_offset 24
	.cfi_offset 4, -24
	pushq	%rbx	 #
	.seh_pushreg	%rbx
	.cfi_def_cfa_offset 32
	.cfi_offset 3, -32
	subq	$48, %rsp	 #,
	.seh_stackalloc	48
	.cfi_def_cfa_offset 80
	leaq	48(%rsp), %rbp	 #,
	.seh_setframe	%rbp, 48
	.cfi_def_cfa 6, 32
	.seh_endprologue
	movq	%rcx, 32(%rbp)	 # __location, __location
	movq	%rdx, 40(%rbp)	 # __args#0, __args#0
 # D:/msys64/ucrt64/include/c++/15.2.0/bits/stl_construct.h:99:       void* __loc = __location;
	.loc 14 99 13
	movq	32(%rbp), %rax	 # __location, tmp105
	movq	%rax, -8(%rbp)	 # tmp105, __loc
 # D:/msys64/ucrt64/include/c++/15.2.0/bits/stl_construct.h:110: 	return ::new(__loc) _Tp(std::forward<_Args>(__args)...);
	.loc 14 110 15
	movq	-8(%rbp), %rsi	 # __loc, _6
 # D:/msys64/ucrt64/include/c++/15.2.0/bits/stl_construct.h:110: 	return ::new(__loc) _Tp(std::forward<_Args>(__args)...);
	.loc 14 110 9
	movq	%rsi, %rdx	 # _6,
	movl	$8, %ecx	 #,
	call	_ZnwyPv	 #
	movq	%rax, %rbx	 #, _9
	movq	40(%rbp), %rax	 # __args#0, tmp106
	movq	%rax, -16(%rbp)	 # tmp106, __t
.LBB364:
.LBB365:
 # D:/msys64/ucrt64/include/c++/15.2.0/bits/move.h:73:     { return static_cast<_Tp&&>(__t); }
	.loc 10 73 36
	movq	-16(%rbp), %rax	 # __t, D.97446
.LBE365:
.LBE364:
 # D:/msys64/ucrt64/include/c++/15.2.0/bits/stl_construct.h:110: 	return ::new(__loc) _Tp(std::forward<_Args>(__args)...);
	.loc 14 110 9 discriminator 2
	movsd	(%rax), %xmm0	 # *_1, _2
	movsd	%xmm0, (%rbx)	 # _2, MEM[(double *)_9]
 # D:/msys64/ucrt64/include/c++/15.2.0/bits/stl_construct.h:110: 	return ::new(__loc) _Tp(std::forward<_Args>(__args)...);
	.loc 14 110 56 discriminator 2
	movl	$0, %eax	 #, _13
 # D:/msys64/ucrt64/include/c++/15.2.0/bits/stl_construct.h:110: 	return ::new(__loc) _Tp(std::forward<_Args>(__args)...);
	.loc 14 110 56 is_stmt 0 discriminator 3
	testb	%al, %al	 # _13
	je	.L205	 #,
 # D:/msys64/ucrt64/include/c++/15.2.0/bits/stl_construct.h:110: 	return ::new(__loc) _Tp(std::forward<_Args>(__args)...);
	.loc 14 110 9 is_stmt 1 discriminator 4
	movq	%rsi, %rdx	 # _6,
	movq	%rbx, %rcx	 # _9,
	call	_ZdlPvS_	 #
.L205:
 # D:/msys64/ucrt64/include/c++/15.2.0/bits/stl_construct.h:110: 	return ::new(__loc) _Tp(std::forward<_Args>(__args)...);
	.loc 14 110 56 discriminator 8
	movq	%rbx, %rax	 # _9, <retval>
 # D:/msys64/ucrt64/include/c++/15.2.0/bits/stl_construct.h:111:     }
	.loc 14 111 5
	addq	$48, %rsp	 #,
	popq	%rbx	 #
	.cfi_restore 3
	popq	%rsi	 #
	.cfi_restore 4
	popq	%rbp	 #
	.cfi_restore 6
	.cfi_def_cfa 7, -24
	ret	
	.cfi_endproc
.LFE5752:
	.seh_endproc
	.weak	_ZSt12construct_atIdJRKdEEPT_S3_DpOT0_
	.def	_ZSt12construct_atIdJRKdEEPT_S3_DpOT0_;	.scl	2;	.type	32;	.endef
	.set	_ZSt12construct_atIdJRKdEEPT_S3_DpOT0_,_ZSt12construct_atIdJRKdEQaant20is_unbounded_array_vIT_ErqXgsnwcvPvLi0E_S2_pispcl7declvalIT0_EEEEEPS2_S5_DpOS4_
	.section	.text$_ZSt19__relocate_object_aIddSaIdEEvPT_PT0_RT1_,"x"
	.linkonce discard
	.globl	_ZSt19__relocate_object_aIddSaIdEEvPT_PT0_RT1_
	.def	_ZSt19__relocate_object_aIddSaIdEEvPT_PT0_RT1_;	.scl	2;	.type	32;	.endef
	.seh_proc	_ZSt19__relocate_object_aIddSaIdEEvPT_PT0_RT1_
_ZSt19__relocate_object_aIddSaIdEEvPT_PT0_RT1_:
.LFB5756:
	.loc 13 1280 5
	.cfi_startproc
	pushq	%rbp	 #
	.seh_pushreg	%rbp
	.cfi_def_cfa_offset 16
	.cfi_offset 6, -16
	movq	%rsp, %rbp	 #,
	.seh_setframe	%rbp, 0
	.cfi_def_cfa_register 6
	subq	$96, %rsp	 #,
	.seh_stackalloc	96
	.seh_endprologue
	movq	%rcx, 16(%rbp)	 # __dest, __dest
	movq	%rdx, 24(%rbp)	 # __orig, __orig
	movq	%r8, 32(%rbp)	 # __alloc, __alloc
	movq	24(%rbp), %rax	 # __orig, tmp101
	movq	%rax, -64(%rbp)	 # tmp101, __t
.LBB366:
.LBB367:
 # D:/msys64/ucrt64/include/c++/15.2.0/bits/move.h:139:     { return static_cast<typename std::remove_reference<_Tp>::type&&>(__t); }
	.loc 10 139 74
	movq	-64(%rbp), %rax	 # __t, D.97559
	movq	16(%rbp), %rdx	 # __dest, tmp102
	movq	%rdx, -32(%rbp)	 # tmp102, __p
	movq	%rax, -40(%rbp)	 # D.97559, __args#0
	movq	32(%rbp), %rax	 # __alloc, tmp103
	movq	%rax, -48(%rbp)	 # tmp103, __a
	movq	-40(%rbp), %rax	 # __args#0, tmp104
	movq	%rax, -56(%rbp)	 # tmp104, __t
.LBE367:
.LBE366:
.LBB368:
.LBB369:
.LBB370:
.LBB371:
 # D:/msys64/ucrt64/include/c++/15.2.0/bits/move.h:73:     { return static_cast<_Tp&&>(__t); }
	.loc 10 73 36
	movq	-56(%rbp), %rdx	 # __t, _15
.LBE371:
.LBE370:
 # D:/msys64/ucrt64/include/c++/15.2.0/bits/alloc_traits.h:676: 	  std::construct_at(__p, std::forward<_Args>(__args)...);
	.loc 8 676 21 discriminator 1
	movq	-32(%rbp), %rax	 # __p, tmp105
	movq	%rax, %rcx	 # tmp105,
	call	_ZSt12construct_atIdJdEQaant20is_unbounded_array_vIT_ErqXgsnwcvPvLi0E_S0_pispcl7declvalIT0_EEEEEPS0_S3_DpOS2_	 #
 # D:/msys64/ucrt64/include/c++/15.2.0/bits/alloc_traits.h:680: 	}
	.loc 8 680 2
	nop	
	movq	24(%rbp), %rax	 # __orig, tmp106
	movq	%rax, -24(%rbp)	 # tmp106, __r
.LBE369:
.LBE368:
.LBB372:
.LBB373:
 # D:/msys64/ucrt64/include/c++/15.2.0/bits/move.h:53:     { return __builtin_addressof(__r); }
	.loc 10 53 37
	movq	-24(%rbp), %rax	 # __r, D.97548
	movq	%rax, -8(%rbp)	 # D.97548, __p
	movq	32(%rbp), %rax	 # __alloc, tmp107
	movq	%rax, -16(%rbp)	 # tmp107, __a
.LBE373:
.LBE372:
.LBB374:
.LBB375:
 # D:/msys64/ucrt64/include/c++/15.2.0/bits/alloc_traits.h:698: 	  std::destroy_at(__p);
	.loc 8 698 19
	movq	-8(%rbp), %rax	 # __p, tmp108
	movq	%rax, %rcx	 # tmp108,
	call	_ZSt10destroy_atIdEvPT_	 #
 # D:/msys64/ucrt64/include/c++/15.2.0/bits/alloc_traits.h:700: 	}
	.loc 8 700 2
	nop	
.LBE375:
.LBE374:
 # D:/msys64/ucrt64/include/c++/15.2.0/bits/stl_uninitialized.h:1290:     }
	.loc 13 1290 5
	nop	
	addq	$96, %rsp	 #,
	popq	%rbp	 #
	.cfi_restore 6
	.cfi_def_cfa 7, 8
	ret	
	.cfi_endproc
.LFE5756:
	.seh_endproc
	.section .rdata,"dr"
	.align 8
.LC1:
	.long	0
	.long	1071644672
	.text
.Letext0:
	.file 17 "D:/msys64/ucrt64/include/c++/15.2.0/bits/utility.h"
	.file 18 "D:/msys64/ucrt64/include/c++/15.2.0/concepts"
	.file 19 "D:/msys64/ucrt64/include/c++/15.2.0/bits/iterator_concepts.h"
	.file 20 "D:/msys64/ucrt64/include/c++/15.2.0/compare"
	.file 21 "D:/msys64/ucrt64/include/c++/15.2.0/span"
	.file 22 "D:/msys64/ucrt64/include/c++/15.2.0/debug/debug.h"
	.file 23 "D:/msys64/ucrt64/include/c++/15.2.0/numbers"
	.file 24 "D:/msys64/ucrt64/include/c++/15.2.0/bits/memory_resource.h"
	.file 25 "D:/msys64/ucrt64/include/c++/15.2.0/bits/exception_ptr.h"
	.file 26 "D:/msys64/ucrt64/include/c++/15.2.0/cstddef"
	.file 27 "D:/msys64/ucrt64/include/c++/15.2.0/cwchar"
	.file 28 "D:/msys64/ucrt64/include/c++/15.2.0/clocale"
	.file 29 "D:/msys64/ucrt64/include/c++/15.2.0/cstdlib"
	.file 30 "D:/msys64/ucrt64/include/c++/15.2.0/cstdio"
	.file 31 "D:/msys64/ucrt64/include/c++/15.2.0/system_error"
	.file 32 "D:/msys64/ucrt64/include/c++/15.2.0/cwctype"
	.file 33 "D:/msys64/ucrt64/include/c++/15.2.0/initializer_list"
	.file 34 "D:/msys64/ucrt64/include/c++/15.2.0/cmath"
	.file 35 "D:/msys64/ucrt64/include/c++/15.2.0/cstdint"
	.file 36 "D:/msys64/ucrt64/include/c++/15.2.0/bits/random.h"
	.file 37 "D:/msys64/ucrt64/include/c++/15.2.0/bits/stl_iterator_base_types.h"
	.file 38 "D:/msys64/ucrt64/include/c++/15.2.0/bits/random.tcc"
	.file 39 "D:/msys64/ucrt64/include/c++/15.2.0/bits/functexcept.h"
	.file 40 "D:/msys64/ucrt64/include/c++/15.2.0/bits/predefined_ops.h"
	.file 41 "D:/msys64/ucrt64/include/c++/15.2.0/ext/alloc_traits.h"
	.file 42 "D:/msys64/ucrt64/include/corecrt.h"
	.file 43 "D:/msys64/ucrt64/include/stddef.h"
	.file 44 "D:/msys64/ucrt64/include/wchar.h"
	.file 45 "D:/msys64/ucrt64/include/swprintf.inl"
	.file 46 "D:/msys64/ucrt64/include/stdio.h"
	.file 47 "D:/msys64/ucrt64/include/locale.h"
	.file 48 "D:/msys64/ucrt64/include/stdlib.h"
	.file 49 "D:/msys64/ucrt64/include/wctype.h"
	.file 50 "D:/msys64/ucrt64/include/corecrt_wctype.h"
	.file 51 "E:/Projects/Simulation_Projects/cva_cpp/includes_hpp/math/random.hpp"
	.file 52 "E:/Projects/Simulation_Projects/cva_cpp/includes_hpp/engine/monte_carlo.hpp"
	.file 53 "D:/msys64/ucrt64/include/math.h"
	.file 54 "D:/msys64/ucrt64/include/stdint.h"
	.file 55 "D:/msys64/ucrt64/include/c++/15.2.0/pstl/execution_defs.h"