	.file	"main.cpp"
 # GNU C++20 (Rev8, Built by MSYS2 project) version 15.2.0 (x86_64-w64-mingw32)
 #	compiled by GNU C version 15.2.0, GMP version 6.3.0, MPFR version 4.2.2, MPC version 1.3.1, isl version isl-0.27-GMP

 # GGC heuristics: --param ggc-min-expand=100 --param ggc-min-heapsize=131072
 # options passed: -mtune=generic -march=nocona -g -std=c++20
	.text
.Ltext0:
	.cfi_sections	.debug_frame
	.file 0 "E://Projects//Simulation_Projects//cva_cpp//build" "E:/Projects/Simulation_Projects/cva_cpp/main.cpp"
	.section	.text$_ZStanSt13_Ios_FmtflagsS_,"x"
	.linkonce discard
	.globl	_ZStanSt13_Ios_FmtflagsS_
	.def	_ZStanSt13_Ios_FmtflagsS_;	.scl	2;	.type	32;	.endef
	.seh_proc	_ZStanSt13_Ios_FmtflagsS_
_ZStanSt13_Ios_FmtflagsS_:
.LFB2152:
	.file 1 "D:/msys64/ucrt64/include/c++/15.2.0/bits/ios_base.h"
	.loc 1 87 3
	.cfi_startproc
	pushq	%rbp	 #
	.seh_pushreg	%rbp
	.cfi_def_cfa_offset 16
	.cfi_offset 6, -16
	movq	%rsp, %rbp	 #,
	.seh_setframe	%rbp, 0
	.cfi_def_cfa_register 6
	.seh_endprologue
	movl	%ecx, 16(%rbp)	 # __a, __a
	movl	%edx, 24(%rbp)	 # __b, __b
 # D:/msys64/ucrt64/include/c++/15.2.0/bits/ios_base.h:87:   { return _Ios_Fmtflags(static_cast<int>(__a) & static_cast<int>(__b)); }
	.loc 1 87 71
	movl	16(%rbp), %eax	 # __a, tmp100
	andl	24(%rbp), %eax	 # __b, _3
 # D:/msys64/ucrt64/include/c++/15.2.0/bits/ios_base.h:87:   { return _Ios_Fmtflags(static_cast<int>(__a) & static_cast<int>(__b)); }
	.loc 1 87 74
	popq	%rbp	 #
	.cfi_restore 6
	.cfi_def_cfa 7, 8
	ret	
	.cfi_endproc
.LFE2152:
	.seh_endproc
	.section	.text$_ZStorSt13_Ios_FmtflagsS_,"x"
	.linkonce discard
	.globl	_ZStorSt13_Ios_FmtflagsS_
	.def	_ZStorSt13_Ios_FmtflagsS_;	.scl	2;	.type	32;	.endef
	.seh_proc	_ZStorSt13_Ios_FmtflagsS_
_ZStorSt13_Ios_FmtflagsS_:
.LFB2153:
	.loc 1 92 3
	.cfi_startproc
	pushq	%rbp	 #
	.seh_pushreg	%rbp
	.cfi_def_cfa_offset 16
	.cfi_offset 6, -16
	movq	%rsp, %rbp	 #,
	.seh_setframe	%rbp, 0
	.cfi_def_cfa_register 6
	.seh_endprologue
	movl	%ecx, 16(%rbp)	 # __a, __a
	movl	%edx, 24(%rbp)	 # __b, __b
 # D:/msys64/ucrt64/include/c++/15.2.0/bits/ios_base.h:92:   { return _Ios_Fmtflags(static_cast<int>(__a) | static_cast<int>(__b)); }
	.loc 1 92 71
	movl	16(%rbp), %eax	 # __a, tmp100
	orl	24(%rbp), %eax	 # __b, _3
 # D:/msys64/ucrt64/include/c++/15.2.0/bits/ios_base.h:92:   { return _Ios_Fmtflags(static_cast<int>(__a) | static_cast<int>(__b)); }
	.loc 1 92 74
	popq	%rbp	 #
	.cfi_restore 6
	.cfi_def_cfa 7, 8
	ret	
	.cfi_endproc
.LFE2153:
	.seh_endproc
	.section	.text$_ZStcoSt13_Ios_Fmtflags,"x"
	.linkonce discard
	.globl	_ZStcoSt13_Ios_Fmtflags
	.def	_ZStcoSt13_Ios_Fmtflags;	.scl	2;	.type	32;	.endef
	.seh_proc	_ZStcoSt13_Ios_Fmtflags
_ZStcoSt13_Ios_Fmtflags:
.LFB2155:
	.loc 1 102 3
	.cfi_startproc
	pushq	%rbp	 #
	.seh_pushreg	%rbp
	.cfi_def_cfa_offset 16
	.cfi_offset 6, -16
	movq	%rsp, %rbp	 #,
	.seh_setframe	%rbp, 0
	.cfi_def_cfa_register 6
	.seh_endprologue
	movl	%ecx, 16(%rbp)	 # __a, __a
 # D:/msys64/ucrt64/include/c++/15.2.0/bits/ios_base.h:102:   { return _Ios_Fmtflags(~static_cast<int>(__a)); }
	.loc 1 102 48
	movl	16(%rbp), %eax	 # __a, tmp100
	notl	%eax	 # _2
 # D:/msys64/ucrt64/include/c++/15.2.0/bits/ios_base.h:102:   { return _Ios_Fmtflags(~static_cast<int>(__a)); }
	.loc 1 102 51
	popq	%rbp	 #
	.cfi_restore 6
	.cfi_def_cfa 7, 8
	ret	
	.cfi_endproc
.LFE2155:
	.seh_endproc
	.section	.text$_ZStoRRSt13_Ios_FmtflagsS_,"x"
	.linkonce discard
	.globl	_ZStoRRSt13_Ios_FmtflagsS_
	.def	_ZStoRRSt13_Ios_FmtflagsS_;	.scl	2;	.type	32;	.endef
	.seh_proc	_ZStoRRSt13_Ios_FmtflagsS_
_ZStoRRSt13_Ios_FmtflagsS_:
.LFB2156:
	.loc 1 107 3
	.cfi_startproc
	pushq	%rbp	 #
	.seh_pushreg	%rbp
	.cfi_def_cfa_offset 16
	.cfi_offset 6, -16
	movq	%rsp, %rbp	 #,
	.seh_setframe	%rbp, 0
	.cfi_def_cfa_register 6
	subq	$32, %rsp	 #,
	.seh_stackalloc	32
	.seh_endprologue
	movq	%rcx, 16(%rbp)	 # __a, __a
	movl	%edx, 24(%rbp)	 # __b, __b
 # D:/msys64/ucrt64/include/c++/15.2.0/bits/ios_base.h:107:   { return __a = __a | __b; }
	.loc 1 107 22
	movq	16(%rbp), %rax	 # __a, tmp102
	movl	(%rax), %eax	 # *__a_4(D), _1
	movl	24(%rbp), %edx	 # __b, tmp103
	movl	%eax, %ecx	 # _1,
	call	_ZStorSt13_Ios_FmtflagsS_	 #
 # D:/msys64/ucrt64/include/c++/15.2.0/bits/ios_base.h:107:   { return __a = __a | __b; }
	.loc 1 107 16 discriminator 1
	movq	16(%rbp), %rdx	 # __a, tmp104
	movl	%eax, (%rdx)	 # _2, *__a_4(D)
 # D:/msys64/ucrt64/include/c++/15.2.0/bits/ios_base.h:107:   { return __a = __a | __b; }
	.loc 1 107 24 discriminator 1
	movq	16(%rbp), %rax	 # __a, _8
 # D:/msys64/ucrt64/include/c++/15.2.0/bits/ios_base.h:107:   { return __a = __a | __b; }
	.loc 1 107 29
	addq	$32, %rsp	 #,
	popq	%rbp	 #
	.cfi_restore 6
	.cfi_def_cfa 7, 8
	ret	
	.cfi_endproc
.LFE2156:
	.seh_endproc
	.section	.text$_ZStaNRSt13_Ios_FmtflagsS_,"x"
	.linkonce discard
	.globl	_ZStaNRSt13_Ios_FmtflagsS_
	.def	_ZStaNRSt13_Ios_FmtflagsS_;	.scl	2;	.type	32;	.endef
	.seh_proc	_ZStaNRSt13_Ios_FmtflagsS_
_ZStaNRSt13_Ios_FmtflagsS_:
.LFB2157:
	.loc 1 112 3
	.cfi_startproc
	pushq	%rbp	 #
	.seh_pushreg	%rbp
	.cfi_def_cfa_offset 16
	.cfi_offset 6, -16
	movq	%rsp, %rbp	 #,
	.seh_setframe	%rbp, 0
	.cfi_def_cfa_register 6
	subq	$32, %rsp	 #,
	.seh_stackalloc	32
	.seh_endprologue
	movq	%rcx, 16(%rbp)	 # __a, __a
	movl	%edx, 24(%rbp)	 # __b, __b
 # D:/msys64/ucrt64/include/c++/15.2.0/bits/ios_base.h:112:   { return __a = __a & __b; }
	.loc 1 112 22
	movq	16(%rbp), %rax	 # __a, tmp102
	movl	(%rax), %eax	 # *__a_4(D), _1
	movl	24(%rbp), %edx	 # __b, tmp103
	movl	%eax, %ecx	 # _1,
	call	_ZStanSt13_Ios_FmtflagsS_	 #
 # D:/msys64/ucrt64/include/c++/15.2.0/bits/ios_base.h:112:   { return __a = __a & __b; }
	.loc 1 112 16 discriminator 1
	movq	16(%rbp), %rdx	 # __a, tmp104
	movl	%eax, (%rdx)	 # _2, *__a_4(D)
 # D:/msys64/ucrt64/include/c++/15.2.0/bits/ios_base.h:112:   { return __a = __a & __b; }
	.loc 1 112 24 discriminator 1
	movq	16(%rbp), %rax	 # __a, _8
 # D:/msys64/ucrt64/include/c++/15.2.0/bits/ios_base.h:112:   { return __a = __a & __b; }
	.loc 1 112 29
	addq	$32, %rsp	 #,
	popq	%rbp	 #
	.cfi_restore 6
	.cfi_def_cfa 7, 8
	ret	
	.cfi_endproc
.LFE2157:
	.seh_endproc
	.section	.text$_ZNSt8ios_base4setfESt13_Ios_FmtflagsS0_,"x"
	.linkonce discard
	.align 2
	.globl	_ZNSt8ios_base4setfESt13_Ios_FmtflagsS0_
	.def	_ZNSt8ios_base4setfESt13_Ios_FmtflagsS0_;	.scl	2;	.type	32;	.endef
	.seh_proc	_ZNSt8ios_base4setfESt13_Ios_FmtflagsS0_
_ZNSt8ios_base4setfESt13_Ios_FmtflagsS0_:
.LFB2186:
	.loc 1 738 5
	.cfi_startproc
	pushq	%rbp	 #
	.seh_pushreg	%rbp
	.cfi_def_cfa_offset 16
	.cfi_offset 6, -16
	movq	%rsp, %rbp	 #,
	.seh_setframe	%rbp, 0
	.cfi_def_cfa_register 6
	subq	$48, %rsp	 #,
	.seh_stackalloc	48
	.seh_endprologue
	movq	%rcx, 16(%rbp)	 # this, this
	movl	%edx, 24(%rbp)	 # __fmtfl, __fmtfl
	movl	%r8d, 32(%rbp)	 # __mask, __mask
 # D:/msys64/ucrt64/include/c++/15.2.0/bits/ios_base.h:740:       fmtflags __old = _M_flags;
	.loc 1 740 16
	movq	16(%rbp), %rax	 # this, tmp104
	movl	24(%rax), %eax	 # this_6(D)->_M_flags, tmp105
	movl	%eax, -4(%rbp)	 # tmp105, __old
 # D:/msys64/ucrt64/include/c++/15.2.0/bits/ios_base.h:741:       _M_flags &= ~__mask;
	.loc 1 741 20
	movl	32(%rbp), %eax	 # __mask, tmp106
	movl	%eax, %ecx	 # tmp106,
	call	_ZStcoSt13_Ios_Fmtflags	 #
	movl	%eax, %edx	 #, _1
 # D:/msys64/ucrt64/include/c++/15.2.0/bits/ios_base.h:741:       _M_flags &= ~__mask;
	.loc 1 741 7 discriminator 1
	movq	16(%rbp), %rax	 # this, tmp107
	addq	$24, %rax	 #, _2
 # D:/msys64/ucrt64/include/c++/15.2.0/bits/ios_base.h:741:       _M_flags &= ~__mask;
	.loc 1 741 20 discriminator 1
	movq	%rax, %rcx	 # _2,
	call	_ZStaNRSt13_Ios_FmtflagsS_	 #
 # D:/msys64/ucrt64/include/c++/15.2.0/bits/ios_base.h:742:       _M_flags |= (__fmtfl & __mask);
	.loc 1 742 36
	movl	32(%rbp), %edx	 # __mask, tmp108
	movl	24(%rbp), %eax	 # __fmtfl, tmp109
	movl	%eax, %ecx	 # tmp109,
	call	_ZStanSt13_Ios_FmtflagsS_	 #
	movl	%eax, %edx	 #, _3
 # D:/msys64/ucrt64/include/c++/15.2.0/bits/ios_base.h:742:       _M_flags |= (__fmtfl & __mask);
	.loc 1 742 7 discriminator 1
	movq	16(%rbp), %rax	 # this, tmp110
	addq	$24, %rax	 #, _4
 # D:/msys64/ucrt64/include/c++/15.2.0/bits/ios_base.h:742:       _M_flags |= (__fmtfl & __mask);
	.loc 1 742 36 discriminator 1
	movq	%rax, %rcx	 # _4,
	call	_ZStoRRSt13_Ios_FmtflagsS_	 #
 # D:/msys64/ucrt64/include/c++/15.2.0/bits/ios_base.h:743:       return __old;
	.loc 1 743 14
	movl	-4(%rbp), %eax	 # __old, _14
 # D:/msys64/ucrt64/include/c++/15.2.0/bits/ios_base.h:744:     }
	.loc 1 744 5
	addq	$48, %rsp	 #,
	popq	%rbp	 #
	.cfi_restore 6
	.cfi_def_cfa 7, 8
	ret	
	.cfi_endproc
.LFE2186:
	.seh_endproc
	.section	.text$_ZSt5fixedRSt8ios_base,"x"
	.linkonce discard
	.globl	_ZSt5fixedRSt8ios_base
	.def	_ZSt5fixedRSt8ios_base;	.scl	2;	.type	32;	.endef
	.seh_proc	_ZSt5fixedRSt8ios_base
_ZSt5fixedRSt8ios_base:
.LFB2216:
	.loc 1 1120 3
	.cfi_startproc
	pushq	%rbp	 #
	.seh_pushreg	%rbp
	.cfi_def_cfa_offset 16
	.cfi_offset 6, -16
	movq	%rsp, %rbp	 #,
	.seh_setframe	%rbp, 0
	.cfi_def_cfa_register 6
	subq	$32, %rsp	 #,
	.seh_stackalloc	32
	.seh_endprologue
	movq	%rcx, 16(%rbp)	 # __base, __base
 # D:/msys64/ucrt64/include/c++/15.2.0/bits/ios_base.h:1121:     __base.setf(ios_base::fixed, ios_base::floatfield);
	.loc 1 1121 16
	movq	16(%rbp), %rax	 # __base, tmp100
	movl	$260, %r8d	 #,
	movl	$4, %edx	 #,
	movq	%rax, %rcx	 # tmp100,
	call	_ZNSt8ios_base4setfESt13_Ios_FmtflagsS0_	 #
 # D:/msys64/ucrt64/include/c++/15.2.0/bits/ios_base.h:1122:     return __base;
	.loc 1 1122 12
	movq	16(%rbp), %rax	 # __base, _4
 # D:/msys64/ucrt64/include/c++/15.2.0/bits/ios_base.h:1123:   }
	.loc 1 1123 3
	addq	$32, %rsp	 #,
	popq	%rbp	 #
	.cfi_restore 6
	.cfi_def_cfa 7, 8
	ret	
	.cfi_endproc
.LFE2216:
	.seh_endproc
	.section	.text$_ZSt12setprecisioni,"x"
	.linkonce discard
	.globl	_ZSt12setprecisioni
	.def	_ZSt12setprecisioni;	.scl	2;	.type	32;	.endef
	.seh_proc	_ZSt12setprecisioni
_ZSt12setprecisioni:
.LFB2913:
	.file 2 "D:/msys64/ucrt64/include/c++/15.2.0/iomanip"
	.loc 2 208 3
	.cfi_startproc
	pushq	%rbp	 #
	.seh_pushreg	%rbp
	.cfi_def_cfa_offset 16
	.cfi_offset 6, -16
	movq	%rsp, %rbp	 #,
	.seh_setframe	%rbp, 0
	.cfi_def_cfa_register 6
	.seh_endprologue
	movl	%ecx, 16(%rbp)	 # __n, __n
 # D:/msys64/ucrt64/include/c++/15.2.0/iomanip:208:   { return { __n }; }
	.loc 2 208 18
	movl	16(%rbp), %eax	 # __n, D.195109
 # D:/msys64/ucrt64/include/c++/15.2.0/iomanip:208:   { return { __n }; }
	.loc 2 208 21
	popq	%rbp	 #
	.cfi_restore 6
	.cfi_def_cfa 7, 8
	ret	
	.cfi_endproc
.LFE2913:
	.seh_endproc
	.section	.text$_ZNKSt6chrono8durationIxSt5ratioILx1ELx1000000000EEE5countEv,"x"
	.linkonce discard
	.align 2
	.globl	_ZNKSt6chrono8durationIxSt5ratioILx1ELx1000000000EEE5countEv
	.def	_ZNKSt6chrono8durationIxSt5ratioILx1ELx1000000000EEE5countEv;	.scl	2;	.type	32;	.endef
	.seh_proc	_ZNKSt6chrono8durationIxSt5ratioILx1ELx1000000000EEE5countEv
_ZNKSt6chrono8durationIxSt5ratioILx1ELx1000000000EEE5countEv:
.LFB3243:
	.file 3 "D:/msys64/ucrt64/include/c++/15.2.0/bits/chrono.h"
	.loc 3 593 2
	.cfi_startproc
	pushq	%rbp	 #
	.seh_pushreg	%rbp
	.cfi_def_cfa_offset 16
	.cfi_offset 6, -16
	movq	%rsp, %rbp	 #,
	.seh_setframe	%rbp, 0
	.cfi_def_cfa_register 6
	.seh_endprologue
	movq	%rcx, 16(%rbp)	 # this, this
 # D:/msys64/ucrt64/include/c++/15.2.0/bits/chrono.h:594: 	{ return __r; }
	.loc 3 594 11
	movq	16(%rbp), %rax	 # this, tmp100
	movq	(%rax), %rax	 # this_2(D)->__r, _3
 # D:/msys64/ucrt64/include/c++/15.2.0/bits/chrono.h:594: 	{ return __r; }
	.loc 3 594 16
	popq	%rbp	 #
	.cfi_restore 6
	.cfi_def_cfa 7, 8
	ret	
	.cfi_endproc
.LFE3243:
	.seh_endproc
	.section	.text$_ZNSt6chrono8durationIxSt5ratioILx1ELx1000000000EEEC1IxvEERKT_,"x"
	.linkonce discard
	.align 2
	.globl	_ZNSt6chrono8durationIxSt5ratioILx1ELx1000000000EEEC1IxvEERKT_
	.def	_ZNSt6chrono8durationIxSt5ratioILx1ELx1000000000EEEC1IxvEERKT_;	.scl	2;	.type	32;	.endef
	.seh_proc	_ZNSt6chrono8durationIxSt5ratioILx1ELx1000000000EEEC1IxvEERKT_
_ZNSt6chrono8durationIxSt5ratioILx1ELx1000000000EEEC1IxvEERKT_:
.LFB3249:
	.loc 3 577 23
	.cfi_startproc
	pushq	%rbp	 #
	.seh_pushreg	%rbp
	.cfi_def_cfa_offset 16
	.cfi_offset 6, -16
	movq	%rsp, %rbp	 #,
	.seh_setframe	%rbp, 0
	.cfi_def_cfa_register 6
	.seh_endprologue
	movq	%rcx, 16(%rbp)	 # this, this
	movq	%rdx, 24(%rbp)	 # __rep, __rep
.LBB25:
 # D:/msys64/ucrt64/include/c++/15.2.0/bits/chrono.h:578: 	  : __r(static_cast<rep>(__rep)) { }
	.loc 3 578 10
	movq	24(%rbp), %rax	 # __rep, tmp99
	movq	(%rax), %rdx	 # *__rep_5(D), _1
 # D:/msys64/ucrt64/include/c++/15.2.0/bits/chrono.h:578: 	  : __r(static_cast<rep>(__rep)) { }
	.loc 3 578 6
	movq	16(%rbp), %rax	 # this, tmp100
	movq	%rdx, (%rax)	 # _1, this_3(D)->__r
.LBE25:
 # D:/msys64/ucrt64/include/c++/15.2.0/bits/chrono.h:578: 	  : __r(static_cast<rep>(__rep)) { }
	.loc 3 578 37
	nop	
	popq	%rbp	 #
	.cfi_restore 6
	.cfi_def_cfa 7, 8
	ret	
	.cfi_endproc
.LFE3249:
	.seh_endproc
	.section	.text$_ZNK3cva6engine16MonteCarloEngine9time_gridEv,"x"
	.linkonce discard
	.align 2
	.globl	_ZNK3cva6engine16MonteCarloEngine9time_gridEv
	.def	_ZNK3cva6engine16MonteCarloEngine9time_gridEv;	.scl	2;	.type	32;	.endef
	.seh_proc	_ZNK3cva6engine16MonteCarloEngine9time_gridEv
_ZNK3cva6engine16MonteCarloEngine9time_gridEv:
.LFB7104:
	.file 4 "E:/Projects/Simulation_Projects/cva_cpp/includes_hpp/engine/monte_carlo.hpp"
	.loc 4 38 36
	.cfi_startproc
	pushq	%rbp	 #
	.seh_pushreg	%rbp
	.cfi_def_cfa_offset 16
	.cfi_offset 6, -16
	movq	%rsp, %rbp	 #,
	.seh_setframe	%rbp, 0
	.cfi_def_cfa_register 6
	.seh_endprologue
	movq	%rcx, 16(%rbp)	 # this, this
 # E:/Projects/Simulation_Projects/cva_cpp/includes_hpp/engine/monte_carlo.hpp:38:         const std::vector<double>& time_grid() const { return time_grid_; }
	.loc 4 38 63
	movq	16(%rbp), %rax	 # this, tmp100
	addq	$24, %rax	 #, _2
 # E:/Projects/Simulation_Projects/cva_cpp/includes_hpp/engine/monte_carlo.hpp:38:         const std::vector<double>& time_grid() const { return time_grid_; }
	.loc 4 38 75
	popq	%rbp	 #
	.cfi_restore 6
	.cfi_def_cfa 7, 8
	ret	
	.cfi_endproc
.LFE7104:
	.seh_endproc
	.section	.text$_ZN3cva11instruments10InstrumentC2Ev,"x"
	.linkonce discard
	.align 2
	.globl	_ZN3cva11instruments10InstrumentC2Ev
	.def	_ZN3cva11instruments10InstrumentC2Ev;	.scl	2;	.type	32;	.endef
	.seh_proc	_ZN3cva11instruments10InstrumentC2Ev
_ZN3cva11instruments10InstrumentC2Ev:
.LFB7267:
	.file 5 "E:/Projects/Simulation_Projects/cva_cpp/includes_hpp/instruments/instrument.hpp"
	.loc 5 15 11
	.cfi_startproc
	pushq	%rbp	 #
	.seh_pushreg	%rbp
	.cfi_def_cfa_offset 16
	.cfi_offset 6, -16
	movq	%rsp, %rbp	 #,
	.seh_setframe	%rbp, 0
	.cfi_def_cfa_register 6
	.seh_endprologue
	movq	%rcx, 16(%rbp)	 # this, this
.LBB26:
 # E:/Projects/Simulation_Projects/cva_cpp/includes_hpp/instruments/instrument.hpp:15:     class Instrument {
	.loc 5 15 11
	leaq	16+_ZTVN3cva11instruments10InstrumentE(%rip), %rdx	 #, _1
	movq	16(%rbp), %rax	 # this, tmp99
	movq	%rdx, (%rax)	 # _1, this_3(D)->_vptr.Instrument
.LBE26:
	nop	
	popq	%rbp	 #
	.cfi_restore 6
	.cfi_def_cfa 7, 8
	ret	
	.cfi_endproc
.LFE7267:
	.seh_endproc
	.section	.text$_ZN3cva11instruments10InstrumentD2Ev,"x"
	.linkonce discard
	.align 2
	.globl	_ZN3cva11instruments10InstrumentD2Ev
	.def	_ZN3cva11instruments10InstrumentD2Ev;	.scl	2;	.type	32;	.endef
	.seh_proc	_ZN3cva11instruments10InstrumentD2Ev
_ZN3cva11instruments10InstrumentD2Ev:
.LFB7270:
	.loc 5 17 17
	.cfi_startproc
	pushq	%rbp	 #
	.seh_pushreg	%rbp
	.cfi_def_cfa_offset 16
	.cfi_offset 6, -16
	movq	%rsp, %rbp	 #,
	.seh_setframe	%rbp, 0
	.cfi_def_cfa_register 6
	.seh_endprologue
	movq	%rcx, 16(%rbp)	 # this, this
.LBB27:
 # E:/Projects/Simulation_Projects/cva_cpp/includes_hpp/instruments/instrument.hpp:17:         virtual ~Instrument() = default;
	.loc 5 17 17
	leaq	16+_ZTVN3cva11instruments10InstrumentE(%rip), %rdx	 #, _1
	movq	16(%rbp), %rax	 # this, tmp99
	movq	%rdx, (%rax)	 # _1, this_3(D)->_vptr.Instrument
.LBE27:
	nop	
	popq	%rbp	 #
	.cfi_restore 6
	.cfi_def_cfa 7, 8
	ret	
	.cfi_endproc
.LFE7270:
	.seh_endproc
	.section	.text$_ZN3cva11instruments14EuropeanOptionC1ENS0_10OptionTypeEdddd,"x"
	.linkonce discard
	.align 2
	.globl	_ZN3cva11instruments14EuropeanOptionC1ENS0_10OptionTypeEdddd
	.def	_ZN3cva11instruments14EuropeanOptionC1ENS0_10OptionTypeEdddd;	.scl	2;	.type	32;	.endef
	.seh_proc	_ZN3cva11instruments14EuropeanOptionC1ENS0_10OptionTypeEdddd
_ZN3cva11instruments14EuropeanOptionC1ENS0_10OptionTypeEdddd:
.LFB7277:
	.file 6 "E:/Projects/Simulation_Projects/cva_cpp/includes_hpp/instruments/vanilla.hpp"
	.loc 6 53 9
	.cfi_startproc
	pushq	%rbp	 #
	.seh_pushreg	%rbp
	.cfi_def_cfa_offset 16
	.cfi_offset 6, -16
	movq	%rsp, %rbp	 #,
	.seh_setframe	%rbp, 0
	.cfi_def_cfa_register 6
	subq	$32, %rsp	 #,
	.seh_stackalloc	32
	.seh_endprologue
	movq	%rcx, 16(%rbp)	 # this, this
	movl	%edx, 24(%rbp)	 # type, type
	movsd	%xmm2, 32(%rbp)	 # strike, strike
	movsd	%xmm3, 40(%rbp)	 # expiry, expiry
.LBB28:
 # E:/Projects/Simulation_Projects/cva_cpp/includes_hpp/instruments/vanilla.hpp:54:             : type_(type), strike_(strike), expiry_(expiry), r_(r), vol_(vol) {}
	.loc 6 54 77
	movq	16(%rbp), %rax	 # this, _1
	movq	%rax, %rcx	 # _1,
	call	_ZN3cva11instruments10InstrumentC2Ev	 #
 # E:/Projects/Simulation_Projects/cva_cpp/includes_hpp/instruments/vanilla.hpp:54:             : type_(type), strike_(strike), expiry_(expiry), r_(r), vol_(vol) {}
	.loc 6 54 77 is_stmt 0 discriminator 1
	leaq	16+_ZTVN3cva11instruments14EuropeanOptionE(%rip), %rdx	 #, _2
	movq	16(%rbp), %rax	 # this, tmp101
	movq	%rdx, (%rax)	 # _2, this_5(D)->D.148492._vptr.Instrument
 # E:/Projects/Simulation_Projects/cva_cpp/includes_hpp/instruments/vanilla.hpp:54:             : type_(type), strike_(strike), expiry_(expiry), r_(r), vol_(vol) {}
	.loc 6 54 15 is_stmt 1 discriminator 1
	movq	16(%rbp), %rax	 # this, tmp102
	movl	24(%rbp), %edx	 # type, tmp103
	movl	%edx, 8(%rax)	 # tmp103, this_5(D)->type_
 # E:/Projects/Simulation_Projects/cva_cpp/includes_hpp/instruments/vanilla.hpp:54:             : type_(type), strike_(strike), expiry_(expiry), r_(r), vol_(vol) {}
	.loc 6 54 28 discriminator 1
	movq	16(%rbp), %rax	 # this, tmp104
	movsd	32(%rbp), %xmm0	 # strike, tmp105
	movsd	%xmm0, 16(%rax)	 # tmp105, this_5(D)->strike_
 # E:/Projects/Simulation_Projects/cva_cpp/includes_hpp/instruments/vanilla.hpp:54:             : type_(type), strike_(strike), expiry_(expiry), r_(r), vol_(vol) {}
	.loc 6 54 45 discriminator 1
	movq	16(%rbp), %rax	 # this, tmp106
	movsd	40(%rbp), %xmm0	 # expiry, tmp107
	movsd	%xmm0, 24(%rax)	 # tmp107, this_5(D)->expiry_
 # E:/Projects/Simulation_Projects/cva_cpp/includes_hpp/instruments/vanilla.hpp:54:             : type_(type), strike_(strike), expiry_(expiry), r_(r), vol_(vol) {}
	.loc 6 54 62 discriminator 1
	movq	16(%rbp), %rax	 # this, tmp108
	movsd	48(%rbp), %xmm0	 # r, tmp109
	movsd	%xmm0, 32(%rax)	 # tmp109, this_5(D)->r_
 # E:/Projects/Simulation_Projects/cva_cpp/includes_hpp/instruments/vanilla.hpp:54:             : type_(type), strike_(strike), expiry_(expiry), r_(r), vol_(vol) {}
	.loc 6 54 69 discriminator 1
	movq	16(%rbp), %rax	 # this, tmp110
	movsd	56(%rbp), %xmm0	 # vol, tmp111
	movsd	%xmm0, 40(%rax)	 # tmp111, this_5(D)->vol_
.LBE28:
 # E:/Projects/Simulation_Projects/cva_cpp/includes_hpp/instruments/vanilla.hpp:54:             : type_(type), strike_(strike), expiry_(expiry), r_(r), vol_(vol) {}
	.loc 6 54 80
	nop	
	addq	$32, %rsp	 #,
	popq	%rbp	 #
	.cfi_restore 6
	.cfi_def_cfa 7, 8
	ret	
	.cfi_endproc
.LFE7277:
	.seh_endproc
	.section	.text$_ZZNK3cva11instruments14EuropeanOption5valueEddENKUldE_clEd,"x"
	.linkonce discard
	.align 2
	.globl	_ZZNK3cva11instruments14EuropeanOption5valueEddENKUldE_clEd
	.def	_ZZNK3cva11instruments14EuropeanOption5valueEddENKUldE_clEd;	.scl	2;	.type	32;	.endef
	.seh_proc	_ZZNK3cva11instruments14EuropeanOption5valueEddENKUldE_clEd
_ZZNK3cva11instruments14EuropeanOption5valueEddENKUldE_clEd:
.LFB7279:
	.loc 6 74 28
	.cfi_startproc
	pushq	%rbp	 #
	.seh_pushreg	%rbp
	.cfi_def_cfa_offset 16
	.cfi_offset 6, -16
	movq	%rsp, %rbp	 #,
	.seh_setframe	%rbp, 0
	.cfi_def_cfa_register 6
	subq	$32, %rsp	 #,
	.seh_stackalloc	32
	.seh_endprologue
	movq	%rcx, 16(%rbp)	 # __closure, __closure
	movsd	%xmm1, 24(%rbp)	 # x, x
 # E:/Projects/Simulation_Projects/cva_cpp/includes_hpp/instruments/vanilla.hpp:74:                 auto cdf = [inv_sqrt2](double x) { return 0.5 * std::erfc(-x * inv_sqrt2); };
	.loc 6 74 75
	movsd	24(%rbp), %xmm0	 # x, tmp103
	movq	.LC0(%rip), %xmm1	 #, tmp104
	xorpd	%xmm0, %xmm1	 # tmp103, _1
 # E:/Projects/Simulation_Projects/cva_cpp/includes_hpp/instruments/vanilla.hpp:74:                 auto cdf = [inv_sqrt2](double x) { return 0.5 * std::erfc(-x * inv_sqrt2); };
	.loc 6 74 74
	movsd	.LC1(%rip), %xmm0	 #, tmp105
	mulsd	%xmm0, %xmm1	 # tmp105, _1
	movq	%xmm1, %rax	 # _1, _2
	movq	%rax, %xmm0	 # _2,
	call	erfc	 #
 # E:/Projects/Simulation_Projects/cva_cpp/includes_hpp/instruments/vanilla.hpp:74:                 auto cdf = [inv_sqrt2](double x) { return 0.5 * std::erfc(-x * inv_sqrt2); };
	.loc 6 74 89 discriminator 1
	movsd	.LC2(%rip), %xmm1	 #, tmp106
	mulsd	%xmm1, %xmm0	 # tmp106, _7
 # E:/Projects/Simulation_Projects/cva_cpp/includes_hpp/instruments/vanilla.hpp:74:                 auto cdf = [inv_sqrt2](double x) { return 0.5 * std::erfc(-x * inv_sqrt2); };
	.loc 6 74 92
	addq	$32, %rsp	 #,
	popq	%rbp	 #
	.cfi_restore 6
	.cfi_def_cfa 7, 8
	ret	
	.cfi_endproc
.LFE7279:
	.seh_endproc
	.section	.text$_ZZNK3cva11instruments14EuropeanOption5valueEddENKUldE0_clEd,"x"
	.linkonce discard
	.align 2
	.globl	_ZZNK3cva11instruments14EuropeanOption5valueEddENKUldE0_clEd
	.def	_ZZNK3cva11instruments14EuropeanOption5valueEddENKUldE0_clEd;	.scl	2;	.type	32;	.endef
	.seh_proc	_ZZNK3cva11instruments14EuropeanOption5valueEddENKUldE0_clEd
_ZZNK3cva11instruments14EuropeanOption5valueEddENKUldE0_clEd:
.LFB7280:
	.loc 6 77 29
	.cfi_startproc
	pushq	%rbp	 #
	.seh_pushreg	%rbp
	.cfi_def_cfa_offset 16
	.cfi_offset 6, -16
	movq	%rsp, %rbp	 #,
	.seh_setframe	%rbp, 0
	.cfi_def_cfa_register 6
	subq	$32, %rsp	 #,
	.seh_stackalloc	32
	.seh_endprologue
	movq	%rcx, 16(%rbp)	 # __closure, __closure
	movsd	%xmm1, 24(%rbp)	 # x, x
 # E:/Projects/Simulation_Projects/cva_cpp/includes_hpp/instruments/vanilla.hpp:77:                  auto cdf = [inv_sqrt2](double x) { return 0.5 * std::erfc(-x * inv_sqrt2); };
	.loc 6 77 76
	movsd	24(%rbp), %xmm0	 # x, tmp103
	movq	.LC0(%rip), %xmm1	 #, tmp104
	xorpd	%xmm0, %xmm1	 # tmp103, _1
 # E:/Projects/Simulation_Projects/cva_cpp/includes_hpp/instruments/vanilla.hpp:77:                  auto cdf = [inv_sqrt2](double x) { return 0.5 * std::erfc(-x * inv_sqrt2); };
	.loc 6 77 75
	movsd	.LC1(%rip), %xmm0	 #, tmp105
	mulsd	%xmm0, %xmm1	 # tmp105, _1
	movq	%xmm1, %rax	 # _1, _2
	movq	%rax, %xmm0	 # _2,
	call	erfc	 #
 # E:/Projects/Simulation_Projects/cva_cpp/includes_hpp/instruments/vanilla.hpp:77:                  auto cdf = [inv_sqrt2](double x) { return 0.5 * std::erfc(-x * inv_sqrt2); };
	.loc 6 77 90 discriminator 1
	movsd	.LC2(%rip), %xmm1	 #, tmp106
	mulsd	%xmm1, %xmm0	 # tmp106, _7
 # E:/Projects/Simulation_Projects/cva_cpp/includes_hpp/instruments/vanilla.hpp:77:                  auto cdf = [inv_sqrt2](double x) { return 0.5 * std::erfc(-x * inv_sqrt2); };
	.loc 6 77 93
	addq	$32, %rsp	 #,
	popq	%rbp	 #
	.cfi_restore 6
	.cfi_def_cfa 7, 8
	ret	
	.cfi_endproc
.LFE7280:
	.seh_endproc
	.section	.text$_ZNK3cva11instruments14EuropeanOption5valueEdd,"x"
	.linkonce discard
	.align 2
	.globl	_ZNK3cva11instruments14EuropeanOption5valueEdd
	.def	_ZNK3cva11instruments14EuropeanOption5valueEdd;	.scl	2;	.type	32;	.endef
	.seh_proc	_ZNK3cva11instruments14EuropeanOption5valueEdd
_ZNK3cva11instruments14EuropeanOption5valueEdd:
.LFB7278:
	.loc 6 56 30
	.cfi_startproc
	pushq	%rbp	 #
	.seh_pushreg	%rbp
	.cfi_def_cfa_offset 16
	.cfi_offset 6, -16
	subq	$144, %rsp	 #,
	.seh_stackalloc	144
	.cfi_def_cfa_offset 160
	leaq	112(%rsp), %rbp	 #,
	.seh_setframe	%rbp, 112
	.cfi_def_cfa 6, 48
	movups	%xmm6, 0(%rbp)	 #,
	.seh_savexmm	%xmm6, 112
	movups	%xmm7, 16(%rbp)	 #,
	.seh_savexmm	%xmm7, 128
	.cfi_offset 23, -48
	.cfi_offset 24, -32
	.seh_endprologue
	movq	%rcx, 48(%rbp)	 # this, this
	movsd	%xmm1, 56(%rbp)	 # spot, spot
	movsd	%xmm2, 64(%rbp)	 # t, t
.LBB29:
 # E:/Projects/Simulation_Projects/cva_cpp/includes_hpp/instruments/vanilla.hpp:57:             if (t >= expiry_) {
	.loc 6 57 22
	movq	48(%rbp), %rax	 # this, tmp147
	movsd	24(%rax), %xmm1	 # this_53(D)->expiry_, _1
 # E:/Projects/Simulation_Projects/cva_cpp/includes_hpp/instruments/vanilla.hpp:57:             if (t >= expiry_) {
	.loc 6 57 13
	movsd	64(%rbp), %xmm0	 # t, tmp148
	comisd	%xmm1, %xmm0	 # _1, tmp148
	jb	.L38	 #,
.LBB30:
 # E:/Projects/Simulation_Projects/cva_cpp/includes_hpp/instruments/vanilla.hpp:58:                 double payoff = (type_ == OptionType::Call) ? (spot - strike_) : (strike_ - spot);
	.loc 6 58 34
	movq	48(%rbp), %rax	 # this, tmp149
	movl	8(%rax), %eax	 # this_53(D)->type_, _2
 # E:/Projects/Simulation_Projects/cva_cpp/includes_hpp/instruments/vanilla.hpp:58:                 double payoff = (type_ == OptionType::Call) ? (spot - strike_) : (strike_ - spot);
	.loc 6 58 61
	testl	%eax, %eax	 # _2
	jne	.L32	 #,
 # E:/Projects/Simulation_Projects/cva_cpp/includes_hpp/instruments/vanilla.hpp:58:                 double payoff = (type_ == OptionType::Call) ? (spot - strike_) : (strike_ - spot);
	.loc 6 58 71 discriminator 1
	movq	48(%rbp), %rax	 # this, tmp150
	movsd	16(%rax), %xmm1	 # this_53(D)->strike_, _3
 # E:/Projects/Simulation_Projects/cva_cpp/includes_hpp/instruments/vanilla.hpp:58:                 double payoff = (type_ == OptionType::Call) ? (spot - strike_) : (strike_ - spot);
	.loc 6 58 61 discriminator 1
	movsd	56(%rbp), %xmm0	 # spot, tmp151
	subsd	%xmm1, %xmm0	 # _3, iftmp.0_48
	jmp	.L33	 #
.L32:
 # E:/Projects/Simulation_Projects/cva_cpp/includes_hpp/instruments/vanilla.hpp:58:                 double payoff = (type_ == OptionType::Call) ? (spot - strike_) : (strike_ - spot);
	.loc 6 58 83 discriminator 2
	movq	48(%rbp), %rax	 # this, tmp152
	movsd	16(%rax), %xmm0	 # this_53(D)->strike_, _4
 # E:/Projects/Simulation_Projects/cva_cpp/includes_hpp/instruments/vanilla.hpp:58:                 double payoff = (type_ == OptionType::Call) ? (spot - strike_) : (strike_ - spot);
	.loc 6 58 61 discriminator 2
	subsd	56(%rbp), %xmm0	 # spot, iftmp.0_48
.L33:
 # E:/Projects/Simulation_Projects/cva_cpp/includes_hpp/instruments/vanilla.hpp:58:                 double payoff = (type_ == OptionType::Call) ? (spot - strike_) : (strike_ - spot);
	.loc 6 58 24 discriminator 4
	movsd	%xmm0, -56(%rbp)	 # iftmp.0_48, payoff
 # E:/Projects/Simulation_Projects/cva_cpp/includes_hpp/instruments/vanilla.hpp:59:                 return std::max(0.0, payoff);
	.loc 6 59 33
	pxor	%xmm0, %xmm0	 # tmp153
	movsd	%xmm0, -48(%rbp)	 # tmp153, D.148537
 # E:/Projects/Simulation_Projects/cva_cpp/includes_hpp/instruments/vanilla.hpp:59:                 return std::max(0.0, payoff);
	.loc 6 59 32
	leaq	-56(%rbp), %rdx	 #, tmp154
	leaq	-48(%rbp), %rax	 #, tmp155
	movq	%rax, %rcx	 # tmp155,
	call	_ZSt3maxIdERKT_S2_S2_	 #
 # E:/Projects/Simulation_Projects/cva_cpp/includes_hpp/instruments/vanilla.hpp:59:                 return std::max(0.0, payoff);
	.loc 6 59 44 discriminator 1
	movsd	(%rax), %xmm0	 # *_5, _49
 # E:/Projects/Simulation_Projects/cva_cpp/includes_hpp/instruments/vanilla.hpp:59:                 return std::max(0.0, payoff);
	.loc 6 59 44 is_stmt 0
	jmp	.L34	 #
.L38:
.LBE30:
.LBE29:
 # E:/Projects/Simulation_Projects/cva_cpp/includes_hpp/instruments/vanilla.hpp:62:             double T = expiry_ - t;
	.loc 6 62 24 is_stmt 1
	movq	48(%rbp), %rax	 # this, tmp156
	movsd	24(%rax), %xmm0	 # this_53(D)->expiry_, _6
 # E:/Projects/Simulation_Projects/cva_cpp/includes_hpp/instruments/vanilla.hpp:62:             double T = expiry_ - t;
	.loc 6 62 20
	subsd	64(%rbp), %xmm0	 # t, T_55
	movsd	%xmm0, -16(%rbp)	 # T_55, T
 # E:/Projects/Simulation_Projects/cva_cpp/includes_hpp/instruments/vanilla.hpp:63:             double d1 = (std::log(spot / strike_) + (r_ + 0.5 * vol_ * vol_) * T) / (vol_ * std::sqrt(T));
	.loc 6 63 42
	movq	48(%rbp), %rax	 # this, tmp158
	movsd	16(%rax), %xmm1	 # this_53(D)->strike_, _7
 # E:/Projects/Simulation_Projects/cva_cpp/includes_hpp/instruments/vanilla.hpp:63:             double d1 = (std::log(spot / strike_) + (r_ + 0.5 * vol_ * vol_) * T) / (vol_ * std::sqrt(T));
	.loc 6 63 34
	movsd	56(%rbp), %xmm0	 # spot, tmp159
	divsd	%xmm1, %xmm0	 # _7, tmp159
	movq	%xmm0, %rax	 # tmp159, _8
	movq	%rax, %xmm0	 # _8,
	call	log	 #
 # E:/Projects/Simulation_Projects/cva_cpp/includes_hpp/instruments/vanilla.hpp:63:             double d1 = (std::log(spot / strike_) + (r_ + 0.5 * vol_ * vol_) * T) / (vol_ * std::sqrt(T));
	.loc 6 63 54 discriminator 1
	movq	48(%rbp), %rax	 # this, tmp160
	movsd	32(%rax), %xmm2	 # this_53(D)->r_, _10
 # E:/Projects/Simulation_Projects/cva_cpp/includes_hpp/instruments/vanilla.hpp:63:             double d1 = (std::log(spot / strike_) + (r_ + 0.5 * vol_ * vol_) * T) / (vol_ * std::sqrt(T));
	.loc 6 63 65 discriminator 1
	movq	48(%rbp), %rax	 # this, tmp161
	movsd	40(%rax), %xmm3	 # this_53(D)->vol_, _11
 # E:/Projects/Simulation_Projects/cva_cpp/includes_hpp/instruments/vanilla.hpp:63:             double d1 = (std::log(spot / strike_) + (r_ + 0.5 * vol_ * vol_) * T) / (vol_ * std::sqrt(T));
	.loc 6 63 63 discriminator 1
	movsd	.LC2(%rip), %xmm1	 #, tmp162
	mulsd	%xmm1, %xmm3	 # tmp162, _12
 # E:/Projects/Simulation_Projects/cva_cpp/includes_hpp/instruments/vanilla.hpp:63:             double d1 = (std::log(spot / strike_) + (r_ + 0.5 * vol_ * vol_) * T) / (vol_ * std::sqrt(T));
	.loc 6 63 72 discriminator 1
	movq	48(%rbp), %rax	 # this, tmp163
	movsd	40(%rax), %xmm1	 # this_53(D)->vol_, _13
 # E:/Projects/Simulation_Projects/cva_cpp/includes_hpp/instruments/vanilla.hpp:63:             double d1 = (std::log(spot / strike_) + (r_ + 0.5 * vol_ * vol_) * T) / (vol_ * std::sqrt(T));
	.loc 6 63 70 discriminator 1
	mulsd	%xmm3, %xmm1	 # _12, _14
 # E:/Projects/Simulation_Projects/cva_cpp/includes_hpp/instruments/vanilla.hpp:63:             double d1 = (std::log(spot / strike_) + (r_ + 0.5 * vol_ * vol_) * T) / (vol_ * std::sqrt(T));
	.loc 6 63 57 discriminator 1
	addsd	%xmm2, %xmm1	 # _10, _15
 # E:/Projects/Simulation_Projects/cva_cpp/includes_hpp/instruments/vanilla.hpp:63:             double d1 = (std::log(spot / strike_) + (r_ + 0.5 * vol_ * vol_) * T) / (vol_ * std::sqrt(T));
	.loc 6 63 78 discriminator 1
	mulsd	-16(%rbp), %xmm1	 # T, _16
 # E:/Projects/Simulation_Projects/cva_cpp/includes_hpp/instruments/vanilla.hpp:63:             double d1 = (std::log(spot / strike_) + (r_ + 0.5 * vol_ * vol_) * T) / (vol_ * std::sqrt(T));
	.loc 6 63 51 discriminator 1
	movapd	%xmm0, %xmm6	 # _9, _9
	addsd	%xmm1, %xmm6	 # _16, _9
 # E:/Projects/Simulation_Projects/cva_cpp/includes_hpp/instruments/vanilla.hpp:63:             double d1 = (std::log(spot / strike_) + (r_ + 0.5 * vol_ * vol_) * T) / (vol_ * std::sqrt(T));
	.loc 6 63 86 discriminator 1
	movq	48(%rbp), %rax	 # this, tmp164
	movsd	40(%rax), %xmm7	 # this_53(D)->vol_, _18
 # E:/Projects/Simulation_Projects/cva_cpp/includes_hpp/instruments/vanilla.hpp:63:             double d1 = (std::log(spot / strike_) + (r_ + 0.5 * vol_ * vol_) * T) / (vol_ * std::sqrt(T));
	.loc 6 63 102 discriminator 1
	movq	-16(%rbp), %rax	 # T, tmp165
	movq	%rax, %xmm0	 # tmp165,
	call	sqrt	 #
 # E:/Projects/Simulation_Projects/cva_cpp/includes_hpp/instruments/vanilla.hpp:63:             double d1 = (std::log(spot / strike_) + (r_ + 0.5 * vol_ * vol_) * T) / (vol_ * std::sqrt(T));
	.loc 6 63 91 discriminator 2
	mulsd	%xmm0, %xmm7	 # _19, _18
	movapd	%xmm7, %xmm1	 # _18, _20
 # E:/Projects/Simulation_Projects/cva_cpp/includes_hpp/instruments/vanilla.hpp:63:             double d1 = (std::log(spot / strike_) + (r_ + 0.5 * vol_ * vol_) * T) / (vol_ * std::sqrt(T));
	.loc 6 63 105 discriminator 2
	divsd	%xmm1, %xmm6	 # _20, _17
	movapd	%xmm6, %xmm0	 # _17, d1_59
	movsd	%xmm0, -24(%rbp)	 # d1_59, d1
 # E:/Projects/Simulation_Projects/cva_cpp/includes_hpp/instruments/vanilla.hpp:64:             double d2 = d1 - vol_ * std::sqrt(T);
	.loc 6 64 30
	movq	48(%rbp), %rax	 # this, tmp167
	movsd	40(%rax), %xmm6	 # this_53(D)->vol_, _21
 # E:/Projects/Simulation_Projects/cva_cpp/includes_hpp/instruments/vanilla.hpp:64:             double d2 = d1 - vol_ * std::sqrt(T);
	.loc 6 64 46
	movq	-16(%rbp), %rax	 # T, tmp168
	movq	%rax, %xmm0	 # tmp168,
	call	sqrt	 #
 # E:/Projects/Simulation_Projects/cva_cpp/includes_hpp/instruments/vanilla.hpp:64:             double d2 = d1 - vol_ * std::sqrt(T);
	.loc 6 64 35 discriminator 1
	mulsd	%xmm0, %xmm6	 # _22, _21
	movapd	%xmm6, %xmm1	 # _21, _23
 # E:/Projects/Simulation_Projects/cva_cpp/includes_hpp/instruments/vanilla.hpp:64:             double d2 = d1 - vol_ * std::sqrt(T);
	.loc 6 64 48 discriminator 1
	movsd	-24(%rbp), %xmm0	 # d1, tmp170
	subsd	%xmm1, %xmm0	 # _23, d2_61
	movsd	%xmm0, -32(%rbp)	 # d2_61, d2
 # E:/Projects/Simulation_Projects/cva_cpp/includes_hpp/instruments/vanilla.hpp:66:             double price = 0.0;
	.loc 6 66 20
	pxor	%xmm0, %xmm0	 # tmp171
	movsd	%xmm0, -8(%rbp)	 # tmp171, price
 # E:/Projects/Simulation_Projects/cva_cpp/includes_hpp/instruments/vanilla.hpp:68:             constexpr double inv_sqrt2 = 1 / std::numbers::sqrt2; 
	.loc 6 68 30
	movsd	.LC1(%rip), %xmm0	 #, tmp172
	movsd	%xmm0, -40(%rbp)	 # tmp172, inv_sqrt2
.LBB31:
 # E:/Projects/Simulation_Projects/cva_cpp/includes_hpp/instruments/vanilla.hpp:70:             if (type_ == OptionType::Call) {
	.loc 6 70 17
	movq	48(%rbp), %rax	 # this, tmp173
	movl	8(%rax), %eax	 # this_53(D)->type_, _24
 # E:/Projects/Simulation_Projects/cva_cpp/includes_hpp/instruments/vanilla.hpp:70:             if (type_ == OptionType::Call) {
	.loc 6 70 13
	testl	%eax, %eax	 # _24
	jne	.L35	 #,
.LBB32:
 # E:/Projects/Simulation_Projects/cva_cpp/includes_hpp/instruments/vanilla.hpp:74:                 auto cdf = [inv_sqrt2](double x) { return 0.5 * std::erfc(-x * inv_sqrt2); };
	.loc 6 74 22
	movsd	.LC1(%rip), %xmm0	 #, tmp174
	movsd	%xmm0, -64(%rbp)	 # tmp174, cdf.__inv_sqrt2
 # E:/Projects/Simulation_Projects/cva_cpp/includes_hpp/instruments/vanilla.hpp:75:                 price = spot * cdf(d1) - strike_ * std::exp(-r_ * T) * cdf(d2);
	.loc 6 75 35
	movsd	-24(%rbp), %xmm0	 # d1, tmp175
	leaq	-64(%rbp), %rax	 #, tmp176
	movapd	%xmm0, %xmm1	 # tmp175,
	movq	%rax, %rcx	 # tmp176,
	call	_ZZNK3cva11instruments14EuropeanOption5valueEddENKUldE_clEd	 #
	movq	%xmm0, %rax	 #, _25
 # E:/Projects/Simulation_Projects/cva_cpp/includes_hpp/instruments/vanilla.hpp:75:                 price = spot * cdf(d1) - strike_ * std::exp(-r_ * T) * cdf(d2);
	.loc 6 75 30 discriminator 1
	movq	%rax, %xmm6	 # _25, _25
	mulsd	56(%rbp), %xmm6	 # spot, _25
 # E:/Projects/Simulation_Projects/cva_cpp/includes_hpp/instruments/vanilla.hpp:75:                 price = spot * cdf(d1) - strike_ * std::exp(-r_ * T) * cdf(d2);
	.loc 6 75 42 discriminator 1
	movq	48(%rbp), %rax	 # this, tmp177
	movsd	16(%rax), %xmm7	 # this_53(D)->strike_, _27
 # E:/Projects/Simulation_Projects/cva_cpp/includes_hpp/instruments/vanilla.hpp:75:                 price = spot * cdf(d1) - strike_ * std::exp(-r_ * T) * cdf(d2);
	.loc 6 75 62 discriminator 1
	movq	48(%rbp), %rax	 # this, tmp178
	movsd	32(%rax), %xmm0	 # this_53(D)->r_, _28
 # E:/Projects/Simulation_Projects/cva_cpp/includes_hpp/instruments/vanilla.hpp:75:                 price = spot * cdf(d1) - strike_ * std::exp(-r_ * T) * cdf(d2);
	.loc 6 75 61 discriminator 1
	movq	.LC0(%rip), %xmm1	 #, tmp179
	xorpd	%xmm1, %xmm0	 # tmp179, _29
 # E:/Projects/Simulation_Projects/cva_cpp/includes_hpp/instruments/vanilla.hpp:75:                 price = spot * cdf(d1) - strike_ * std::exp(-r_ * T) * cdf(d2);
	.loc 6 75 60 discriminator 1
	mulsd	-16(%rbp), %xmm0	 # T, _29
	movq	%xmm0, %rax	 # _29, _30
	movq	%rax, %xmm0	 # _30,
	call	exp	 #
 # E:/Projects/Simulation_Projects/cva_cpp/includes_hpp/instruments/vanilla.hpp:75:                 price = spot * cdf(d1) - strike_ * std::exp(-r_ * T) * cdf(d2);
	.loc 6 75 50 discriminator 2
	mulsd	%xmm0, %xmm7	 # _31, _32
 # E:/Projects/Simulation_Projects/cva_cpp/includes_hpp/instruments/vanilla.hpp:75:                 price = spot * cdf(d1) - strike_ * std::exp(-r_ * T) * cdf(d2);
	.loc 6 75 75 discriminator 2
	movsd	-32(%rbp), %xmm0	 # d2, tmp180
	leaq	-64(%rbp), %rax	 #, tmp181
	movapd	%xmm0, %xmm1	 # tmp180,
	movq	%rax, %rcx	 # tmp181,
	call	_ZZNK3cva11instruments14EuropeanOption5valueEddENKUldE_clEd	 #
 # E:/Projects/Simulation_Projects/cva_cpp/includes_hpp/instruments/vanilla.hpp:75:                 price = spot * cdf(d1) - strike_ * std::exp(-r_ * T) * cdf(d2);
	.loc 6 75 70 discriminator 3
	mulsd	%xmm0, %xmm7	 # _33, _32
	movapd	%xmm7, %xmm1	 # _32, _34
 # E:/Projects/Simulation_Projects/cva_cpp/includes_hpp/instruments/vanilla.hpp:75:                 price = spot * cdf(d1) - strike_ * std::exp(-r_ * T) * cdf(d2);
	.loc 6 75 23 discriminator 3
	subsd	%xmm1, %xmm6	 # _34, _26
	movapd	%xmm6, %xmm0	 # _26, price_74
	movsd	%xmm0, -8(%rbp)	 # price_74, price
.LBE32:
	jmp	.L36	 #
.L35:
.LBB33:
 # E:/Projects/Simulation_Projects/cva_cpp/includes_hpp/instruments/vanilla.hpp:77:                  auto cdf = [inv_sqrt2](double x) { return 0.5 * std::erfc(-x * inv_sqrt2); };
	.loc 6 77 23
	movsd	.LC1(%rip), %xmm0	 #, tmp183
	movsd	%xmm0, -72(%rbp)	 # tmp183, cdf.__inv_sqrt2
 # E:/Projects/Simulation_Projects/cva_cpp/includes_hpp/instruments/vanilla.hpp:78:                  price = strike_ * std::exp(-r_ * T) * cdf(-d2) - spot * cdf(-d1);
	.loc 6 78 26
	movq	48(%rbp), %rax	 # this, tmp184
	movsd	16(%rax), %xmm6	 # this_53(D)->strike_, _35
 # E:/Projects/Simulation_Projects/cva_cpp/includes_hpp/instruments/vanilla.hpp:78:                  price = strike_ * std::exp(-r_ * T) * cdf(-d2) - spot * cdf(-d1);
	.loc 6 78 46
	movq	48(%rbp), %rax	 # this, tmp185
	movsd	32(%rax), %xmm0	 # this_53(D)->r_, _36
 # E:/Projects/Simulation_Projects/cva_cpp/includes_hpp/instruments/vanilla.hpp:78:                  price = strike_ * std::exp(-r_ * T) * cdf(-d2) - spot * cdf(-d1);
	.loc 6 78 45
	movq	.LC0(%rip), %xmm1	 #, tmp186
	xorpd	%xmm1, %xmm0	 # tmp186, _37
 # E:/Projects/Simulation_Projects/cva_cpp/includes_hpp/instruments/vanilla.hpp:78:                  price = strike_ * std::exp(-r_ * T) * cdf(-d2) - spot * cdf(-d1);
	.loc 6 78 44
	mulsd	-16(%rbp), %xmm0	 # T, _37
	movq	%xmm0, %rax	 # _37, _38
	movq	%rax, %xmm0	 # _38,
	call	exp	 #
 # E:/Projects/Simulation_Projects/cva_cpp/includes_hpp/instruments/vanilla.hpp:78:                  price = strike_ * std::exp(-r_ * T) * cdf(-d2) - spot * cdf(-d1);
	.loc 6 78 34 discriminator 1
	mulsd	%xmm0, %xmm6	 # _39, _40
 # E:/Projects/Simulation_Projects/cva_cpp/includes_hpp/instruments/vanilla.hpp:78:                  price = strike_ * std::exp(-r_ * T) * cdf(-d2) - spot * cdf(-d1);
	.loc 6 78 59 discriminator 1
	movsd	-32(%rbp), %xmm0	 # d2, tmp187
	movq	.LC0(%rip), %xmm1	 #, tmp188
	xorpd	%xmm1, %xmm0	 # tmp188, _41
	leaq	-72(%rbp), %rax	 #, tmp189
	movapd	%xmm0, %xmm1	 # _41,
	movq	%rax, %rcx	 # tmp189,
	call	_ZZNK3cva11instruments14EuropeanOption5valueEddENKUldE0_clEd	 #
 # E:/Projects/Simulation_Projects/cva_cpp/includes_hpp/instruments/vanilla.hpp:78:                  price = strike_ * std::exp(-r_ * T) * cdf(-d2) - spot * cdf(-d1);
	.loc 6 78 54 discriminator 2
	mulsd	%xmm0, %xmm6	 # _42, _43
 # E:/Projects/Simulation_Projects/cva_cpp/includes_hpp/instruments/vanilla.hpp:78:                  price = strike_ * std::exp(-r_ * T) * cdf(-d2) - spot * cdf(-d1);
	.loc 6 78 77 discriminator 2
	movsd	-24(%rbp), %xmm0	 # d1, tmp190
	movq	.LC0(%rip), %xmm1	 #, tmp191
	xorpd	%xmm1, %xmm0	 # tmp191, _44
	leaq	-72(%rbp), %rax	 #, tmp192
	movapd	%xmm0, %xmm1	 # _44,
	movq	%rax, %rcx	 # tmp192,
	call	_ZZNK3cva11instruments14EuropeanOption5valueEddENKUldE0_clEd	 #
	movq	%xmm0, %rax	 #, _45
 # E:/Projects/Simulation_Projects/cva_cpp/includes_hpp/instruments/vanilla.hpp:78:                  price = strike_ * std::exp(-r_ * T) * cdf(-d2) - spot * cdf(-d1);
	.loc 6 78 72 discriminator 3
	movq	%rax, %xmm1	 # _45, _45
	mulsd	56(%rbp), %xmm1	 # spot, _45
 # E:/Projects/Simulation_Projects/cva_cpp/includes_hpp/instruments/vanilla.hpp:78:                  price = strike_ * std::exp(-r_ * T) * cdf(-d2) - spot * cdf(-d1);
	.loc 6 78 24 discriminator 3
	subsd	%xmm1, %xmm6	 # _46, _43
	movapd	%xmm6, %xmm0	 # _43, price_68
	movsd	%xmm0, -8(%rbp)	 # price_68, price
.L36:
.LBE33:
.LBE31:
 # E:/Projects/Simulation_Projects/cva_cpp/includes_hpp/instruments/vanilla.hpp:80:             return price;
	.loc 6 80 20
	movsd	-8(%rbp), %xmm0	 # price, _49
.L34:
 # E:/Projects/Simulation_Projects/cva_cpp/includes_hpp/instruments/vanilla.hpp:81:         }
	.loc 6 81 9
	movups	0(%rbp), %xmm6	 #,
	movups	16(%rbp), %xmm7	 #,
	addq	$144, %rsp	 #,
	.cfi_restore 24
	.cfi_restore 23
	popq	%rbp	 #
	.cfi_restore 6
	.cfi_def_cfa 7, -136
	ret	
	.cfi_endproc
.LFE7278:
	.seh_endproc
	.section	.text$_ZN3cva6engine16MonteCarloEngineD1Ev,"x"
	.linkonce discard
	.align 2
	.globl	_ZN3cva6engine16MonteCarloEngineD1Ev
	.def	_ZN3cva6engine16MonteCarloEngineD1Ev;	.scl	2;	.type	32;	.endef
	.seh_proc	_ZN3cva6engine16MonteCarloEngineD1Ev
_ZN3cva6engine16MonteCarloEngineD1Ev:
.LFB7731:
	.loc 4 14 11
	.cfi_startproc
	pushq	%rbp	 #
	.seh_pushreg	%rbp
	.cfi_def_cfa_offset 16
	.cfi_offset 6, -16
	movq	%rsp, %rbp	 #,
	.seh_setframe	%rbp, 0
	.cfi_def_cfa_register 6
	subq	$32, %rsp	 #,
	.seh_stackalloc	32
	.seh_endprologue
	movq	%rcx, 16(%rbp)	 # this, this
.LBB34:
 # E:/Projects/Simulation_Projects/cva_cpp/includes_hpp/engine/monte_carlo.hpp:14:     class MonteCarloEngine {
	.loc 4 14 11
	movq	16(%rbp), %rax	 # this, tmp99
	addq	$24, %rax	 #, _1
	movq	%rax, %rcx	 # _1,
	call	_ZNSt6vectorIdSaIdEED1Ev	 #
.LBE34:
	nop	
	addq	$32, %rsp	 #,
	popq	%rbp	 #
	.cfi_restore 6
	.cfi_def_cfa 7, 8
	ret	
	.cfi_endproc
.LFE7731:
	.seh_endproc
	.section	.text$_ZN3cva4math6MatrixD1Ev,"x"
	.linkonce discard
	.align 2
	.globl	_ZN3cva4math6MatrixD1Ev
	.def	_ZN3cva4math6MatrixD1Ev;	.scl	2;	.type	32;	.endef
	.seh_proc	_ZN3cva4math6MatrixD1Ev
_ZN3cva4math6MatrixD1Ev:
.LFB7734:
	.file 7 "E:/Projects/Simulation_Projects/cva_cpp/includes_hpp/math/matrix.hpp"
	.loc 7 13 11
	.cfi_startproc
	pushq	%rbp	 #
	.seh_pushreg	%rbp
	.cfi_def_cfa_offset 16
	.cfi_offset 6, -16
	movq	%rsp, %rbp	 #,
	.seh_setframe	%rbp, 0
	.cfi_def_cfa_register 6
	subq	$32, %rsp	 #,
	.seh_stackalloc	32
	.seh_endprologue
	movq	%rcx, 16(%rbp)	 # this, this
.LBB35:
 # E:/Projects/Simulation_Projects/cva_cpp/includes_hpp/math/matrix.hpp:13:     class Matrix {
	.loc 7 13 11
	movq	16(%rbp), %rax	 # this, tmp99
	addq	$16, %rax	 #, _1
	movq	%rax, %rcx	 # _1,
	call	_ZNSt6vectorIdSaIdEED1Ev	 #
.LBE35:
	nop	
	addq	$32, %rsp	 #,
	popq	%rbp	 #
	.cfi_restore 6
	.cfi_def_cfa 7, 8
	ret	
	.cfi_endproc
.LFE7734:
	.seh_endproc
	.section	.text$_ZNSt6chronomiINS_3_V212system_clockENS_8durationIxSt5ratioILx1ELx1000000000EEEES6_EENSt11common_typeIJT0_T1_EE4typeERKNS_10time_pointIT_S8_EERKNSC_ISD_S9_EE,"x"
	.linkonce discard
	.globl	_ZNSt6chronomiINS_3_V212system_clockENS_8durationIxSt5ratioILx1ELx1000000000EEEES6_EENSt11common_typeIJT0_T1_EE4typeERKNS_10time_pointIT_S8_EERKNSC_ISD_S9_EE
	.def	_ZNSt6chronomiINS_3_V212system_clockENS_8durationIxSt5ratioILx1ELx1000000000EEEES6_EENSt11common_typeIJT0_T1_EE4typeERKNS_10time_pointIT_S8_EERKNSC_ISD_S9_EE;	.scl	2;	.type	32;	.endef
	.seh_proc	_ZNSt6chronomiINS_3_V212system_clockENS_8durationIxSt5ratioILx1ELx1000000000EEEES6_EENSt11common_typeIJT0_T1_EE4typeERKNS_10time_pointIT_S8_EERKNSC_ISD_S9_EE
_ZNSt6chronomiINS_3_V212system_clockENS_8durationIxSt5ratioILx1ELx1000000000EEEES6_EENSt11common_typeIJT0_T1_EE4typeERKNS_10time_pointIT_S8_EERKNSC_ISD_S9_EE:
.LFB7736:
	.loc 3 1145 7
	.cfi_startproc
	pushq	%rbp	 #
	.seh_pushreg	%rbp
	.cfi_def_cfa_offset 16
	.cfi_offset 6, -16
	movq	%rsp, %rbp	 #,
	.seh_setframe	%rbp, 0
	.cfi_def_cfa_register 6
	subq	$48, %rsp	 #,
	.seh_stackalloc	48
	.seh_endprologue
	movq	%rcx, 16(%rbp)	 # __lhs, __lhs
	movq	%rdx, 24(%rbp)	 # __rhs, __rhs
 # D:/msys64/ucrt64/include/c++/15.2.0/bits/chrono.h:1147:       { return __lhs.time_since_epoch() - __rhs.time_since_epoch(); }
	.loc 3 1147 65
	movq	24(%rbp), %rax	 # __rhs, tmp100
	movq	%rax, %rcx	 # tmp100,
	call	_ZNKSt6chrono10time_pointINS_3_V212system_clockENS_8durationIxSt5ratioILx1ELx1000000000EEEEE16time_since_epochEv	 #
	movq	%rax, -16(%rbp)	 # tmp102, D.154441
 # D:/msys64/ucrt64/include/c++/15.2.0/bits/chrono.h:1147:       { return __lhs.time_since_epoch() - __rhs.time_since_epoch(); }
	.loc 3 1147 38 discriminator 1
	movq	16(%rbp), %rax	 # __lhs, tmp103
	movq	%rax, %rcx	 # tmp103,
	call	_ZNKSt6chrono10time_pointINS_3_V212system_clockENS_8durationIxSt5ratioILx1ELx1000000000EEEEE16time_since_epochEv	 #
	movq	%rax, -8(%rbp)	 # tmp105, D.154440
 # D:/msys64/ucrt64/include/c++/15.2.0/bits/chrono.h:1147:       { return __lhs.time_since_epoch() - __rhs.time_since_epoch(); }
	.loc 3 1147 41 discriminator 2
	leaq	-16(%rbp), %rdx	 #, tmp106
	leaq	-8(%rbp), %rax	 #, tmp107
	movq	%rax, %rcx	 # tmp107,
	call	_ZNSt6chronomiIxSt5ratioILx1ELx1000000000EExS2_EENSt11common_typeIJNS_8durationIT_T0_EENS4_IT1_T2_EEEE4typeERKS7_RKSA_	 #
 # D:/msys64/ucrt64/include/c++/15.2.0/bits/chrono.h:1147:       { return __lhs.time_since_epoch() - __rhs.time_since_epoch(); }
	.loc 3 1147 69
	addq	$48, %rsp	 #,
	popq	%rbp	 #
	.cfi_restore 6
	.cfi_def_cfa 7, 8
	ret	
	.cfi_endproc
.LFE7736:
	.seh_endproc
	.section	.text$_ZNKSt6chrono10time_pointINS_3_V212system_clockENS_8durationIxSt5ratioILx1ELx1000000000EEEEE16time_since_epochEv,"x"
	.linkonce discard
	.align 2
	.globl	_ZNKSt6chrono10time_pointINS_3_V212system_clockENS_8durationIxSt5ratioILx1ELx1000000000EEEEE16time_since_epochEv
	.def	_ZNKSt6chrono10time_pointINS_3_V212system_clockENS_8durationIxSt5ratioILx1ELx1000000000EEEEE16time_since_epochEv;	.scl	2;	.type	32;	.endef
	.seh_proc	_ZNKSt6chrono10time_pointINS_3_V212system_clockENS_8durationIxSt5ratioILx1ELx1000000000EEEEE16time_since_epochEv
_ZNKSt6chrono10time_pointINS_3_V212system_clockENS_8durationIxSt5ratioILx1ELx1000000000EEEEE16time_since_epochEv:
.LFB7737:
	.loc 3 953 2
	.cfi_startproc
	pushq	%rbp	 #
	.seh_pushreg	%rbp
	.cfi_def_cfa_offset 16
	.cfi_offset 6, -16
	movq	%rsp, %rbp	 #,
	.seh_setframe	%rbp, 0
	.cfi_def_cfa_register 6
	.seh_endprologue
	movq	%rcx, 16(%rbp)	 # this, this
 # D:/msys64/ucrt64/include/c++/15.2.0/bits/chrono.h:954: 	{ return __d; }
	.loc 3 954 11
	movq	16(%rbp), %rax	 # this, tmp100
	movq	(%rax), %rax	 # this_2(D)->__d, D.195090
 # D:/msys64/ucrt64/include/c++/15.2.0/bits/chrono.h:954: 	{ return __d; }
	.loc 3 954 16
	popq	%rbp	 #
	.cfi_restore 6
	.cfi_def_cfa 7, 8
	ret	
	.cfi_endproc
.LFE7737:
	.seh_endproc
	.section	.text$_ZN3cva11instruments14EuropeanOptionD1Ev,"x"
	.linkonce discard
	.align 2
	.globl	_ZN3cva11instruments14EuropeanOptionD1Ev
	.def	_ZN3cva11instruments14EuropeanOptionD1Ev;	.scl	2;	.type	32;	.endef
	.seh_proc	_ZN3cva11instruments14EuropeanOptionD1Ev
_ZN3cva11instruments14EuropeanOptionD1Ev:
.LFB7740:
	.loc 6 13 11
	.cfi_startproc
	pushq	%rbp	 #
	.seh_pushreg	%rbp
	.cfi_def_cfa_offset 16
	.cfi_offset 6, -16
	movq	%rsp, %rbp	 #,
	.seh_setframe	%rbp, 0
	.cfi_def_cfa_register 6
	subq	$32, %rsp	 #,
	.seh_stackalloc	32
	.seh_endprologue
	movq	%rcx, 16(%rbp)	 # this, this
.LBB36:
 # E:/Projects/Simulation_Projects/cva_cpp/includes_hpp/instruments/vanilla.hpp:13:     class EuropeanOption : public Instrument {
	.loc 6 13 11
	leaq	16+_ZTVN3cva11instruments14EuropeanOptionE(%rip), %rdx	 #, _1
	movq	16(%rbp), %rax	 # this, tmp100
	movq	%rdx, (%rax)	 # _1, this_4(D)->D.148492._vptr.Instrument
	movq	16(%rbp), %rax	 # this, _2
	movq	%rax, %rcx	 # _2,
	call	_ZN3cva11instruments10InstrumentD2Ev	 #
.LBE36:
	nop	
	addq	$32, %rsp	 #,
	popq	%rbp	 #
	.cfi_restore 6
	.cfi_def_cfa 7, 8
	ret	
	.cfi_endproc
.LFE7740:
	.seh_endproc
	.section	.text$_ZN3cva11instruments14EuropeanOptionD0Ev,"x"
	.linkonce discard
	.align 2
	.globl	_ZN3cva11instruments14EuropeanOptionD0Ev
	.def	_ZN3cva11instruments14EuropeanOptionD0Ev;	.scl	2;	.type	32;	.endef
	.seh_proc	_ZN3cva11instruments14EuropeanOptionD0Ev
_ZN3cva11instruments14EuropeanOptionD0Ev:
.LFB7741:
	.loc 6 13 11
	.cfi_startproc
	pushq	%rbp	 #
	.seh_pushreg	%rbp
	.cfi_def_cfa_offset 16
	.cfi_offset 6, -16
	movq	%rsp, %rbp	 #,
	.seh_setframe	%rbp, 0
	.cfi_def_cfa_register 6
	subq	$32, %rsp	 #,
	.seh_stackalloc	32
	.seh_endprologue
	movq	%rcx, 16(%rbp)	 # this, this
 # E:/Projects/Simulation_Projects/cva_cpp/includes_hpp/instruments/vanilla.hpp:13:     class EuropeanOption : public Instrument {
	.loc 6 13 11
	movq	16(%rbp), %rax	 # this, tmp98
	movq	%rax, %rcx	 # tmp98,
	call	_ZN3cva11instruments14EuropeanOptionD1Ev	 #
 # E:/Projects/Simulation_Projects/cva_cpp/includes_hpp/instruments/vanilla.hpp:13:     class EuropeanOption : public Instrument {
	.loc 6 13 11 is_stmt 0 discriminator 1
	movq	16(%rbp), %rax	 # this, tmp99
	movl	$48, %edx	 #,
	movq	%rax, %rcx	 # tmp99,
	call	_ZdlPvy	 #
	nop	
 # E:/Projects/Simulation_Projects/cva_cpp/includes_hpp/instruments/vanilla.hpp:13:     class EuropeanOption : public Instrument {
	.loc 6 13 11
	addq	$32, %rsp	 #,
	popq	%rbp	 #
	.cfi_restore 6
	.cfi_def_cfa 7, 8
	ret	
	.cfi_endproc
.LFE7741:
	.seh_endproc
	.section	.text$_ZN3cva15ExposureProfileD1Ev,"x"
	.linkonce discard
	.align 2
	.globl	_ZN3cva15ExposureProfileD1Ev
	.def	_ZN3cva15ExposureProfileD1Ev;	.scl	2;	.type	32;	.endef
	.seh_proc	_ZN3cva15ExposureProfileD1Ev
_ZN3cva15ExposureProfileD1Ev:
.LFB7744:
	.file 8 "E:/Projects/Simulation_Projects/cva_cpp/includes_hpp/cva/cva_calculator.hpp"
	.loc 8 13 12 is_stmt 1
	.cfi_startproc
	pushq	%rbp	 #
	.seh_pushreg	%rbp
	.cfi_def_cfa_offset 16
	.cfi_offset 6, -16
	movq	%rsp, %rbp	 #,
	.seh_setframe	%rbp, 0
	.cfi_def_cfa_register 6
	subq	$32, %rsp	 #,
	.seh_stackalloc	32
	.seh_endprologue
	movq	%rcx, 16(%rbp)	 # this, this
.LBB37:
 # E:/Projects/Simulation_Projects/cva_cpp/includes_hpp/cva/cva_calculator.hpp:13:     struct ExposureProfile {
	.loc 8 13 12
	movq	16(%rbp), %rax	 # this, tmp101
	addq	$48, %rax	 #, _1
	movq	%rax, %rcx	 # _1,
	call	_ZNSt6vectorIdSaIdEED1Ev	 #
 # E:/Projects/Simulation_Projects/cva_cpp/includes_hpp/cva/cva_calculator.hpp:13:     struct ExposureProfile {
	.loc 8 13 12 is_stmt 0 discriminator 1
	movq	16(%rbp), %rax	 # this, tmp102
	addq	$24, %rax	 #, _2
	movq	%rax, %rcx	 # _2,
	call	_ZNSt6vectorIdSaIdEED1Ev	 #
 # E:/Projects/Simulation_Projects/cva_cpp/includes_hpp/cva/cva_calculator.hpp:13:     struct ExposureProfile {
	.loc 8 13 12 discriminator 2
	movq	16(%rbp), %rax	 # this, _3
	movq	%rax, %rcx	 # _3,
	call	_ZNSt6vectorIdSaIdEED1Ev	 #
.LBE37:
 # E:/Projects/Simulation_Projects/cva_cpp/includes_hpp/cva/cva_calculator.hpp:13:     struct ExposureProfile {
	.loc 8 13 12
	nop	
	addq	$32, %rsp	 #,
	popq	%rbp	 #
	.cfi_restore 6
	.cfi_def_cfa 7, 8
	ret	
	.cfi_endproc
.LFE7744:
	.seh_endproc
	.section .rdata,"dr"
	.align 8
.LC4:
	.ascii "===========================================\0"
	.align 8
.LC5:
	.ascii "   CVA Monte Carlo Simulation (C++20)      \0"
.LC12:
	.ascii "Parameters:\0"
.LC13:
	.ascii "  Paths: \0"
.LC14:
	.ascii "  Steps: \0"
.LC15:
	.ascii "  Spot: \0"
.LC16:
	.ascii "  Vol: \0"
.LC17:
	.ascii "  Hazard Rate: \0"
	.align 8
.LC18:
	.ascii "\12[1] Initializing Monte Carlo Engine...\0"
.LC19:
	.ascii "[2] Generating Asset Paths...\0"
.LC20:
	.ascii "    Path generation took: \0"
.LC21:
	.ascii " s\0"
.LC22:
	.ascii "[3] Calculating CVA...\0"
.LC23:
	.ascii "    CVA calculation took: \0"
	.align 8
.LC24:
	.ascii "\12===========================================\0"
.LC25:
	.ascii "Results:\0"
.LC26:
	.ascii "  Calculated CVA: \0"
.LC27:
	.ascii "  Risk-Free Value: \0"
.LC28:
	.ascii "  Risky Value:     \0"
	.text
	.globl	main
	.def	main;	.scl	2;	.type	32;	.endef
	.seh_proc	main
main:
.LFB7728:
	.file 9 "E:/Projects/Simulation_Projects/cva_cpp/main.cpp"
	.loc 9 9 12 is_stmt 1
	.cfi_startproc
	pushq	%rbp	 #
	.seh_pushreg	%rbp
	.cfi_def_cfa_offset 16
	.cfi_offset 6, -16
	pushq	%rbx	 #
	.seh_pushreg	%rbx
	.cfi_def_cfa_offset 24
	.cfi_offset 3, -24
	subq	$2984, %rsp	 #,
	.seh_stackalloc	2984
	.cfi_def_cfa_offset 3008
	leaq	128(%rsp), %rbp	 #,
	.seh_setframe	%rbp, 128
	.cfi_def_cfa 6, 2880
	.seh_endprologue
 # E:\Projects\Simulation_Projects\cva_cpp\main.cpp:9: int main() {
	.loc 9 9 12
	call	__main	 #
 # E:\Projects\Simulation_Projects\cva_cpp\main.cpp:12:     std::cout << "===========================================" << std::endl;
	.loc 9 12 18
	leaq	.LC4(%rip), %rdx	 #, tmp143
	movq	.refptr._ZSt4cout(%rip), %rax	 #, tmp144
	movq	%rax, %rcx	 # tmp144,
.LEHB0:
	call	_ZStlsISt11char_traitsIcEERSt13basic_ostreamIcT_ES5_PKc	 #
	movq	%rax, %rcx	 #, _1
 # E:\Projects\Simulation_Projects\cva_cpp\main.cpp:12:     std::cout << "===========================================" << std::endl;
	.loc 9 12 72 discriminator 2
	movq	.refptr._ZSt4endlIcSt11char_traitsIcEERSt13basic_ostreamIT_T0_ES6_(%rip), %rax	 #, tmp145
	movq	%rax, %rdx	 # tmp145,
	call	_ZNSolsEPFRSoS_E	 #
 # E:\Projects\Simulation_Projects\cva_cpp\main.cpp:13:     std::cout << "   CVA Monte Carlo Simulation (C++20)      " << std::endl;
	.loc 9 13 18
	leaq	.LC5(%rip), %rdx	 #, tmp146
	movq	.refptr._ZSt4cout(%rip), %rax	 #, tmp147
	movq	%rax, %rcx	 # tmp147,
	call	_ZStlsISt11char_traitsIcEERSt13basic_ostreamIcT_ES5_PKc	 #
	movq	%rax, %rcx	 #, _2
 # E:\Projects\Simulation_Projects\cva_cpp\main.cpp:13:     std::cout << "   CVA Monte Carlo Simulation (C++20)      " << std::endl;
	.loc 9 13 72 discriminator 2
	movq	.refptr._ZSt4endlIcSt11char_traitsIcEERSt13basic_ostreamIT_T0_ES6_(%rip), %rax	 #, tmp148
	movq	%rax, %rdx	 # tmp148,
	call	_ZNSolsEPFRSoS_E	 #
 # E:\Projects\Simulation_Projects\cva_cpp\main.cpp:14:     std::cout << "===========================================" << std::endl;
	.loc 9 14 18
	leaq	.LC4(%rip), %rdx	 #, tmp149
	movq	.refptr._ZSt4cout(%rip), %rax	 #, tmp150
	movq	%rax, %rcx	 # tmp150,
	call	_ZStlsISt11char_traitsIcEERSt13basic_ostreamIcT_ES5_PKc	 #
	movq	%rax, %rcx	 #, _3
 # E:\Projects\Simulation_Projects\cva_cpp\main.cpp:14:     std::cout << "===========================================" << std::endl;
	.loc 9 14 72 discriminator 2
	movq	.refptr._ZSt4endlIcSt11char_traitsIcEERSt13basic_ostreamIT_T0_ES6_(%rip), %rax	 #, tmp151
	movq	%rax, %rdx	 # tmp151,
	call	_ZNSolsEPFRSoS_E	 #
 # E:\Projects\Simulation_Projects\cva_cpp\main.cpp:17:     unsigned long seed = 12345;
	.loc 9 17 19
	movl	$12345, 2844(%rbp)	 #, seed
 # E:\Projects\Simulation_Projects\cva_cpp\main.cpp:18:     size_t num_paths = 10000;
	.loc 9 18 12
	movq	$10000, 2832(%rbp)	 #, num_paths
 # E:\Projects\Simulation_Projects\cva_cpp\main.cpp:19:     size_t num_steps = 100;
	.loc 9 19 12
	movq	$100, 2824(%rbp)	 #, num_steps
 # E:\Projects\Simulation_Projects\cva_cpp\main.cpp:20:     double T = 1.0; // 1 year horizon
	.loc 9 20 12
	movsd	.LC6(%rip), %xmm0	 #, tmp152
	movsd	%xmm0, 2816(%rbp)	 # tmp152, T
 # E:\Projects\Simulation_Projects\cva_cpp\main.cpp:23:     double s0 = 100.0;     // Spot Price
	.loc 9 23 12
	movsd	.LC7(%rip), %xmm0	 #, tmp153
	movsd	%xmm0, 2808(%rbp)	 # tmp153, s0
 # E:\Projects\Simulation_Projects\cva_cpp\main.cpp:24:     double r = 0.05;       // Risk free rate (5%)
	.loc 9 24 12
	movsd	.LC8(%rip), %xmm0	 #, tmp154
	movsd	%xmm0, 2800(%rbp)	 # tmp154, r
 # E:\Projects\Simulation_Projects\cva_cpp\main.cpp:25:     double sigma = 0.2;    // Volatility (20%)
	.loc 9 25 12
	movsd	.LC9(%rip), %xmm0	 #, tmp155
	movsd	%xmm0, 2792(%rbp)	 # tmp155, sigma
 # E:\Projects\Simulation_Projects\cva_cpp\main.cpp:28:     double hazard_rate = 0.02; // A default intensity of 2%
	.loc 9 28 12
	movsd	.LC10(%rip), %xmm0	 #, tmp156
	movsd	%xmm0, 2784(%rbp)	 # tmp156, hazard_rate
 # E:\Projects\Simulation_Projects\cva_cpp\main.cpp:29:     double recovery_rate = 0.4; // 40% recovery
	.loc 9 29 12
	movsd	.LC11(%rip), %xmm0	 #, tmp157
	movsd	%xmm0, 2776(%rbp)	 # tmp157, recovery_rate
 # E:\Projects\Simulation_Projects\cva_cpp\main.cpp:31:     std::cout << "Parameters:" << std::endl;
	.loc 9 31 18
	leaq	.LC12(%rip), %rdx	 #, tmp158
	movq	.refptr._ZSt4cout(%rip), %rax	 #, tmp159
	movq	%rax, %rcx	 # tmp159,
	call	_ZStlsISt11char_traitsIcEERSt13basic_ostreamIcT_ES5_PKc	 #
	movq	%rax, %rcx	 #, _4
 # E:\Projects\Simulation_Projects\cva_cpp\main.cpp:31:     std::cout << "Parameters:" << std::endl;
	.loc 9 31 40 discriminator 2
	movq	.refptr._ZSt4endlIcSt11char_traitsIcEERSt13basic_ostreamIT_T0_ES6_(%rip), %rax	 #, tmp160
	movq	%rax, %rdx	 # tmp160,
	call	_ZNSolsEPFRSoS_E	 #
 # E:\Projects\Simulation_Projects\cva_cpp\main.cpp:32:     std::cout << "  Paths: " << num_paths << std::endl;
	.loc 9 32 18
	leaq	.LC13(%rip), %rdx	 #, tmp161
	movq	.refptr._ZSt4cout(%rip), %rax	 #, tmp162
	movq	%rax, %rcx	 # tmp162,
	call	_ZStlsISt11char_traitsIcEERSt13basic_ostreamIcT_ES5_PKc	 #
	movq	%rax, %rcx	 #, _5
 # E:\Projects\Simulation_Projects\cva_cpp\main.cpp:32:     std::cout << "  Paths: " << num_paths << std::endl;
	.loc 9 32 33 discriminator 2
	movq	2832(%rbp), %rax	 # num_paths, tmp163
	movq	%rax, %rdx	 # tmp163,
	call	_ZNSolsEy	 #
	movq	%rax, %rcx	 #, _6
 # E:\Projects\Simulation_Projects\cva_cpp\main.cpp:32:     std::cout << "  Paths: " << num_paths << std::endl;
	.loc 9 32 51 discriminator 4
	movq	.refptr._ZSt4endlIcSt11char_traitsIcEERSt13basic_ostreamIT_T0_ES6_(%rip), %rax	 #, tmp164
	movq	%rax, %rdx	 # tmp164,
	call	_ZNSolsEPFRSoS_E	 #
 # E:\Projects\Simulation_Projects\cva_cpp\main.cpp:33:     std::cout << "  Steps: " << num_steps << std::endl;
	.loc 9 33 18
	leaq	.LC14(%rip), %rdx	 #, tmp165
	movq	.refptr._ZSt4cout(%rip), %rax	 #, tmp166
	movq	%rax, %rcx	 # tmp166,
	call	_ZStlsISt11char_traitsIcEERSt13basic_ostreamIcT_ES5_PKc	 #
	movq	%rax, %rcx	 #, _7
 # E:\Projects\Simulation_Projects\cva_cpp\main.cpp:33:     std::cout << "  Steps: " << num_steps << std::endl;
	.loc 9 33 33 discriminator 2
	movq	2824(%rbp), %rax	 # num_steps, tmp167
	movq	%rax, %rdx	 # tmp167,
	call	_ZNSolsEy	 #
	movq	%rax, %rcx	 #, _8
 # E:\Projects\Simulation_Projects\cva_cpp\main.cpp:33:     std::cout << "  Steps: " << num_steps << std::endl;
	.loc 9 33 51 discriminator 4
	movq	.refptr._ZSt4endlIcSt11char_traitsIcEERSt13basic_ostreamIT_T0_ES6_(%rip), %rax	 #, tmp168
	movq	%rax, %rdx	 # tmp168,
	call	_ZNSolsEPFRSoS_E	 #
 # E:\Projects\Simulation_Projects\cva_cpp\main.cpp:34:     std::cout << "  Spot: " << s0 << std::endl;
	.loc 9 34 18
	leaq	.LC15(%rip), %rdx	 #, tmp169
	movq	.refptr._ZSt4cout(%rip), %rax	 #, tmp170
	movq	%rax, %rcx	 # tmp170,
	call	_ZStlsISt11char_traitsIcEERSt13basic_ostreamIcT_ES5_PKc	 #
 # E:\Projects\Simulation_Projects\cva_cpp\main.cpp:34:     std::cout << "  Spot: " << s0 << std::endl;
	.loc 9 34 32 discriminator 2
	movsd	2808(%rbp), %xmm0	 # s0, tmp171
	movapd	%xmm0, %xmm1	 # tmp171,
	movq	%rax, %rcx	 # _9,
	call	_ZNSolsEd	 #
	movq	%rax, %rcx	 #, _10
 # E:\Projects\Simulation_Projects\cva_cpp\main.cpp:34:     std::cout << "  Spot: " << s0 << std::endl;
	.loc 9 34 43 discriminator 4
	movq	.refptr._ZSt4endlIcSt11char_traitsIcEERSt13basic_ostreamIT_T0_ES6_(%rip), %rax	 #, tmp172
	movq	%rax, %rdx	 # tmp172,
	call	_ZNSolsEPFRSoS_E	 #
 # E:\Projects\Simulation_Projects\cva_cpp\main.cpp:35:     std::cout << "  Vol: " << sigma << std::endl;
	.loc 9 35 18
	leaq	.LC16(%rip), %rdx	 #, tmp173
	movq	.refptr._ZSt4cout(%rip), %rax	 #, tmp174
	movq	%rax, %rcx	 # tmp174,
	call	_ZStlsISt11char_traitsIcEERSt13basic_ostreamIcT_ES5_PKc	 #
 # E:\Projects\Simulation_Projects\cva_cpp\main.cpp:35:     std::cout << "  Vol: " << sigma << std::endl;
	.loc 9 35 31 discriminator 2
	movsd	2792(%rbp), %xmm0	 # sigma, tmp175
	movapd	%xmm0, %xmm1	 # tmp175,
	movq	%rax, %rcx	 # _11,
	call	_ZNSolsEd	 #
	movq	%rax, %rcx	 #, _12
 # E:\Projects\Simulation_Projects\cva_cpp\main.cpp:35:     std::cout << "  Vol: " << sigma << std::endl;
	.loc 9 35 45 discriminator 4
	movq	.refptr._ZSt4endlIcSt11char_traitsIcEERSt13basic_ostreamIT_T0_ES6_(%rip), %rax	 #, tmp176
	movq	%rax, %rdx	 # tmp176,
	call	_ZNSolsEPFRSoS_E	 #
 # E:\Projects\Simulation_Projects\cva_cpp\main.cpp:36:     std::cout << "  Hazard Rate: " << hazard_rate << std::endl;
	.loc 9 36 18
	leaq	.LC17(%rip), %rdx	 #, tmp177
	movq	.refptr._ZSt4cout(%rip), %rax	 #, tmp178
	movq	%rax, %rcx	 # tmp178,
	call	_ZStlsISt11char_traitsIcEERSt13basic_ostreamIcT_ES5_PKc	 #
 # E:\Projects\Simulation_Projects\cva_cpp\main.cpp:36:     std::cout << "  Hazard Rate: " << hazard_rate << std::endl;
	.loc 9 36 39 discriminator 2
	movsd	2784(%rbp), %xmm0	 # hazard_rate, tmp179
	movapd	%xmm0, %xmm1	 # tmp179,
	movq	%rax, %rcx	 # _13,
	call	_ZNSolsEd	 #
	movq	%rax, %rcx	 #, _14
 # E:\Projects\Simulation_Projects\cva_cpp\main.cpp:36:     std::cout << "  Hazard Rate: " << hazard_rate << std::endl;
	.loc 9 36 59 discriminator 4
	movq	.refptr._ZSt4endlIcSt11char_traitsIcEERSt13basic_ostreamIT_T0_ES6_(%rip), %rax	 #, tmp180
	movq	%rax, %rdx	 # tmp180,
	call	_ZNSolsEPFRSoS_E	 #
 # E:\Projects\Simulation_Projects\cva_cpp\main.cpp:39:     std::cout << "\n[1] Initializing Monte Carlo Engine..." << std::endl;
	.loc 9 39 18
	leaq	.LC18(%rip), %rdx	 #, tmp181
	movq	.refptr._ZSt4cout(%rip), %rax	 #, tmp182
	movq	%rax, %rcx	 # tmp182,
	call	_ZStlsISt11char_traitsIcEERSt13basic_ostreamIcT_ES5_PKc	 #
	movq	%rax, %rcx	 #, _15
 # E:\Projects\Simulation_Projects\cva_cpp\main.cpp:39:     std::cout << "\n[1] Initializing Monte Carlo Engine..." << std::endl;
	.loc 9 39 69 discriminator 2
	movq	.refptr._ZSt4endlIcSt11char_traitsIcEERSt13basic_ostreamIT_T0_ES6_(%rip), %rax	 #, tmp183
	movq	%rax, %rdx	 # tmp183,
	call	_ZNSolsEPFRSoS_E	 #
 # E:\Projects\Simulation_Projects\cva_cpp\main.cpp:40:     engine::MonteCarloEngine mc_engine(seed, num_paths, num_steps, T);
	.loc 9 40 69
	movq	2824(%rbp), %r8	 # num_steps, tmp184
	movq	2832(%rbp), %rcx	 # num_paths, tmp185
	movl	2844(%rbp), %edx	 # seed, tmp186
	leaq	160(%rbp), %rax	 #, tmp187
	movsd	2816(%rbp), %xmm0	 # T, tmp188
	movsd	%xmm0, 32(%rsp)	 # tmp188,
	movq	%r8, %r9	 # tmp184,
	movq	%rcx, %r8	 # tmp185,
	movq	%rax, %rcx	 # tmp187,
	call	_ZN3cva6engine16MonteCarloEngineC1Emyyd	 #
.LEHE0:
 # E:\Projects\Simulation_Projects\cva_cpp\main.cpp:43:     std::cout << "[2] Generating Asset Paths..." << std::endl;
	.loc 9 43 18
	leaq	.LC19(%rip), %rdx	 #, tmp189
	movq	.refptr._ZSt4cout(%rip), %rax	 #, tmp190
	movq	%rax, %rcx	 # tmp190,
.LEHB1:
	call	_ZStlsISt11char_traitsIcEERSt13basic_ostreamIcT_ES5_PKc	 #
	movq	%rax, %rcx	 #, _16
 # E:\Projects\Simulation_Projects\cva_cpp\main.cpp:43:     std::cout << "[2] Generating Asset Paths..." << std::endl;
	.loc 9 43 58 discriminator 2
	movq	.refptr._ZSt4endlIcSt11char_traitsIcEERSt13basic_ostreamIT_T0_ES6_(%rip), %rax	 #, tmp191
	movq	%rax, %rdx	 # tmp191,
	call	_ZNSolsEPFRSoS_E	 #
 # E:\Projects\Simulation_Projects\cva_cpp\main.cpp:44:     auto start_mc = std::chrono::high_resolution_clock::now();
	.loc 9 44 60
	call	_ZNSt6chrono3_V212system_clock3nowEv	 #
	movq	%rax, 152(%rbp)	 # tmp193, start_mc
 # E:\Projects\Simulation_Projects\cva_cpp\main.cpp:45:     math::Matrix paths = mc_engine.run_simulation(s0, r, sigma);
	.loc 9 45 63
	leaq	112(%rbp), %rax	 #, tmp194
	movsd	2800(%rbp), %xmm2	 # r, tmp195
	movsd	2808(%rbp), %xmm1	 # s0, tmp196
	leaq	160(%rbp), %rdx	 #, tmp197
	movsd	2792(%rbp), %xmm0	 # sigma, tmp198
	movsd	%xmm0, 32(%rsp)	 # tmp198,
	movapd	%xmm2, %xmm3	 # tmp195,
	movapd	%xmm1, %xmm2	 # tmp196,
	movq	%rax, %rcx	 # tmp194,
	call	_ZN3cva6engine16MonteCarloEngine14run_simulationEddd	 #
.LEHE1:
 # E:\Projects\Simulation_Projects\cva_cpp\main.cpp:46:     auto end_mc = std::chrono::high_resolution_clock::now();
	.loc 9 46 58
	call	_ZNSt6chrono3_V212system_clock3nowEv	 #
	movq	%rax, 104(%rbp)	 # tmp200, end_mc
 # E:\Projects\Simulation_Projects\cva_cpp\main.cpp:47:     std::chrono::duration<double> diff_mc = end_mc - start_mc;
	.loc 9 47 54
	leaq	152(%rbp), %rdx	 #, tmp201
	leaq	104(%rbp), %rax	 #, tmp202
	movq	%rax, %rcx	 # tmp202,
	call	_ZNSt6chronomiINS_3_V212system_clockENS_8durationIxSt5ratioILx1ELx1000000000EEEES6_EENSt11common_typeIJT0_T1_EE4typeERKNS_10time_pointIT_S8_EERKNSC_ISD_S9_EE	 #
	movq	%rax, 2752(%rbp)	 # tmp204, D.154391
 # E:\Projects\Simulation_Projects\cva_cpp\main.cpp:47:     std::chrono::duration<double> diff_mc = end_mc - start_mc;
	.loc 9 47 54 is_stmt 0 discriminator 3
	leaq	2752(%rbp), %rdx	 #, tmp205
	leaq	96(%rbp), %rax	 #, tmp206
	movq	%rax, %rcx	 # tmp206,
.LEHB2:
	call	_ZNSt6chrono8durationIdSt5ratioILx1ELx1EEEC1IxS1_ILx1ELx1000000000EEvEERKNS0_IT_T0_EE	 #
 # E:\Projects\Simulation_Projects\cva_cpp\main.cpp:48:     std::cout << "    Path generation took: " << diff_mc.count() << " s" << std::endl;
	.loc 9 48 18 is_stmt 1
	leaq	.LC20(%rip), %rdx	 #, tmp207
	movq	.refptr._ZSt4cout(%rip), %rax	 #, tmp208
	movq	%rax, %rcx	 # tmp208,
	call	_ZStlsISt11char_traitsIcEERSt13basic_ostreamIcT_ES5_PKc	 #
	movq	%rax, %rbx	 #, _17
 # E:\Projects\Simulation_Projects\cva_cpp\main.cpp:48:     std::cout << "    Path generation took: " << diff_mc.count() << " s" << std::endl;
	.loc 9 48 64 discriminator 2
	leaq	96(%rbp), %rax	 #, tmp209
	movq	%rax, %rcx	 # tmp209,
	call	_ZNKSt6chrono8durationIdSt5ratioILx1ELx1EEE5countEv	 #
	movq	%xmm0, %rax	 #, _18
 # E:\Projects\Simulation_Projects\cva_cpp\main.cpp:48:     std::cout << "    Path generation took: " << diff_mc.count() << " s" << std::endl;
	.loc 9 48 64 is_stmt 0 discriminator 3
	movq	%rax, %xmm1	 # _18,
	movq	%rbx, %rcx	 # _17,
	call	_ZNSolsEd	 #
	movq	%rax, %rcx	 #, _19
 # E:\Projects\Simulation_Projects\cva_cpp\main.cpp:48:     std::cout << "    Path generation took: " << diff_mc.count() << " s" << std::endl;
	.loc 9 48 69 is_stmt 1 discriminator 5
	leaq	.LC21(%rip), %rax	 #, tmp210
	movq	%rax, %rdx	 # tmp210,
	call	_ZStlsISt11char_traitsIcEERSt13basic_ostreamIcT_ES5_PKc	 #
	movq	%rax, %rcx	 #, _20
 # E:\Projects\Simulation_Projects\cva_cpp\main.cpp:48:     std::cout << "    Path generation took: " << diff_mc.count() << " s" << std::endl;
	.loc 9 48 82 discriminator 7
	movq	.refptr._ZSt4endlIcSt11char_traitsIcEERSt13basic_ostreamIT_T0_ES6_(%rip), %rax	 #, tmp211
	movq	%rax, %rdx	 # tmp211,
	call	_ZNSolsEPFRSoS_E	 #
.LEHE2:
 # E:\Projects\Simulation_Projects\cva_cpp\main.cpp:53:     instruments::EuropeanOption call_option(instruments::OptionType::Call, 100.0, 1.0, r, sigma);
	.loc 9 53 96
	movsd	.LC6(%rip), %xmm2	 #, tmp212
	movsd	.LC7(%rip), %xmm1	 #, tmp213
	leaq	48(%rbp), %rax	 #, tmp214
	movsd	2792(%rbp), %xmm0	 # sigma, tmp215
	movsd	%xmm0, 40(%rsp)	 # tmp215,
	movsd	2800(%rbp), %xmm0	 # r, tmp216
	movsd	%xmm0, 32(%rsp)	 # tmp216,
	movapd	%xmm2, %xmm3	 # tmp212,
	movapd	%xmm1, %xmm2	 # tmp213,
	movl	$0, %edx	 #,
	movq	%rax, %rcx	 # tmp214,
	call	_ZN3cva11instruments14EuropeanOptionC1ENS0_10OptionTypeEdddd	 #
 # E:\Projects\Simulation_Projects\cva_cpp\main.cpp:56:     std::cout << "[3] Calculating CVA..." << std::endl;
	.loc 9 56 18
	leaq	.LC22(%rip), %rdx	 #, tmp217
	movq	.refptr._ZSt4cout(%rip), %rax	 #, tmp218
	movq	%rax, %rcx	 # tmp218,
.LEHB3:
	call	_ZStlsISt11char_traitsIcEERSt13basic_ostreamIcT_ES5_PKc	 #
	movq	%rax, %rcx	 #, _21
 # E:\Projects\Simulation_Projects\cva_cpp\main.cpp:56:     std::cout << "[3] Calculating CVA..." << std::endl;
	.loc 9 56 51 discriminator 2
	movq	.refptr._ZSt4endlIcSt11char_traitsIcEERSt13basic_ostreamIT_T0_ES6_(%rip), %rax	 #, tmp219
	movq	%rax, %rdx	 # tmp219,
	call	_ZNSolsEPFRSoS_E	 #
 # E:\Projects\Simulation_Projects\cva_cpp\main.cpp:57:     auto start_cva = std::chrono::high_resolution_clock::now();
	.loc 9 57 61
	call	_ZNSt6chrono3_V212system_clock3nowEv	 #
	movq	%rax, 40(%rbp)	 # tmp221, start_cva
 # E:\Projects\Simulation_Projects\cva_cpp\main.cpp:66:     );
	.loc 9 66 5
	leaq	160(%rbp), %rax	 #, tmp222
	movq	%rax, %rcx	 # tmp222,
	call	_ZNK3cva6engine16MonteCarloEngine9time_gridEv	 #
	movq	%rax, %rcx	 #, _22
 # E:\Projects\Simulation_Projects\cva_cpp\main.cpp:66:     );
	.loc 9 66 5 is_stmt 0 discriminator 1
	leaq	-48(%rbp), %rax	 #, tmp223
	leaq	112(%rbp), %r8	 #, tmp224
	leaq	48(%rbp), %rdx	 #, tmp225
	movsd	2776(%rbp), %xmm0	 # recovery_rate, tmp226
	movsd	%xmm0, 48(%rsp)	 # tmp226,
	movsd	2784(%rbp), %xmm0	 # hazard_rate, tmp227
	movsd	%xmm0, 40(%rsp)	 # tmp227,
	movsd	2800(%rbp), %xmm0	 # r, tmp228
	movsd	%xmm0, 32(%rsp)	 # tmp228,
	movq	%rcx, %r9	 # _22,
	movq	%rax, %rcx	 # tmp223,
	call	_ZN3cva10Calculator11compute_cvaERKNS_11instruments10InstrumentERKNS_4math6MatrixERKSt6vectorIdSaIdEEddd	 #
.LEHE3:
 # E:\Projects\Simulation_Projects\cva_cpp\main.cpp:68:     auto end_cva = std::chrono::high_resolution_clock::now();
	.loc 9 68 59 is_stmt 1
	call	_ZNSt6chrono3_V212system_clock3nowEv	 #
	movq	%rax, -56(%rbp)	 # tmp230, end_cva
 # E:\Projects\Simulation_Projects\cva_cpp\main.cpp:69:     std::chrono::duration<double> diff_cva = end_cva - start_cva;
	.loc 9 69 56
	leaq	40(%rbp), %rdx	 #, tmp231
	leaq	-56(%rbp), %rax	 #, tmp232
	movq	%rax, %rcx	 # tmp232,
	call	_ZNSt6chronomiINS_3_V212system_clockENS_8durationIxSt5ratioILx1ELx1000000000EEEES6_EENSt11common_typeIJT0_T1_EE4typeERKNS_10time_pointIT_S8_EERKNSC_ISD_S9_EE	 #
	movq	%rax, 2760(%rbp)	 # tmp234, D.154504
 # E:\Projects\Simulation_Projects\cva_cpp\main.cpp:69:     std::chrono::duration<double> diff_cva = end_cva - start_cva;
	.loc 9 69 56 is_stmt 0 discriminator 3
	leaq	2760(%rbp), %rdx	 #, tmp235
	leaq	-64(%rbp), %rax	 #, tmp236
	movq	%rax, %rcx	 # tmp236,
.LEHB4:
	call	_ZNSt6chrono8durationIdSt5ratioILx1ELx1EEEC1IxS1_ILx1ELx1000000000EEvEERKNS0_IT_T0_EE	 #
 # E:\Projects\Simulation_Projects\cva_cpp\main.cpp:70:     std::cout << "    CVA calculation took: " << diff_cva.count() << " s" << std::endl;
	.loc 9 70 18 is_stmt 1
	leaq	.LC23(%rip), %rdx	 #, tmp237
	movq	.refptr._ZSt4cout(%rip), %rax	 #, tmp238
	movq	%rax, %rcx	 # tmp238,
	call	_ZStlsISt11char_traitsIcEERSt13basic_ostreamIcT_ES5_PKc	 #
	movq	%rax, %rbx	 #, _23
 # E:\Projects\Simulation_Projects\cva_cpp\main.cpp:70:     std::cout << "    CVA calculation took: " << diff_cva.count() << " s" << std::endl;
	.loc 9 70 65 discriminator 2
	leaq	-64(%rbp), %rax	 #, tmp239
	movq	%rax, %rcx	 # tmp239,
	call	_ZNKSt6chrono8durationIdSt5ratioILx1ELx1EEE5countEv	 #
	movq	%xmm0, %rax	 #, _24
 # E:\Projects\Simulation_Projects\cva_cpp\main.cpp:70:     std::cout << "    CVA calculation took: " << diff_cva.count() << " s" << std::endl;
	.loc 9 70 65 is_stmt 0 discriminator 3
	movq	%rax, %xmm1	 # _24,
	movq	%rbx, %rcx	 # _23,
	call	_ZNSolsEd	 #
	movq	%rax, %rcx	 #, _25
 # E:\Projects\Simulation_Projects\cva_cpp\main.cpp:70:     std::cout << "    CVA calculation took: " << diff_cva.count() << " s" << std::endl;
	.loc 9 70 70 is_stmt 1 discriminator 5
	leaq	.LC21(%rip), %rax	 #, tmp240
	movq	%rax, %rdx	 # tmp240,
	call	_ZStlsISt11char_traitsIcEERSt13basic_ostreamIcT_ES5_PKc	 #
	movq	%rax, %rcx	 #, _26
 # E:\Projects\Simulation_Projects\cva_cpp\main.cpp:70:     std::cout << "    CVA calculation took: " << diff_cva.count() << " s" << std::endl;
	.loc 9 70 83 discriminator 7
	movq	.refptr._ZSt4endlIcSt11char_traitsIcEERSt13basic_ostreamIT_T0_ES6_(%rip), %rax	 #, tmp241
	movq	%rax, %rdx	 # tmp241,
	call	_ZNSolsEPFRSoS_E	 #
 # E:\Projects\Simulation_Projects\cva_cpp\main.cpp:73:     std::cout << "\n===========================================" << std::endl;
	.loc 9 73 18
	leaq	.LC24(%rip), %rdx	 #, tmp242
	movq	.refptr._ZSt4cout(%rip), %rax	 #, tmp243
	movq	%rax, %rcx	 # tmp243,
	call	_ZStlsISt11char_traitsIcEERSt13basic_ostreamIcT_ES5_PKc	 #
	movq	%rax, %rcx	 #, _27
 # E:\Projects\Simulation_Projects\cva_cpp\main.cpp:73:     std::cout << "\n===========================================" << std::endl;
	.loc 9 73 74 discriminator 2
	movq	.refptr._ZSt4endlIcSt11char_traitsIcEERSt13basic_ostreamIT_T0_ES6_(%rip), %rax	 #, tmp244
	movq	%rax, %rdx	 # tmp244,
	call	_ZNSolsEPFRSoS_E	 #
 # E:\Projects\Simulation_Projects\cva_cpp\main.cpp:74:     std::cout << "Results:" << std::endl;
	.loc 9 74 18
	leaq	.LC25(%rip), %rdx	 #, tmp245
	movq	.refptr._ZSt4cout(%rip), %rax	 #, tmp246
	movq	%rax, %rcx	 # tmp246,
	call	_ZStlsISt11char_traitsIcEERSt13basic_ostreamIcT_ES5_PKc	 #
	movq	%rax, %rcx	 #, _28
 # E:\Projects\Simulation_Projects\cva_cpp\main.cpp:74:     std::cout << "Results:" << std::endl;
	.loc 9 74 37 discriminator 2
	movq	.refptr._ZSt4endlIcSt11char_traitsIcEERSt13basic_ostreamIT_T0_ES6_(%rip), %rax	 #, tmp247
	movq	%rax, %rdx	 # tmp247,
	call	_ZNSolsEPFRSoS_E	 #
 # E:\Projects\Simulation_Projects\cva_cpp\main.cpp:75:     std::cout << "  Calculated CVA: " << std::fixed << std::setprecision(6) << profile.cva_value << std::endl;
	.loc 9 75 18
	leaq	.LC26(%rip), %rdx	 #, tmp248
	movq	.refptr._ZSt4cout(%rip), %rax	 #, tmp249
	movq	%rax, %rcx	 # tmp249,
	call	_ZStlsISt11char_traitsIcEERSt13basic_ostreamIcT_ES5_PKc	 #
 # E:\Projects\Simulation_Projects\cva_cpp\main.cpp:75:     std::cout << "  Calculated CVA: " << std::fixed << std::setprecision(6) << profile.cva_value << std::endl;
	.loc 9 75 47 discriminator 2
	leaq	_ZSt5fixedRSt8ios_base(%rip), %rdx	 #, tmp251
	movq	%rax, %rcx	 # _29,
	call	_ZNSolsEPFRSt8ios_baseS0_E	 #
	movq	%rax, %rbx	 #, _30
 # E:\Projects\Simulation_Projects\cva_cpp\main.cpp:75:     std::cout << "  Calculated CVA: " << std::fixed << std::setprecision(6) << profile.cva_value << std::endl;
	.loc 9 75 75 discriminator 4
	movl	$6, %ecx	 #,
	call	_ZSt12setprecisioni	 #
 # E:\Projects\Simulation_Projects\cva_cpp\main.cpp:75:     std::cout << "  Calculated CVA: " << std::fixed << std::setprecision(6) << profile.cva_value << std::endl;
	.loc 9 75 75 is_stmt 0 discriminator 5
	movl	%eax, %edx	 # D.195020,
	movq	%rbx, %rcx	 # _30,
	call	_ZStlsIcSt11char_traitsIcEERSt13basic_ostreamIT_T0_ES6_St13_Setprecision	 #
 # E:\Projects\Simulation_Projects\cva_cpp\main.cpp:75:     std::cout << "  Calculated CVA: " << std::fixed << std::setprecision(6) << profile.cva_value << std::endl;
	.loc 9 75 88 is_stmt 1 discriminator 6
	movsd	24(%rbp), %xmm0	 # profile.cva_value, _32
	movapd	%xmm0, %xmm1	 # _32,
	movq	%rax, %rcx	 # _31,
	call	_ZNSolsEd	 #
	movq	%rax, %rcx	 #, _33
 # E:\Projects\Simulation_Projects\cva_cpp\main.cpp:75:     std::cout << "  Calculated CVA: " << std::fixed << std::setprecision(6) << profile.cva_value << std::endl;
	.loc 9 75 106 discriminator 8
	movq	.refptr._ZSt4endlIcSt11char_traitsIcEERSt13basic_ostreamIT_T0_ES6_(%rip), %rax	 #, tmp252
	movq	%rax, %rdx	 # tmp252,
	call	_ZNSolsEPFRSoS_E	 #
 # E:\Projects\Simulation_Projects\cva_cpp\main.cpp:78:     double rf_price = call_option.value(s0, 0.0);
	.loc 9 78 40
	movsd	2808(%rbp), %xmm0	 # s0, tmp253
	leaq	48(%rbp), %rax	 #, tmp254
	pxor	%xmm2, %xmm2	 #
	movapd	%xmm0, %xmm1	 # tmp253,
	movq	%rax, %rcx	 # tmp254,
	call	_ZNK3cva11instruments14EuropeanOption5valueEdd	 #
	movq	%xmm0, %rax	 #, _151
 # E:\Projects\Simulation_Projects\cva_cpp\main.cpp:78:     double rf_price = call_option.value(s0, 0.0);
	.loc 9 78 40 is_stmt 0 discriminator 2
	movq	%rax, 2768(%rbp)	 # _151, rf_price
 # E:\Projects\Simulation_Projects\cva_cpp\main.cpp:79:     std::cout << "  Risk-Free Value: " << rf_price << std::endl;
	.loc 9 79 18 is_stmt 1
	leaq	.LC27(%rip), %rdx	 #, tmp255
	movq	.refptr._ZSt4cout(%rip), %rax	 #, tmp256
	movq	%rax, %rcx	 # tmp256,
	call	_ZStlsISt11char_traitsIcEERSt13basic_ostreamIcT_ES5_PKc	 #
 # E:\Projects\Simulation_Projects\cva_cpp\main.cpp:79:     std::cout << "  Risk-Free Value: " << rf_price << std::endl;
	.loc 9 79 43 discriminator 2
	movsd	2768(%rbp), %xmm0	 # rf_price, tmp257
	movapd	%xmm0, %xmm1	 # tmp257,
	movq	%rax, %rcx	 # _34,
	call	_ZNSolsEd	 #
	movq	%rax, %rcx	 #, _35
 # E:\Projects\Simulation_Projects\cva_cpp\main.cpp:79:     std::cout << "  Risk-Free Value: " << rf_price << std::endl;
	.loc 9 79 60 discriminator 4
	movq	.refptr._ZSt4endlIcSt11char_traitsIcEERSt13basic_ostreamIT_T0_ES6_(%rip), %rax	 #, tmp258
	movq	%rax, %rdx	 # tmp258,
	call	_ZNSolsEPFRSoS_E	 #
 # E:\Projects\Simulation_Projects\cva_cpp\main.cpp:80:     std::cout << "  Risky Value:     " << (rf_price - profile.cva_value) << std::endl;
	.loc 9 80 18
	leaq	.LC28(%rip), %rdx	 #, tmp259
	movq	.refptr._ZSt4cout(%rip), %rax	 #, tmp260
	movq	%rax, %rcx	 # tmp260,
	call	_ZStlsISt11char_traitsIcEERSt13basic_ostreamIcT_ES5_PKc	 #
 # E:\Projects\Simulation_Projects\cva_cpp\main.cpp:80:     std::cout << "  Risky Value:     " << (rf_price - profile.cva_value) << std::endl;
	.loc 9 80 63 discriminator 2
	movsd	24(%rbp), %xmm1	 # profile.cva_value, _37
 # E:\Projects\Simulation_Projects\cva_cpp\main.cpp:80:     std::cout << "  Risky Value:     " << (rf_price - profile.cva_value) << std::endl;
	.loc 9 80 72 discriminator 2
	movsd	2768(%rbp), %xmm0	 # rf_price, tmp261
	subsd	%xmm1, %xmm0	 # _37, _38
	movapd	%xmm0, %xmm1	 # _38,
	movq	%rax, %rcx	 # _36,
	call	_ZNSolsEd	 #
	movq	%rax, %rcx	 #, _39
 # E:\Projects\Simulation_Projects\cva_cpp\main.cpp:80:     std::cout << "  Risky Value:     " << (rf_price - profile.cva_value) << std::endl;
	.loc 9 80 82 discriminator 4
	movq	.refptr._ZSt4endlIcSt11char_traitsIcEERSt13basic_ostreamIT_T0_ES6_(%rip), %rax	 #, tmp262
	movq	%rax, %rdx	 # tmp262,
	call	_ZNSolsEPFRSoS_E	 #
 # E:\Projects\Simulation_Projects\cva_cpp\main.cpp:81:     std::cout << "===========================================" << std::endl;
	.loc 9 81 18
	leaq	.LC4(%rip), %rdx	 #, tmp263
	movq	.refptr._ZSt4cout(%rip), %rax	 #, tmp264
	movq	%rax, %rcx	 # tmp264,
	call	_ZStlsISt11char_traitsIcEERSt13basic_ostreamIcT_ES5_PKc	 #
	movq	%rax, %rcx	 #, _40
 # E:\Projects\Simulation_Projects\cva_cpp\main.cpp:81:     std::cout << "===========================================" << std::endl;
	.loc 9 81 72 discriminator 2
	movq	.refptr._ZSt4endlIcSt11char_traitsIcEERSt13basic_ostreamIT_T0_ES6_(%rip), %rax	 #, tmp265
	movq	%rax, %rdx	 # tmp265,
	call	_ZNSolsEPFRSoS_E	 #
.LEHE4:
 # E:\Projects\Simulation_Projects\cva_cpp\main.cpp:83:     return 0;
	.loc 9 83 12
	movl	$0, %ebx	 #, _166
 # E:\Projects\Simulation_Projects\cva_cpp\main.cpp:84: }
	.loc 9 84 1
	leaq	-48(%rbp), %rax	 #, tmp266
	movq	%rax, %rcx	 # tmp266,
	call	_ZN3cva15ExposureProfileD1Ev	 #
 # E:\Projects\Simulation_Projects\cva_cpp\main.cpp:84: }
	.loc 9 84 1 is_stmt 0 discriminator 2
	leaq	48(%rbp), %rax	 #, tmp267
	movq	%rax, %rcx	 # tmp267,
	call	_ZN3cva11instruments14EuropeanOptionD1Ev	 #
 # E:\Projects\Simulation_Projects\cva_cpp\main.cpp:84: }
	.loc 9 84 1 discriminator 4
	leaq	112(%rbp), %rax	 #, tmp268
	movq	%rax, %rcx	 # tmp268,
	call	_ZN3cva4math6MatrixD1Ev	 #
 # E:\Projects\Simulation_Projects\cva_cpp\main.cpp:84: }
	.loc 9 84 1 discriminator 6
	leaq	160(%rbp), %rax	 #, tmp269
	movq	%rax, %rcx	 # tmp269,
	call	_ZN3cva6engine16MonteCarloEngineD1Ev	 #
 # E:\Projects\Simulation_Projects\cva_cpp\main.cpp:84: }
	.loc 9 84 1
	movl	%ebx, %eax	 # _166, <retval>
	jmp	.L58	 #
.L57:
	movq	%rax, %rbx	 #, tmp273
	leaq	-48(%rbp), %rax	 #, tmp271
	movq	%rax, %rcx	 # tmp271,
	call	_ZN3cva15ExposureProfileD1Ev	 #
	jmp	.L51	 #
.L56:
	movq	%rax, %rbx	 #, tmp272
.L51:
	leaq	48(%rbp), %rax	 #, tmp276
	movq	%rax, %rcx	 # tmp276,
	call	_ZN3cva11instruments14EuropeanOptionD1Ev	 #
	jmp	.L52	 #
.L55:
	movq	%rax, %rbx	 #, tmp277
.L52:
	leaq	112(%rbp), %rax	 #, tmp279
	movq	%rax, %rcx	 # tmp279,
	call	_ZN3cva4math6MatrixD1Ev	 #
	jmp	.L53	 #
.L54:
	movq	%rax, %rbx	 #, tmp280
.L53:
	leaq	160(%rbp), %rax	 #, tmp282
	movq	%rax, %rcx	 # tmp282,
	call	_ZN3cva6engine16MonteCarloEngineD1Ev	 #
	movq	%rbx, %rax	 # tmp280, D.195277
	movq	%rax, %rcx	 # D.195277,
.LEHB5:
	call	_Unwind_Resume	 #
.LEHE5:
.L58:
	addq	$2984, %rsp	 #,
	popq	%rbx	 #
	.cfi_restore 3
	popq	%rbp	 #
	.cfi_restore 6
	.cfi_def_cfa 7, -2968
	ret	
	.cfi_endproc
.LFE7728:
	.seh_handler	__gxx_personality_seh0, @unwind, @except
	.seh_handlerdata
.LLSDA7728:
	.byte	0xff
	.byte	0xff
	.byte	0x1
	.uleb128 .LLSDACSE7728-.LLSDACSB7728
.LLSDACSB7728:
	.uleb128 .LEHB0-.LFB7728
	.uleb128 .LEHE0-.LEHB0
	.uleb128 0
	.uleb128 0
	.uleb128 .LEHB1-.LFB7728
	.uleb128 .LEHE1-.LEHB1
	.uleb128 .L54-.LFB7728
	.uleb128 0
	.uleb128 .LEHB2-.LFB7728
	.uleb128 .LEHE2-.LEHB2
	.uleb128 .L55-.LFB7728
	.uleb128 0
	.uleb128 .LEHB3-.LFB7728
	.uleb128 .LEHE3-.LEHB3
	.uleb128 .L56-.LFB7728
	.uleb128 0
	.uleb128 .LEHB4-.LFB7728
	.uleb128 .LEHE4-.LEHB4
	.uleb128 .L57-.LFB7728
	.uleb128 0
	.uleb128 .LEHB5-.LFB7728
	.uleb128 .LEHE5-.LEHB5
	.uleb128 0
	.uleb128 0
.LLSDACSE7728:
	.text
	.seh_endproc
	.section	.text$_ZNSt6vectorIdSaIdEED1Ev,"x"
	.linkonce discard
	.align 2
	.globl	_ZNSt6vectorIdSaIdEED1Ev
	.def	_ZNSt6vectorIdSaIdEED1Ev;	.scl	2;	.type	32;	.endef
	.seh_proc	_ZNSt6vectorIdSaIdEED1Ev
_ZNSt6vectorIdSaIdEED1Ev:
.LFB8236:
	.file 10 "D:/msys64/ucrt64/include/c++/15.2.0/bits/stl_vector.h"
	.loc 10 800 7 is_stmt 1
	.cfi_startproc
	pushq	%rbp	 #
	.seh_pushreg	%rbp
	.cfi_def_cfa_offset 16
	.cfi_offset 6, -16
	movq	%rsp, %rbp	 #,
	.seh_setframe	%rbp, 0
	.cfi_def_cfa_register 6
	subq	$64, %rsp	 #,
	.seh_stackalloc	64
	.seh_endprologue
	movq	%rcx, 16(%rbp)	 # this, this
.LBB38:
 # D:/msys64/ucrt64/include/c++/15.2.0/bits/stl_vector.h:803: 		      _M_get_Tp_allocator());
	.loc 10 803 28
	movq	16(%rbp), %rax	 # this, _1
	movq	%rax, %rcx	 # _1,
	call	_ZNSt12_Vector_baseIdSaIdEE19_M_get_Tp_allocatorEv	 #
 # D:/msys64/ucrt64/include/c++/15.2.0/bits/stl_vector.h:802: 	std::_Destroy(this->_M_impl._M_start, this->_M_impl._M_finish,
	.loc 10 802 54
	movq	16(%rbp), %rdx	 # this, tmp103
	movq	8(%rdx), %rdx	 # this_6(D)->D.125793._M_impl.D.125135._M_finish, _3
 # D:/msys64/ucrt64/include/c++/15.2.0/bits/stl_vector.h:802: 	std::_Destroy(this->_M_impl._M_start, this->_M_impl._M_finish,
	.loc 10 802 30
	movq	16(%rbp), %rcx	 # this, tmp104
	movq	(%rcx), %rcx	 # this_6(D)->D.125793._M_impl.D.125135._M_start, _4
	movq	%rcx, -8(%rbp)	 # _4, __first
	movq	%rdx, -16(%rbp)	 # _3, __last
	movq	%rax, -24(%rbp)	 # _2, D.195276
.LBB39:
.LBB40:
 # D:/msys64/ucrt64/include/c++/15.2.0/bits/alloc_traits.h:1045:       std::_Destroy(__first, __last);
	.file 11 "D:/msys64/ucrt64/include/c++/15.2.0/bits/alloc_traits.h"
	.loc 11 1045 20
	movq	-16(%rbp), %rdx	 # __last, tmp105
	movq	-8(%rbp), %rax	 # __first, tmp106
	movq	%rax, %rcx	 # tmp106,
	call	_ZSt8_DestroyIPdEvT_S1_	 #
 # D:/msys64/ucrt64/include/c++/15.2.0/bits/alloc_traits.h:1046:     }
	.loc 11 1046 5
	nop	
.LBE40:
.LBE39:
 # D:/msys64/ucrt64/include/c++/15.2.0/bits/stl_vector.h:805:       }
	.loc 10 805 7
	movq	16(%rbp), %rax	 # this, _5
	movq	%rax, %rcx	 # _5,
	call	_ZNSt12_Vector_baseIdSaIdEED2Ev	 #
.LBE38:
	nop	
	addq	$64, %rsp	 #,
	popq	%rbp	 #
	.cfi_restore 6
	.cfi_def_cfa 7, 8
	ret	
	.cfi_endproc
.LFE8236:
	.seh_handler	__gxx_personality_seh0, @unwind, @except
	.seh_handlerdata
.LLSDA8236:
	.byte	0xff
	.byte	0xff
	.byte	0x1
	.uleb128 .LLSDACSE8236-.LLSDACSB8236
.LLSDACSB8236:
.LLSDACSE8236:
	.section	.text$_ZNSt6vectorIdSaIdEED1Ev,"x"
	.linkonce discard
	.seh_endproc
	.section	.text$_ZSt3maxIdERKT_S2_S2_,"x"
	.linkonce discard
	.globl	_ZSt3maxIdERKT_S2_S2_
	.def	_ZSt3maxIdERKT_S2_S2_;	.scl	2;	.type	32;	.endef
	.seh_proc	_ZSt3maxIdERKT_S2_S2_
_ZSt3maxIdERKT_S2_S2_:
.LFB8306:
	.file 12 "D:/msys64/ucrt64/include/c++/15.2.0/bits/stl_algobase.h"
	.loc 12 258 5
	.cfi_startproc
	pushq	%rbp	 #
	.seh_pushreg	%rbp
	.cfi_def_cfa_offset 16
	.cfi_offset 6, -16
	movq	%rsp, %rbp	 #,
	.seh_setframe	%rbp, 0
	.cfi_def_cfa_register 6
	.seh_endprologue
	movq	%rcx, 16(%rbp)	 # __a, __a
	movq	%rdx, 24(%rbp)	 # __b, __b
 # D:/msys64/ucrt64/include/c++/15.2.0/bits/stl_algobase.h:263:       if (__a < __b)
	.loc 12 263 15
	movq	16(%rbp), %rax	 # __a, tmp102
	movsd	(%rax), %xmm1	 # *__a_5(D), _1
	movq	24(%rbp), %rax	 # __b, tmp103
	movsd	(%rax), %xmm0	 # *__b_6(D), _2
 # D:/msys64/ucrt64/include/c++/15.2.0/bits/stl_algobase.h:263:       if (__a < __b)
	.loc 12 263 7
	comisd	%xmm1, %xmm0	 # _1, _2
	jbe	.L65	 #,
 # D:/msys64/ucrt64/include/c++/15.2.0/bits/stl_algobase.h:264: 	return __b;
	.loc 12 264 9
	movq	24(%rbp), %rax	 # __b, _3
	jmp	.L63	 #
.L65:
 # D:/msys64/ucrt64/include/c++/15.2.0/bits/stl_algobase.h:265:       return __a;
	.loc 12 265 14
	movq	16(%rbp), %rax	 # __a, _3
.L63:
 # D:/msys64/ucrt64/include/c++/15.2.0/bits/stl_algobase.h:266:     }
	.loc 12 266 5
	popq	%rbp	 #
	.cfi_restore 6
	.cfi_def_cfa 7, 8
	ret	
	.cfi_endproc
.LFE8306:
	.seh_endproc
	.section	.text$_ZNSt6chrono8durationIdSt5ratioILx1ELx1EEEC1IxS1_ILx1ELx1000000000EEvEERKNS0_IT_T0_EE,"x"
	.linkonce discard
	.align 2
	.globl	_ZNSt6chrono8durationIdSt5ratioILx1ELx1EEEC1IxS1_ILx1ELx1000000000EEvEERKNS0_IT_T0_EE
	.def	_ZNSt6chrono8durationIdSt5ratioILx1ELx1EEEC1IxS1_ILx1ELx1000000000EEvEERKNS0_IT_T0_EE;	.scl	2;	.type	32;	.endef
	.seh_proc	_ZNSt6chrono8durationIdSt5ratioILx1ELx1EEEC1IxS1_ILx1ELx1000000000EEvEERKNS0_IT_T0_EE
_ZNSt6chrono8durationIdSt5ratioILx1ELx1EEEC1IxS1_ILx1ELx1000000000EEvEERKNS0_IT_T0_EE:
.LFB8329:
	.loc 3 585 14
	.cfi_startproc
	pushq	%rbp	 #
	.seh_pushreg	%rbp
	.cfi_def_cfa_offset 16
	.cfi_offset 6, -16
	movq	%rsp, %rbp	 #,
	.seh_setframe	%rbp, 0
	.cfi_def_cfa_register 6
	subq	$48, %rsp	 #,
	.seh_stackalloc	48
	.seh_endprologue
	movq	%rcx, 16(%rbp)	 # this, this
	movq	%rdx, 24(%rbp)	 # __d, __d
.LBB41:
 # D:/msys64/ucrt64/include/c++/15.2.0/bits/chrono.h:586: 	  : __r(duration_cast<duration>(__d).count()) { }
	.loc 3 586 33
	movq	24(%rbp), %rax	 # __d, tmp99
	movq	%rax, %rcx	 # tmp99,
	call	_ZNSt6chrono13duration_castINS_8durationIdSt5ratioILx1ELx1EEEExS2_ILx1ELx1000000000EEEENSt9enable_ifIXsrNS_13__is_durationIT_EE5valueES8_E4typeERKNS1_IT0_T1_EE	 #
	movq	%rax, %xmm0	 # tmp100, tmp101
	movsd	%xmm0, -8(%rbp)	 # tmp101, D.159877
 # D:/msys64/ucrt64/include/c++/15.2.0/bits/chrono.h:586: 	  : __r(duration_cast<duration>(__d).count()) { }
	.loc 3 586 44 discriminator 3
	leaq	-8(%rbp), %rax	 #, tmp102
	movq	%rax, %rcx	 # tmp102,
	call	_ZNKSt6chrono8durationIdSt5ratioILx1ELx1EEE5countEv	 #
	movq	%xmm0, %rax	 #, _1
 # D:/msys64/ucrt64/include/c++/15.2.0/bits/chrono.h:586: 	  : __r(duration_cast<duration>(__d).count()) { }
	.loc 3 586 6 discriminator 4
	movq	16(%rbp), %rdx	 # this, tmp103
	movq	%rax, (%rdx)	 # _1, this_3(D)->__r
.LBE41:
 # D:/msys64/ucrt64/include/c++/15.2.0/bits/chrono.h:586: 	  : __r(duration_cast<duration>(__d).count()) { }
	.loc 3 586 50
	nop	
	addq	$48, %rsp	 #,
	popq	%rbp	 #
	.cfi_restore 6
	.cfi_def_cfa 7, 8
	ret	
	.cfi_endproc
.LFE8329:
	.seh_endproc
	.section	.text$_ZNSt6chronomiIxSt5ratioILx1ELx1000000000EExS2_EENSt11common_typeIJNS_8durationIT_T0_EENS4_IT1_T2_EEEE4typeERKS7_RKSA_,"x"
	.linkonce discard
	.globl	_ZNSt6chronomiIxSt5ratioILx1ELx1000000000EExS2_EENSt11common_typeIJNS_8durationIT_T0_EENS4_IT1_T2_EEEE4typeERKS7_RKSA_
	.def	_ZNSt6chronomiIxSt5ratioILx1ELx1000000000EExS2_EENSt11common_typeIJNS_8durationIT_T0_EENS4_IT1_T2_EEEE4typeERKS7_RKSA_;	.scl	2;	.type	32;	.endef
	.seh_proc	_ZNSt6chronomiIxSt5ratioILx1ELx1000000000EExS2_EENSt11common_typeIJNS_8durationIT_T0_EENS4_IT1_T2_EEEE4typeERKS7_RKSA_
_ZNSt6chronomiIxSt5ratioILx1ELx1000000000EExS2_EENSt11common_typeIJNS_8durationIT_T0_EENS4_IT1_T2_EEEE4typeERKS7_RKSA_:
.LFB8330:
	.loc 3 714 7
	.cfi_startproc
	pushq	%rbp	 #
	.seh_pushreg	%rbp
	.cfi_def_cfa_offset 16
	.cfi_offset 6, -16
	pushq	%rbx	 #
	.seh_pushreg	%rbx
	.cfi_def_cfa_offset 24
	.cfi_offset 3, -24
	subq	$72, %rsp	 #,
	.seh_stackalloc	72
	.cfi_def_cfa_offset 96
	leaq	64(%rsp), %rbp	 #,
	.seh_setframe	%rbp, 64
	.cfi_def_cfa 6, 32
	.seh_endprologue
	movq	%rcx, 32(%rbp)	 # __lhs, __lhs
	movq	%rdx, 40(%rbp)	 # __rhs, __rhs
 # D:/msys64/ucrt64/include/c++/15.2.0/bits/chrono.h:720: 	return __cd(__cd(__lhs).count() - __cd(__rhs).count());
	.loc 3 720 14
	movq	32(%rbp), %rax	 # __lhs, tmp103
	movq	(%rax), %rax	 # *__lhs_5(D), tmp104
	movq	%rax, -16(%rbp)	 # tmp104, D.159884
 # D:/msys64/ucrt64/include/c++/15.2.0/bits/chrono.h:720: 	return __cd(__cd(__lhs).count() - __cd(__rhs).count());
	.loc 3 720 31
	leaq	-16(%rbp), %rax	 #, tmp105
	movq	%rax, %rcx	 # tmp105,
	call	_ZNKSt6chrono8durationIxSt5ratioILx1ELx1000000000EEE5countEv	 #
	movq	%rax, %rbx	 #, _1
 # D:/msys64/ucrt64/include/c++/15.2.0/bits/chrono.h:720: 	return __cd(__cd(__lhs).count() - __cd(__rhs).count());
	.loc 3 720 36 discriminator 1
	movq	40(%rbp), %rax	 # __rhs, tmp106
	movq	(%rax), %rax	 # *__rhs_8(D), tmp107
	movq	%rax, -8(%rbp)	 # tmp107, D.159885
 # D:/msys64/ucrt64/include/c++/15.2.0/bits/chrono.h:720: 	return __cd(__cd(__lhs).count() - __cd(__rhs).count());
	.loc 3 720 53 discriminator 1
	leaq	-8(%rbp), %rax	 #, tmp108
	movq	%rax, %rcx	 # tmp108,
	call	_ZNKSt6chrono8durationIxSt5ratioILx1ELx1000000000EEE5countEv	 #
 # D:/msys64/ucrt64/include/c++/15.2.0/bits/chrono.h:720: 	return __cd(__cd(__lhs).count() - __cd(__rhs).count());
	.loc 3 720 34 discriminator 2
	subq	%rax, %rbx	 # _2, _1
	movq	%rbx, %rdx	 # _1, _3
	movq	%rdx, -24(%rbp)	 # _3, D.159886
 # D:/msys64/ucrt64/include/c++/15.2.0/bits/chrono.h:720: 	return __cd(__cd(__lhs).count() - __cd(__rhs).count());
	.loc 3 720 9 discriminator 2
	leaq	-24(%rbp), %rdx	 #, tmp109
	leaq	-32(%rbp), %rax	 #, tmp110
	movq	%rax, %rcx	 # tmp110,
	call	_ZNSt6chrono8durationIxSt5ratioILx1ELx1000000000EEEC1IxvEERKT_	 #
 # D:/msys64/ucrt64/include/c++/15.2.0/bits/chrono.h:720: 	return __cd(__cd(__lhs).count() - __cd(__rhs).count());
	.loc 3 720 55 discriminator 3
	movq	-32(%rbp), %rax	 # D.159887, D.195092
 # D:/msys64/ucrt64/include/c++/15.2.0/bits/chrono.h:721:       }
	.loc 3 721 7
	addq	$72, %rsp	 #,
	popq	%rbx	 #
	.cfi_restore 3
	popq	%rbp	 #
	.cfi_restore 6
	.cfi_def_cfa 7, -56
	ret	
	.cfi_endproc
.LFE8330:
	.seh_endproc
	.section	.text$_ZNKSt6chrono8durationIdSt5ratioILx1ELx1EEE5countEv,"x"
	.linkonce discard
	.align 2
	.globl	_ZNKSt6chrono8durationIdSt5ratioILx1ELx1EEE5countEv
	.def	_ZNKSt6chrono8durationIdSt5ratioILx1ELx1EEE5countEv;	.scl	2;	.type	32;	.endef
	.seh_proc	_ZNKSt6chrono8durationIdSt5ratioILx1ELx1EEE5countEv
_ZNKSt6chrono8durationIdSt5ratioILx1ELx1EEE5countEv:
.LFB8331:
	.loc 3 593 2
	.cfi_startproc
	pushq	%rbp	 #
	.seh_pushreg	%rbp
	.cfi_def_cfa_offset 16
	.cfi_offset 6, -16
	movq	%rsp, %rbp	 #,
	.seh_setframe	%rbp, 0
	.cfi_def_cfa_register 6
	.seh_endprologue
	movq	%rcx, 16(%rbp)	 # this, this
 # D:/msys64/ucrt64/include/c++/15.2.0/bits/chrono.h:594: 	{ return __r; }
	.loc 3 594 11
	movq	16(%rbp), %rax	 # this, tmp100
	movsd	(%rax), %xmm0	 # this_2(D)->__r, _3
 # D:/msys64/ucrt64/include/c++/15.2.0/bits/chrono.h:594: 	{ return __r; }
	.loc 3 594 16
	popq	%rbp	 #
	.cfi_restore 6
	.cfi_def_cfa 7, 8
	ret	
	.cfi_endproc
.LFE8331:
	.seh_endproc
	.section	.text$_ZNSt12_Vector_baseIdSaIdEE12_Vector_implD1Ev,"x"
	.linkonce discard
	.align 2
	.globl	_ZNSt12_Vector_baseIdSaIdEE12_Vector_implD1Ev
	.def	_ZNSt12_Vector_baseIdSaIdEE12_Vector_implD1Ev;	.scl	2;	.type	32;	.endef
	.seh_proc	_ZNSt12_Vector_baseIdSaIdEE12_Vector_implD1Ev
_ZNSt12_Vector_baseIdSaIdEE12_Vector_implD1Ev:
.LFB8604:
	.loc 10 139 14
	.cfi_startproc
	pushq	%rbp	 #
	.seh_pushreg	%rbp
	.cfi_def_cfa_offset 16
	.cfi_offset 6, -16
	movq	%rsp, %rbp	 #,
	.seh_setframe	%rbp, 0
	.cfi_def_cfa_register 6
	subq	$16, %rsp	 #,
	.seh_stackalloc	16
	.seh_endprologue
	movq	%rcx, 16(%rbp)	 # this, this
	movq	16(%rbp), %rax	 # this, tmp98
	movq	%rax, -8(%rbp)	 # tmp98, this
.LBB42:
.LBB43:
.LBB44:
 # D:/msys64/ucrt64/include/c++/15.2.0/bits/allocator.h:189:       ~allocator() _GLIBCXX_NOTHROW { }
	.file 13 "D:/msys64/ucrt64/include/c++/15.2.0/bits/allocator.h"
	.loc 13 189 31
	nop	
.LBE44:
.LBE43:
.LBE42:
 # D:/msys64/ucrt64/include/c++/15.2.0/bits/stl_vector.h:139:       struct _Vector_impl
	.loc 10 139 14
	nop	
	addq	$16, %rsp	 #,
	popq	%rbp	 #
	.cfi_restore 6
	.cfi_def_cfa 7, 8
	ret	
	.cfi_endproc
.LFE8604:
	.seh_endproc
	.section	.text$_ZNSt12_Vector_baseIdSaIdEED2Ev,"x"
	.linkonce discard
	.align 2
	.globl	_ZNSt12_Vector_baseIdSaIdEED2Ev
	.def	_ZNSt12_Vector_baseIdSaIdEED2Ev;	.scl	2;	.type	32;	.endef
	.seh_proc	_ZNSt12_Vector_baseIdSaIdEED2Ev
_ZNSt12_Vector_baseIdSaIdEED2Ev:
.LFB8608:
	.loc 10 373 7
	.cfi_startproc
	pushq	%rbp	 #
	.seh_pushreg	%rbp
	.cfi_def_cfa_offset 16
	.cfi_offset 6, -16
	movq	%rsp, %rbp	 #,
	.seh_setframe	%rbp, 0
	.cfi_def_cfa_register 6
	subq	$32, %rsp	 #,
	.seh_stackalloc	32
	.seh_endprologue
	movq	%rcx, 16(%rbp)	 # this, this
.LBB45:
 # D:/msys64/ucrt64/include/c++/15.2.0/bits/stl_vector.h:376: 		      _M_impl._M_end_of_storage - _M_impl._M_start);
	.loc 10 376 17
	movq	16(%rbp), %rax	 # this, tmp105
	movq	16(%rax), %rdx	 # this_9(D)->_M_impl.D.125135._M_end_of_storage, _1
 # D:/msys64/ucrt64/include/c++/15.2.0/bits/stl_vector.h:376: 		      _M_impl._M_end_of_storage - _M_impl._M_start);
	.loc 10 376 45
	movq	16(%rbp), %rax	 # this, tmp106
	movq	(%rax), %rax	 # this_9(D)->_M_impl.D.125135._M_start, _2
 # D:/msys64/ucrt64/include/c++/15.2.0/bits/stl_vector.h:376: 		      _M_impl._M_end_of_storage - _M_impl._M_start);
	.loc 10 376 35
	subq	%rax, %rdx	 # _2, _3
	movq	%rdx, %rax	 # _3, _3
	sarq	$3, %rax	 #, _3
 # D:/msys64/ucrt64/include/c++/15.2.0/bits/stl_vector.h:375: 	_M_deallocate(_M_impl._M_start,
	.loc 10 375 15
	movq	%rax, %rcx	 # _4, _5
	movq	16(%rbp), %rax	 # this, tmp108
	movq	(%rax), %rdx	 # this_9(D)->_M_impl.D.125135._M_start, _6
	movq	16(%rbp), %rax	 # this, tmp109
	movq	%rcx, %r8	 # _5,
	movq	%rax, %rcx	 # tmp109,
	call	_ZNSt12_Vector_baseIdSaIdEE13_M_deallocateEPdy	 #
 # D:/msys64/ucrt64/include/c++/15.2.0/bits/stl_vector.h:377:       }
	.loc 10 377 7
	movq	16(%rbp), %rax	 # this, _7
	movq	%rax, %rcx	 # _7,
	call	_ZNSt12_Vector_baseIdSaIdEE12_Vector_implD1Ev	 #
.LBE45:
	nop	
	addq	$32, %rsp	 #,
	popq	%rbp	 #
	.cfi_restore 6
	.cfi_def_cfa 7, 8
	ret	
	.cfi_endproc
.LFE8608:
	.seh_handler	__gxx_personality_seh0, @unwind, @except
	.seh_handlerdata
.LLSDA8608:
	.byte	0xff
	.byte	0xff
	.byte	0x1
	.uleb128 .LLSDACSE8608-.LLSDACSB8608
.LLSDACSB8608:
.LLSDACSE8608:
	.section	.text$_ZNSt12_Vector_baseIdSaIdEED2Ev,"x"
	.linkonce discard
	.seh_endproc
	.section	.text$_ZNSt12_Vector_baseIdSaIdEE19_M_get_Tp_allocatorEv,"x"
	.linkonce discard
	.align 2
	.globl	_ZNSt12_Vector_baseIdSaIdEE19_M_get_Tp_allocatorEv
	.def	_ZNSt12_Vector_baseIdSaIdEE19_M_get_Tp_allocatorEv;	.scl	2;	.type	32;	.endef
	.seh_proc	_ZNSt12_Vector_baseIdSaIdEE19_M_get_Tp_allocatorEv
_ZNSt12_Vector_baseIdSaIdEE19_M_get_Tp_allocatorEv:
.LFB8611:
	.loc 10 307 7
	.cfi_startproc
	pushq	%rbp	 #
	.seh_pushreg	%rbp
	.cfi_def_cfa_offset 16
	.cfi_offset 6, -16
	movq	%rsp, %rbp	 #,
	.seh_setframe	%rbp, 0
	.cfi_def_cfa_register 6
	.seh_endprologue
	movq	%rcx, 16(%rbp)	 # this, this
 # D:/msys64/ucrt64/include/c++/15.2.0/bits/stl_vector.h:308:       { return this->_M_impl; }
	.loc 10 308 22
	movq	16(%rbp), %rax	 # this, _2
 # D:/msys64/ucrt64/include/c++/15.2.0/bits/stl_vector.h:308:       { return this->_M_impl; }
	.loc 10 308 31
	popq	%rbp	 #
	.cfi_restore 6
	.cfi_def_cfa 7, 8
	ret	
	.cfi_endproc
.LFE8611:
	.seh_endproc
	.section	.text$_ZNSt6chrono13duration_castINS_8durationIdSt5ratioILx1ELx1EEEExS2_ILx1ELx1000000000EEEENSt9enable_ifIXsrNS_13__is_durationIT_EE5valueES8_E4typeERKNS1_IT0_T1_EE,"x"
	.linkonce discard
	.globl	_ZNSt6chrono13duration_castINS_8durationIdSt5ratioILx1ELx1EEEExS2_ILx1ELx1000000000EEEENSt9enable_ifIXsrNS_13__is_durationIT_EE5valueES8_E4typeERKNS1_IT0_T1_EE
	.def	_ZNSt6chrono13duration_castINS_8durationIdSt5ratioILx1ELx1EEEExS2_ILx1ELx1000000000EEEENSt9enable_ifIXsrNS_13__is_durationIT_EE5valueES8_E4typeERKNS1_IT0_T1_EE;	.scl	2;	.type	32;	.endef
	.seh_proc	_ZNSt6chrono13duration_castINS_8durationIdSt5ratioILx1ELx1EEEExS2_ILx1ELx1000000000EEEENSt9enable_ifIXsrNS_13__is_durationIT_EE5valueES8_E4typeERKNS1_IT0_T1_EE
_ZNSt6chrono13duration_castINS_8durationIdSt5ratioILx1ELx1EEEExS2_ILx1ELx1000000000EEEENSt9enable_ifIXsrNS_13__is_durationIT_EE5valueES8_E4typeERKNS1_IT0_T1_EE:
.LFB8677:
	.loc 3 279 7
	.cfi_startproc
	pushq	%rbp	 #
	.seh_pushreg	%rbp
	.cfi_def_cfa_offset 16
	.cfi_offset 6, -16
	movq	%rsp, %rbp	 #,
	.seh_setframe	%rbp, 0
	.cfi_def_cfa_register 6
	subq	$32, %rsp	 #,
	.seh_stackalloc	32
	.seh_endprologue
	movq	%rcx, 16(%rbp)	 # __d, __d
.LBB46:
.LBB47:
 # D:/msys64/ucrt64/include/c++/15.2.0/bits/chrono.h:293: 	  return __dc::__cast(__d);
	.loc 3 293 23
	movq	16(%rbp), %rax	 # __d, tmp100
	movq	%rax, %rcx	 # tmp100,
	call	_ZNSt6chrono20__duration_cast_implINS_8durationIdSt5ratioILx1ELx1EEEES2_ILx1ELx1000000000EEdLb1ELb0EE6__castIxS5_EES4_RKNS1_IT_T0_EE	 #
.LBE47:
.LBE46:
 # D:/msys64/ucrt64/include/c++/15.2.0/bits/chrono.h:297:       }
	.loc 3 297 7
	addq	$32, %rsp	 #,
	popq	%rbp	 #
	.cfi_restore 6
	.cfi_def_cfa 7, 8
	ret	
	.cfi_endproc
.LFE8677:
	.seh_endproc
	.section	.text$_ZNSt12_Vector_baseIdSaIdEE13_M_deallocateEPdy,"x"
	.linkonce discard
	.align 2
	.globl	_ZNSt12_Vector_baseIdSaIdEE13_M_deallocateEPdy
	.def	_ZNSt12_Vector_baseIdSaIdEE13_M_deallocateEPdy;	.scl	2;	.type	32;	.endef
	.seh_proc	_ZNSt12_Vector_baseIdSaIdEE13_M_deallocateEPdy
_ZNSt12_Vector_baseIdSaIdEE13_M_deallocateEPdy:
.LFB8872:
	.loc 10 392 7
	.cfi_startproc
	pushq	%rbp	 #
	.seh_pushreg	%rbp
	.cfi_def_cfa_offset 16
	.cfi_offset 6, -16
	movq	%rsp, %rbp	 #,
	.seh_setframe	%rbp, 0
	.cfi_def_cfa_register 6
	subq	$80, %rsp	 #,
	.seh_stackalloc	80
	.seh_endprologue
	movq	%rcx, 16(%rbp)	 # this, this
	movq	%rdx, 24(%rbp)	 # __p, __p
	movq	%r8, 32(%rbp)	 # __n, __n
 # D:/msys64/ucrt64/include/c++/15.2.0/bits/stl_vector.h:395: 	if (__p)
	.loc 10 395 2
	cmpq	$0, 24(%rbp)	 #, __p
	je	.L82	 #,
 # D:/msys64/ucrt64/include/c++/15.2.0/bits/stl_vector.h:396: 	  _Tr::deallocate(_M_impl, __p, __n);
	.loc 10 396 20
	movq	16(%rbp), %rax	 # this, _1
	movq	%rax, -8(%rbp)	 # _1, __a
	movq	24(%rbp), %rax	 # __p, tmp100
	movq	%rax, -16(%rbp)	 # tmp100, __p
	movq	32(%rbp), %rax	 # __n, tmp101
	movq	%rax, -24(%rbp)	 # tmp101, __n
	movq	-8(%rbp), %rax	 # __a, tmp102
	movq	%rax, -32(%rbp)	 # tmp102, this
	movq	-16(%rbp), %rax	 # __p, tmp103
	movq	%rax, -40(%rbp)	 # tmp103, __p
	movq	-24(%rbp), %rax	 # __n, tmp104
	movq	%rax, -48(%rbp)	 # tmp104, __n
.LBB48:
.LBB49:
.LBB50:
.LBB51:
.LBB52:
.LBB53:
 # D:/msys64/ucrt64/include/c++/15.2.0/x86_64-w64-mingw32/bits/c++config.h:589:     return __builtin_is_constant_evaluated();
	.file 14 "D:/msys64/ucrt64/include/c++/15.2.0/x86_64-w64-mingw32/bits/c++config.h"
	.loc 14 589 44
	movl	$0, %eax	 #, _13
.LBE53:
.LBE52:
 # D:/msys64/ucrt64/include/c++/15.2.0/bits/allocator.h:210: 	if (std::__is_constant_evaluated())
	.loc 13 210 2 discriminator 1
	testb	%al, %al	 # _13
	je	.L80	 #,
 # D:/msys64/ucrt64/include/c++/15.2.0/bits/allocator.h:212: 	    ::operator delete(__p);
	.loc 13 212 23
	movq	-40(%rbp), %rax	 # __p, tmp105
	movq	%rax, %rcx	 # tmp105,
	call	_ZdlPv	 #
 # D:/msys64/ucrt64/include/c++/15.2.0/bits/allocator.h:213: 	    return;
	.loc 13 213 6
	jmp	.L81	 #
.L80:
 # D:/msys64/ucrt64/include/c++/15.2.0/bits/allocator.h:215: 	__allocator_base<_Tp>::deallocate(__p, __n);
	.loc 13 215 35
	movq	-48(%rbp), %rcx	 # __n, tmp106
	movq	-40(%rbp), %rdx	 # __p, tmp107
	movq	-32(%rbp), %rax	 # this, tmp108
	movq	%rcx, %r8	 # tmp106,
	movq	%rax, %rcx	 # tmp108,
	call	_ZNSt15__new_allocatorIdE10deallocateEPdy	 #
.L81:
.LBE51:
.LBE50:
 # D:/msys64/ucrt64/include/c++/15.2.0/bits/alloc_traits.h:649:       { __a.deallocate(__p, __n); }
	.loc 11 649 35
	nop	
.L82:
.LBE49:
.LBE48:
 # D:/msys64/ucrt64/include/c++/15.2.0/bits/stl_vector.h:397:       }
	.loc 10 397 7
	nop	
	addq	$80, %rsp	 #,
	popq	%rbp	 #
	.cfi_restore 6
	.cfi_def_cfa 7, 8
	ret	
	.cfi_endproc
.LFE8872:
	.seh_endproc
	.section	.text$_ZSt8_DestroyIPdEvT_S1_,"x"
	.linkonce discard
	.globl	_ZSt8_DestroyIPdEvT_S1_
	.def	_ZSt8_DestroyIPdEvT_S1_;	.scl	2;	.type	32;	.endef
	.seh_proc	_ZSt8_DestroyIPdEvT_S1_
_ZSt8_DestroyIPdEvT_S1_:
.LFB8874:
	.file 15 "D:/msys64/ucrt64/include/c++/15.2.0/bits/stl_construct.h"
	.loc 15 202 5
	.cfi_startproc
	pushq	%rbp	 #
	.seh_pushreg	%rbp
	.cfi_def_cfa_offset 16
	.cfi_offset 6, -16
	movq	%rsp, %rbp	 #,
	.seh_setframe	%rbp, 0
	.cfi_def_cfa_register 6
	subq	$48, %rsp	 #,
	.seh_stackalloc	48
	.seh_endprologue
	movq	%rcx, 16(%rbp)	 # __first, __first
	movq	%rdx, 24(%rbp)	 # __last, __last
.LBB54:
.LBB55:
 # D:/msys64/ucrt64/include/c++/15.2.0/x86_64-w64-mingw32/bits/c++config.h:589:     return __builtin_is_constant_evaluated();
	.loc 14 589 44
	movl	$0, %eax	 #, D.195245
.LBE55:
.LBE54:
 # D:/msys64/ucrt64/include/c++/15.2.0/bits/stl_construct.h:214:       else if (std::__is_constant_evaluated())
	.loc 15 214 12 discriminator 1
	testb	%al, %al	 # D.195245
	je	.L89	 #,
 # D:/msys64/ucrt64/include/c++/15.2.0/bits/stl_construct.h:215: 	for (; __first != __last; ++__first)
	.loc 15 215 2
	jmp	.L86	 #
.L88:
	movq	16(%rbp), %rax	 # __first, tmp100
	movq	%rax, -8(%rbp)	 # tmp100, __r
.LBB56:
.LBB57:
 # D:/msys64/ucrt64/include/c++/15.2.0/bits/move.h:53:     { return __builtin_addressof(__r); }
	.file 16 "D:/msys64/ucrt64/include/c++/15.2.0/bits/move.h"
	.loc 16 53 37
	movq	-8(%rbp), %rax	 # __r, D.195249
.LBE57:
.LBE56:
 # D:/msys64/ucrt64/include/c++/15.2.0/bits/stl_construct.h:216: 	  std::destroy_at(std::__addressof(*__first));
	.loc 15 216 19 discriminator 1
	movq	%rax, %rcx	 # D.195249,
	call	_ZSt10destroy_atIdEvPT_	 #
 # D:/msys64/ucrt64/include/c++/15.2.0/bits/stl_construct.h:215: 	for (; __first != __last; ++__first)
	.loc 15 215 2 discriminator 2
	addq	$8, 16(%rbp)	 #, __first
.L86:
 # D:/msys64/ucrt64/include/c++/15.2.0/bits/stl_construct.h:215: 	for (; __first != __last; ++__first)
	.loc 15 215 17 discriminator 1
	movq	16(%rbp), %rax	 # __first, tmp101
	cmpq	24(%rbp), %rax	 # __last, tmp101
	jne	.L88	 #,
.L89:
 # D:/msys64/ucrt64/include/c++/15.2.0/bits/stl_construct.h:222:     }
	.loc 15 222 5
	nop	
	addq	$48, %rsp	 #,
	popq	%rbp	 #
	.cfi_restore 6
	.cfi_def_cfa 7, 8
	ret	
	.cfi_endproc
.LFE8874:
	.seh_endproc
	.section	.text$_ZNSt6chrono20__duration_cast_implINS_8durationIdSt5ratioILx1ELx1EEEES2_ILx1ELx1000000000EEdLb1ELb0EE6__castIxS5_EES4_RKNS1_IT_T0_EE,"x"
	.linkonce discard
	.globl	_ZNSt6chrono20__duration_cast_implINS_8durationIdSt5ratioILx1ELx1EEEES2_ILx1ELx1000000000EEdLb1ELb0EE6__castIxS5_EES4_RKNS1_IT_T0_EE
	.def	_ZNSt6chrono20__duration_cast_implINS_8durationIdSt5ratioILx1ELx1EEEES2_ILx1ELx1000000000EEdLb1ELb0EE6__castIxS5_EES4_RKNS1_IT_T0_EE;	.scl	2;	.type	32;	.endef
	.seh_proc	_ZNSt6chrono20__duration_cast_implINS_8durationIdSt5ratioILx1ELx1EEEES2_ILx1ELx1000000000EEdLb1ELb0EE6__castIxS5_EES4_RKNS1_IT_T0_EE
_ZNSt6chrono20__duration_cast_implINS_8durationIdSt5ratioILx1ELx1EEEES2_ILx1ELx1000000000EEdLb1ELb0EE6__castIxS5_EES4_RKNS1_IT_T0_EE:
.LFB8912:
	.loc 3 214 4
	.cfi_startproc
	pushq	%rbp	 #
	.seh_pushreg	%rbp
	.cfi_def_cfa_offset 16
	.cfi_offset 6, -16
	movq	%rsp, %rbp	 #,
	.seh_setframe	%rbp, 0
	.cfi_def_cfa_register 6
	subq	$48, %rsp	 #,
	.seh_stackalloc	48
	.seh_endprologue
	movq	%rcx, 16(%rbp)	 # __d, __d
 # D:/msys64/ucrt64/include/c++/15.2.0/bits/chrono.h:218: 	      static_cast<_CR>(__d.count()) / static_cast<_CR>(_CF::den)));
	.loc 3 218 34
	movq	16(%rbp), %rax	 # __d, tmp103
	movq	%rax, %rcx	 # tmp103,
	call	_ZNKSt6chrono8durationIxSt5ratioILx1ELx1000000000EEE5countEv	 #
 # D:/msys64/ucrt64/include/c++/15.2.0/bits/chrono.h:218: 	      static_cast<_CR>(__d.count()) / static_cast<_CR>(_CF::den)));
	.loc 3 218 8 discriminator 1
	pxor	%xmm0, %xmm0	 # _2
	cvtsi2sdq	%rax, %xmm0	 # _1, _2
 # D:/msys64/ucrt64/include/c++/15.2.0/bits/chrono.h:218: 	      static_cast<_CR>(__d.count()) / static_cast<_CR>(_CF::den)));
	.loc 3 218 38 discriminator 1
	movsd	.LC29(%rip), %xmm1	 #, tmp104
	divsd	%xmm1, %xmm0	 # tmp104, _3
 # D:/msys64/ucrt64/include/c++/15.2.0/bits/chrono.h:217: 	    return _ToDur(static_cast<__to_rep>(
	.loc 3 217 20
	movsd	%xmm0, -8(%rbp)	 # _3, D.168589
 # D:/msys64/ucrt64/include/c++/15.2.0/bits/chrono.h:217: 	    return _ToDur(static_cast<__to_rep>(
	.loc 3 217 13
	leaq	-8(%rbp), %rdx	 #, tmp105
	leaq	-16(%rbp), %rax	 #, tmp106
	movq	%rax, %rcx	 # tmp106,
	call	_ZNSt6chrono8durationIdSt5ratioILx1ELx1EEEC1IdvEERKT_	 #
 # D:/msys64/ucrt64/include/c++/15.2.0/bits/chrono.h:218: 	      static_cast<_CR>(__d.count()) / static_cast<_CR>(_CF::den)));
	.loc 3 218 67
	movsd	-16(%rbp), %xmm0	 # D.168590, D.195103
	movq	%xmm0, %rax	 # D.195103, <retval>
 # D:/msys64/ucrt64/include/c++/15.2.0/bits/chrono.h:219: 	  }
	.loc 3 219 4
	addq	$48, %rsp	 #,
	popq	%rbp	 #
	.cfi_restore 6
	.cfi_def_cfa 7, 8
	ret	
	.cfi_endproc
.LFE8912:
	.seh_endproc
	.section	.text$_ZSt10destroy_atIdEvPT_,"x"
	.linkonce discard
	.globl	_ZSt10destroy_atIdEvPT_
	.def	_ZSt10destroy_atIdEvPT_;	.scl	2;	.type	32;	.endef
	.seh_proc	_ZSt10destroy_atIdEvPT_
_ZSt10destroy_atIdEvPT_:
.LFB9109:
	.loc 15 80 5
	.cfi_startproc
	pushq	%rbp	 #
	.seh_pushreg	%rbp
	.cfi_def_cfa_offset 16
	.cfi_offset 6, -16
	movq	%rsp, %rbp	 #,
	.seh_setframe	%rbp, 0
	.cfi_def_cfa_register 6
	.seh_endprologue
	movq	%rcx, 16(%rbp)	 # __location, __location
 # D:/msys64/ucrt64/include/c++/15.2.0/bits/stl_construct.h:89:     }
	.loc 15 89 5
	nop	
	popq	%rbp	 #
	.cfi_restore 6
	.cfi_def_cfa 7, 8
	ret	
	.cfi_endproc
.LFE9109:
	.seh_endproc
	.section	.text$_ZNSt6chrono8durationIdSt5ratioILx1ELx1EEEC1IdvEERKT_,"x"
	.linkonce discard
	.align 2
	.globl	_ZNSt6chrono8durationIdSt5ratioILx1ELx1EEEC1IdvEERKT_
	.def	_ZNSt6chrono8durationIdSt5ratioILx1ELx1EEEC1IdvEERKT_;	.scl	2;	.type	32;	.endef
	.seh_proc	_ZNSt6chrono8durationIdSt5ratioILx1ELx1EEEC1IdvEERKT_
_ZNSt6chrono8durationIdSt5ratioILx1ELx1EEEC1IdvEERKT_:
.LFB9128:
	.loc 3 577 23
	.cfi_startproc
	pushq	%rbp	 #
	.seh_pushreg	%rbp
	.cfi_def_cfa_offset 16
	.cfi_offset 6, -16
	movq	%rsp, %rbp	 #,
	.seh_setframe	%rbp, 0
	.cfi_def_cfa_register 6
	.seh_endprologue
	movq	%rcx, 16(%rbp)	 # this, this
	movq	%rdx, 24(%rbp)	 # __rep, __rep
.LBB58:
 # D:/msys64/ucrt64/include/c++/15.2.0/bits/chrono.h:578: 	  : __r(static_cast<rep>(__rep)) { }
	.loc 3 578 10
	movq	24(%rbp), %rax	 # __rep, tmp99
	movsd	(%rax), %xmm0	 # *__rep_5(D), _1
 # D:/msys64/ucrt64/include/c++/15.2.0/bits/chrono.h:578: 	  : __r(static_cast<rep>(__rep)) { }
	.loc 3 578 6
	movq	16(%rbp), %rax	 # this, tmp100
	movsd	%xmm0, (%rax)	 # _1, this_3(D)->__r
.LBE58:
 # D:/msys64/ucrt64/include/c++/15.2.0/bits/chrono.h:578: 	  : __r(static_cast<rep>(__rep)) { }
	.loc 3 578 37
	nop	
	popq	%rbp	 #
	.cfi_restore 6
	.cfi_def_cfa 7, 8
	ret	
	.cfi_endproc
.LFE9128:
	.seh_endproc
	.section	.text$_ZNSt15__new_allocatorIdE10deallocateEPdy,"x"
	.linkonce discard
	.align 2
	.globl	_ZNSt15__new_allocatorIdE10deallocateEPdy
	.def	_ZNSt15__new_allocatorIdE10deallocateEPdy;	.scl	2;	.type	32;	.endef
	.seh_proc	_ZNSt15__new_allocatorIdE10deallocateEPdy
_ZNSt15__new_allocatorIdE10deallocateEPdy:
.LFB9292:
	.file 17 "D:/msys64/ucrt64/include/c++/15.2.0/bits/new_allocator.h"
	.loc 17 156 7
	.cfi_startproc
	pushq	%rbp	 #
	.seh_pushreg	%rbp
	.cfi_def_cfa_offset 16
	.cfi_offset 6, -16
	movq	%rsp, %rbp	 #,
	.seh_setframe	%rbp, 0
	.cfi_def_cfa_register 6
	subq	$32, %rsp	 #,
	.seh_stackalloc	32
	.seh_endprologue
	movq	%rcx, 16(%rbp)	 # this, this
	movq	%rdx, 24(%rbp)	 # __p, __p
	movq	%r8, 32(%rbp)	 # __n, __n
 # D:/msys64/ucrt64/include/c++/15.2.0/bits/new_allocator.h:172: 	_GLIBCXX_OPERATOR_DELETE(_GLIBCXX_SIZED_DEALLOC(__p, __n));
	.loc 17 172 54
	movq	32(%rbp), %rax	 # __n, tmp99
	leaq	0(,%rax,8), %rdx	 #, _2
	movq	24(%rbp), %rax	 # __p, tmp100
	movq	%rax, %rcx	 # tmp100,
	call	_ZdlPvy	 #
	nop	
 # D:/msys64/ucrt64/include/c++/15.2.0/bits/new_allocator.h:173:       }
	.loc 17 173 7
	addq	$32, %rsp	 #,
	popq	%rbp	 #
	.cfi_restore 6
	.cfi_def_cfa 7, 8
	ret	
	.cfi_endproc
.LFE9292:
	.seh_endproc
	.globl	_ZTVN3cva11instruments14EuropeanOptionE
	.section	.rdata$_ZTVN3cva11instruments14EuropeanOptionE,"dr"
	.linkonce same_size
	.align 8
_ZTVN3cva11instruments14EuropeanOptionE:
	.quad	0
	.quad	_ZTIN3cva11instruments14EuropeanOptionE
	.quad	_ZN3cva11instruments14EuropeanOptionD1Ev
	.quad	_ZN3cva11instruments14EuropeanOptionD0Ev
	.quad	_ZNK3cva11instruments14EuropeanOption5valueEdd
	.globl	_ZTVN3cva11instruments10InstrumentE
	.section	.rdata$_ZTVN3cva11instruments10InstrumentE,"dr"
	.linkonce same_size
	.align 8
_ZTVN3cva11instruments10InstrumentE:
	.quad	0
	.quad	_ZTIN3cva11instruments10InstrumentE
	.quad	0
	.quad	0
	.quad	__cxa_pure_virtual
	.globl	_ZTIN3cva11instruments14EuropeanOptionE
	.section	.rdata$_ZTIN3cva11instruments14EuropeanOptionE,"dr"
	.linkonce same_size
	.align 8
_ZTIN3cva11instruments14EuropeanOptionE:
 # <anonymous>:
 # <anonymous>:
	.quad	_ZTVN10__cxxabiv120__si_class_type_infoE+16
 # <anonymous>:
	.quad	_ZTSN3cva11instruments14EuropeanOptionE
 # <anonymous>:
	.quad	_ZTIN3cva11instruments10InstrumentE
	.globl	_ZTSN3cva11instruments14EuropeanOptionE
	.section	.rdata$_ZTSN3cva11instruments14EuropeanOptionE,"dr"
	.linkonce same_size
	.align 32
_ZTSN3cva11instruments14EuropeanOptionE:
	.ascii "N3cva11instruments14EuropeanOptionE\0"
	.globl	_ZTIN3cva11instruments10InstrumentE
	.section	.rdata$_ZTIN3cva11instruments10InstrumentE,"dr"
	.linkonce same_size
	.align 8
_ZTIN3cva11instruments10InstrumentE:
 # <anonymous>:
 # <anonymous>:
	.quad	_ZTVN10__cxxabiv117__class_type_infoE+16
 # <anonymous>:
	.quad	_ZTSN3cva11instruments10InstrumentE
	.globl	_ZTSN3cva11instruments10InstrumentE
	.section	.rdata$_ZTSN3cva11instruments10InstrumentE,"dr"
	.linkonce same_size
	.align 32
_ZTSN3cva11instruments10InstrumentE:
	.ascii "N3cva11instruments10InstrumentE\0"
	.section .rdata,"dr"
	.align 16
.LC0:
	.long	0
	.long	-2147483648
	.long	0
	.long	0
	.align 8
.LC1:
	.long	1719614412
	.long	1072079006
	.align 8
.LC2:
	.long	0
	.long	1071644672
	.align 8
.LC6:
	.long	0
	.long	1072693248
	.align 8
.LC7:
	.long	0
	.long	1079574528
	.align 8
.LC8:
	.long	-1717986918
	.long	1068079513
	.align 8
.LC9:
	.long	-1717986918
	.long	1070176665
	.align 8
.LC10:
	.long	1202590843
	.long	1066695393
	.align 8
.LC11:
	.long	-1717986918
	.long	1071225241
	.align 8
.LC29:
	.long	0
	.long	1104006501
	.weak	__cxa_pure_virtual
	.text
.Letext0:
	.file 18 "D:/msys64/ucrt64/include/corecrt.h"
	.file 19 "D:/msys64/ucrt64/include/wchar.h"
	.file 20 "D:/msys64/ucrt64/include/c++/15.2.0/cwchar"
	.file 21 "D:/msys64/ucrt64/include/c++/15.2.0/type_traits"
	.file 22 "D:/msys64/ucrt64/include/c++/15.2.0/bits/exception_ptr.h"
	.file 23 "D:/msys64/ucrt64/include/c++/15.2.0/concepts"
	.file 24 "D:/msys64/ucrt64/include/c++/15.2.0/bits/iterator_concepts.h"
	.file 25 "D:/msys64/ucrt64/include/c++/15.2.0/compare"
	.file 26 "D:/msys64/ucrt64/include/c++/15.2.0/bits/ranges_cmp.h"
	.file 27 "D:/msys64/ucrt64/include/c++/15.2.0/bits/char_traits.h"
	.file 28 "D:/msys64/ucrt64/include/c++/15.2.0/clocale"
	.file 29 "D:/msys64/ucrt64/include/c++/15.2.0/debug/debug.h"
	.file 30 "D:/msys64/ucrt64/include/c++/15.2.0/numbers"
	.file 31 "D:/msys64/ucrt64/include/c++/15.2.0/cstdlib"
	.file 32 "D:/msys64/ucrt64/include/c++/15.2.0/cstdio"
	.file 33 "D:/msys64/ucrt64/include/c++/15.2.0/cstddef"
	.file 34 "D:/msys64/ucrt64/include/c++/15.2.0/bits/memory_resource.h"
	.file 35 "D:/msys64/ucrt64/include/c++/15.2.0/system_error"
	.file 36 "D:/msys64/ucrt64/include/c++/15.2.0/cwctype"
	.file 37 "D:/msys64/ucrt64/include/c++/15.2.0/bits/ostream.h"
	.file 38 "D:/msys64/ucrt64/include/c++/15.2.0/iosfwd"
	.file 39 "D:/msys64/ucrt64/include/c++/15.2.0/ctime"
	.file 40 "D:/msys64/ucrt64/include/c++/15.2.0/cstdint"
	.file 41 "D:/msys64/ucrt64/include/c++/15.2.0/ratio"
	.file 42 "D:/msys64/ucrt64/include/c++/15.2.0/string_view"
	.file 43 "D:/msys64/ucrt64/include/c++/15.2.0/bits/shared_ptr_base.h"
	.file 44 "D:/msys64/ucrt64/include/c++/15.2.0/bits/parse_numbers.h"
	.file 45 "D:/msys64/ucrt64/include/c++/15.2.0/charconv"
	.file 46 "D:/msys64/ucrt64/include/c++/15.2.0/x86_64-w64-mingw32/bits/error_constants.h"
	.file 47 "D:/msys64/ucrt64/include/c++/15.2.0/bits/unicode.h"
	.file 48 "D:/msys64/ucrt64/include/c++/15.2.0/bits/stl_pair.h"
	.file 49 "D:/msys64/ucrt64/include/c++/15.2.0/bits/formatfwd.h"
	.file 50 "D:/msys64/ucrt64/include/c++/15.2.0/format"
	.file 51 "D:/msys64/ucrt64/include/c++/15.2.0/bits/vector.tcc"
	.file 52 "D:/msys64/ucrt64/include/c++/15.2.0/initializer_list"
	.file 53 "D:/msys64/ucrt64/include/c++/15.2.0/cmath"
	.file 54 "D:/msys64/ucrt64/include/c++/15.2.0/bits/random.h"
	.file 55 "D:/msys64/ucrt64/include/c++/15.2.0/bits/stl_iterator_base_types.h"
	.file 56 "D:/msys64/ucrt64/include/c++/15.2.0/bits/random.tcc"
	.file 57 "D:/msys64/ucrt64/include/c++/15.2.0/ostream"
	.file 58 "D:/msys64/ucrt64/include/swprintf.inl"
	.file 59 "D:/msys64/ucrt64/include/c++/15.2.0/bits/predefined_ops.h"
	.file 60 "D:/msys64/ucrt64/include/c++/15.2.0/ext/concurrence.h"
	.file 61 "D:/msys64/ucrt64/include/c++/15.2.0/ext/alloc_traits.h"
	.file 62 "D:/msys64/ucrt64/include/c++/15.2.0/bits/stl_iterator.h"
	.file 63 "D:/msys64/ucrt64/include/stddef.h"
	.file 64 "D:/msys64/ucrt64/include/stdio.h"
	.file 65 "D:/msys64/ucrt64/include/locale.h"
	.file 66 "D:/msys64/ucrt64/include/sys/types.h"
	.file 67 "D:/msys64/ucrt64/include/time.h"
	.file 68 "D:/msys64/ucrt64/include/c++/15.2.0/bits/ptr_traits.h"
	.file 69 "D:/msys64/ucrt64/include/stdlib.h"
	.file 70 "D:/msys64/ucrt64/include/process.h"
	.file 71 "D:/msys64/ucrt64/include/wctype.h"
	.file 72 "D:/msys64/ucrt64/include/corecrt_wctype.h"
	.file 73 "D:/msys64/ucrt64/include/stdint.h"
	.file 74 "E:/Projects/Simulation_Projects/cva_cpp/includes_hpp/math/random.hpp"
	.file 75 "D:/msys64/ucrt64/include/math.h"
	.file 76 "D:/msys64/ucrt64/include/c++/15.2.0/pstl/execution_defs.h"
	.file 77 "D:/msys64/ucrt64/include/c++/15.2.0/new"
	.file 78 "D:/msys64/ucrt64/include/c++/15.2.0/iostream"
	.section	.rdata$.refptr._ZSt4endlIcSt11char_traitsIcEERSt13basic_ostreamIT_T0_ES6_, "dr"
	.p2align	3, 0
	.globl	.refptr._ZSt4endlIcSt11char_traitsIcEERSt13basic_ostreamIT_T0_ES6_
	.linkonce	discard
.refptr._ZSt4endlIcSt11char_traitsIcEERSt13basic_ostreamIT_T0_ES6_:
	.quad	_ZSt4endlIcSt11char_traitsIcEERSt13basic_ostreamIT_T0_ES6_
	.section	.rdata$.refptr._ZSt4cout, "dr"
	.p2align	3, 0
	.globl	.refptr._ZSt4cout
	.linkonce	discard
.refptr._ZSt4cout:
	.quad	_ZSt4cout
