	.file	"test_cva.cpp"
 # GNU C++20 (Rev8, Built by MSYS2 project) version 15.2.0 (x86_64-w64-mingw32)
 #	compiled by GNU C version 15.2.0, GMP version 6.3.0, MPFR version 4.2.2, MPC version 1.3.1, isl version isl-0.27-GMP

 # GGC heuristics: --param ggc-min-expand=100 --param ggc-min-heapsize=131072
 # options passed: -mtune=generic -march=nocona -g -std=c++20
	.text
.Ltext0:
	.cfi_sections	.debug_frame
	.file 0 "E://Projects//Simulation_Projects//cva_cpp//build//tests" "E:/Projects/Simulation_Projects/cva_cpp/tests/test_cva.cpp"
	.section	.text$_ZSt21is_constant_evaluatedv,"x"
	.linkonce discard
	.globl	_ZSt21is_constant_evaluatedv
	.def	_ZSt21is_constant_evaluatedv;	.scl	2;	.type	32;	.endef
	.seh_proc	_ZSt21is_constant_evaluatedv
_ZSt21is_constant_evaluatedv:
.LFB15:
	.file 1 "D:/msys64/ucrt64/include/c++/15.2.0/type_traits"
	.loc 1 4007 3
	.cfi_startproc
	pushq	%rbp	 #
	.seh_pushreg	%rbp
	.cfi_def_cfa_offset 16
	.cfi_offset 6, -16
	movq	%rsp, %rbp	 #,
	.seh_setframe	%rbp, 0
	.cfi_def_cfa_register 6
	.seh_endprologue
 # D:/msys64/ucrt64/include/c++/15.2.0/type_traits:4011:     return __builtin_is_constant_evaluated();
	.loc 1 4011 44
	movl	$0, %eax	 #, _1
 # D:/msys64/ucrt64/include/c++/15.2.0/type_traits:4013:   }
	.loc 1 4013 3
	popq	%rbp	 #
	.cfi_restore 6
	.cfi_def_cfa 7, 8
	ret	
	.cfi_endproc
.LFE15:
	.seh_endproc
	.section	.text$_ZnwyPv,"x"
	.linkonce discard
	.globl	_ZnwyPv
	.def	_ZnwyPv;	.scl	2;	.type	32;	.endef
	.seh_proc	_ZnwyPv
_ZnwyPv:
.LFB203:
	.file 2 "D:/msys64/ucrt64/include/c++/15.2.0/new"
	.loc 2 208 1
	.cfi_startproc
	pushq	%rbp	 #
	.seh_pushreg	%rbp
	.cfi_def_cfa_offset 16
	.cfi_offset 6, -16
	movq	%rsp, %rbp	 #,
	.seh_setframe	%rbp, 0
	.cfi_def_cfa_register 6
	.seh_endprologue
	movq	%rcx, 16(%rbp)	 # D.12411, D.12411
	movq	%rdx, 24(%rbp)	 # __p, __p
 # D:/msys64/ucrt64/include/c++/15.2.0/new:208: { return __p; }
	.loc 2 208 10
	movq	24(%rbp), %rax	 # __p, _2
 # D:/msys64/ucrt64/include/c++/15.2.0/new:208: { return __p; }
	.loc 2 208 15
	popq	%rbp	 #
	.cfi_restore 6
	.cfi_def_cfa 7, 8
	ret	
	.cfi_endproc
.LFE203:
	.seh_endproc
	.section	.text$_ZdlPvS_,"x"
	.linkonce discard
	.globl	_ZdlPvS_
	.def	_ZdlPvS_;	.scl	2;	.type	32;	.endef
	.seh_proc	_ZdlPvS_
_ZdlPvS_:
.LFB205:
	.loc 2 219 1
	.cfi_startproc
	pushq	%rbp	 #
	.seh_pushreg	%rbp
	.cfi_def_cfa_offset 16
	.cfi_offset 6, -16
	movq	%rsp, %rbp	 #,
	.seh_setframe	%rbp, 0
	.cfi_def_cfa_register 6
	.seh_endprologue
	movq	%rcx, 16(%rbp)	 # D.12419, D.12419
	movq	%rdx, 24(%rbp)	 # D.12420, D.12420
 # D:/msys64/ucrt64/include/c++/15.2.0/new:219: { }
	.loc 2 219 3
	nop	
	popq	%rbp	 #
	.cfi_restore 6
	.cfi_def_cfa 7, 8
	ret	
	.cfi_endproc
.LFE205:
	.seh_endproc
	.section	.text$_ZSt3absd,"x"
	.linkonce discard
	.globl	_ZSt3absd
	.def	_ZSt3absd;	.scl	2;	.type	32;	.endef
	.seh_proc	_ZSt3absd
_ZSt3absd:
.LFB2207:
	.file 3 "D:/msys64/ucrt64/include/c++/15.2.0/bits/std_abs.h"
	.loc 3 78 3
	.cfi_startproc
	pushq	%rbp	 #
	.seh_pushreg	%rbp
	.cfi_def_cfa_offset 16
	.cfi_offset 6, -16
	movq	%rsp, %rbp	 #,
	.seh_setframe	%rbp, 0
	.cfi_def_cfa_register 6
	.seh_endprologue
	movsd	%xmm0, 16(%rbp)	 # __x, __x
 # D:/msys64/ucrt64/include/c++/15.2.0/bits/std_abs.h:78:   { return __builtin_fabs(__x); }
	.loc 3 78 30
	movsd	16(%rbp), %xmm0	 # __x, tmp100
	movq	.LC0(%rip), %xmm1	 #, tmp101
	andpd	%xmm1, %xmm0	 # tmp101, _2
 # D:/msys64/ucrt64/include/c++/15.2.0/bits/std_abs.h:78:   { return __builtin_fabs(__x); }
	.loc 3 78 33
	popq	%rbp	 #
	.cfi_restore 6
	.cfi_def_cfa 7, 8
	ret	
	.cfi_endproc
.LFE2207:
	.seh_endproc
	.section	.text$_ZN3cva4math6MatrixC1Eyyd,"x"
	.linkonce discard
	.align 2
	.globl	_ZN3cva4math6MatrixC1Eyyd
	.def	_ZN3cva4math6MatrixC1Eyyd;	.scl	2;	.type	32;	.endef
	.seh_proc	_ZN3cva4math6MatrixC1Eyyd
_ZN3cva4math6MatrixC1Eyyd:
.LFB2950:
	.file 4 "E:/Projects/Simulation_Projects/cva_cpp/includes_hpp/math/matrix.hpp"
	.loc 4 15 9
	.cfi_startproc
	pushq	%rbp	 #
	.seh_pushreg	%rbp
	.cfi_def_cfa_offset 16
	.cfi_offset 6, -16
	movq	%rsp, %rbp	 #,
	.seh_setframe	%rbp, 0
	.cfi_def_cfa_register 6
	subq	$48, %rsp	 #,
	.seh_stackalloc	48
	.seh_endprologue
	movq	%rcx, 16(%rbp)	 # this, this
	movq	%rdx, 24(%rbp)	 # rows, rows
	movq	%r8, 32(%rbp)	 # cols, cols
	movsd	%xmm3, 40(%rbp)	 # initial_value, initial_value
.LBB123:
 # E:/Projects/Simulation_Projects/cva_cpp/includes_hpp/math/matrix.hpp:16:             : rows_(rows), cols_(cols), data_(rows * cols, initial_value) {}
	.loc 4 16 15
	movq	16(%rbp), %rax	 # this, tmp101
	movq	24(%rbp), %rdx	 # rows, tmp102
	movq	%rdx, (%rax)	 # tmp102, this_5(D)->rows_
 # E:/Projects/Simulation_Projects/cva_cpp/includes_hpp/math/matrix.hpp:16:             : rows_(rows), cols_(cols), data_(rows * cols, initial_value) {}
	.loc 4 16 28
	movq	16(%rbp), %rax	 # this, tmp103
	movq	32(%rbp), %rdx	 # cols, tmp104
	movq	%rdx, 8(%rax)	 # tmp104, this_5(D)->cols_
 # E:/Projects/Simulation_Projects/cva_cpp/includes_hpp/math/matrix.hpp:16:             : rows_(rows), cols_(cols), data_(rows * cols, initial_value) {}
	.loc 4 16 41
	movq	16(%rbp), %rax	 # this, tmp105
	leaq	16(%rax), %rcx	 #, _1
	leaq	-9(%rbp), %rax	 #, tmp106
	movq	%rax, -8(%rbp)	 # tmp106, this
.LBB124:
.LBB125:
.LBB126:
.LBB127:
.LBB128:
 # D:/msys64/ucrt64/include/c++/15.2.0/bits/new_allocator.h:88:       __new_allocator() _GLIBCXX_USE_NOEXCEPT { }
	.file 5 "D:/msys64/ucrt64/include/c++/15.2.0/bits/new_allocator.h"
	.loc 5 88 36
	nop	
.LBE128:
.LBE127:
.LBE126:
 # D:/msys64/ucrt64/include/c++/15.2.0/bits/allocator.h:168:       allocator() _GLIBCXX_NOTHROW { }
	.file 6 "D:/msys64/ucrt64/include/c++/15.2.0/bits/allocator.h"
	.loc 6 168 30
	nop	
.LBE125:
.LBE124:
 # E:/Projects/Simulation_Projects/cva_cpp/includes_hpp/math/matrix.hpp:16:             : rows_(rows), cols_(cols), data_(rows * cols, initial_value) {}
	.loc 4 16 41 discriminator 1
	movq	24(%rbp), %rax	 # rows, tmp107
	imulq	32(%rbp), %rax	 # cols, _2
	leaq	-9(%rbp), %r8	 #, tmp108
	leaq	40(%rbp), %rdx	 #, tmp109
	movq	%r8, %r9	 # tmp108,
	movq	%rdx, %r8	 # tmp109,
	movq	%rax, %rdx	 # _2,
	call	_ZNSt6vectorIdSaIdEEC1EyRKdRKS0_	 #
.LBB129:
.LBB130:
 # D:/msys64/ucrt64/include/c++/15.2.0/bits/allocator.h:189:       ~allocator() _GLIBCXX_NOTHROW { }
	.loc 6 189 31
	nop	
.LBE130:
.LBE129:
.LBE123:
 # E:/Projects/Simulation_Projects/cva_cpp/includes_hpp/math/matrix.hpp:16:             : rows_(rows), cols_(cols), data_(rows * cols, initial_value) {}
	.loc 4 16 76
	nop	
	addq	$48, %rsp	 #,
	popq	%rbp	 #
	.cfi_restore 6
	.cfi_def_cfa 7, 8
	ret	
	.cfi_endproc
.LFE2950:
	.seh_endproc
	.section	.text$_ZN3cva4math6MatrixclEyy,"x"
	.linkonce discard
	.align 2
	.globl	_ZN3cva4math6MatrixclEyy
	.def	_ZN3cva4math6MatrixclEyy;	.scl	2;	.type	32;	.endef
	.seh_proc	_ZN3cva4math6MatrixclEyy
_ZN3cva4math6MatrixclEyy:
.LFB2953:
	.loc 4 22 17
	.cfi_startproc
	pushq	%rbp	 #
	.seh_pushreg	%rbp
	.cfi_def_cfa_offset 16
	.cfi_offset 6, -16
	movq	%rsp, %rbp	 #,
	.seh_setframe	%rbp, 0
	.cfi_def_cfa_register 6
	subq	$32, %rsp	 #,
	.seh_stackalloc	32
	.seh_endprologue
	movq	%rcx, 16(%rbp)	 # this, this
	movq	%rdx, 24(%rbp)	 # i, i
	movq	%r8, 32(%rbp)	 # j, j
 # E:/Projects/Simulation_Projects/cva_cpp/includes_hpp/math/matrix.hpp:23:             return data_[i * cols_ + j];
	.loc 4 23 39
	movq	16(%rbp), %rax	 # this, tmp104
	addq	$16, %rax	 #, _1
 # E:/Projects/Simulation_Projects/cva_cpp/includes_hpp/math/matrix.hpp:23:             return data_[i * cols_ + j];
	.loc 4 23 30
	movq	16(%rbp), %rdx	 # this, tmp105
	movq	8(%rdx), %rdx	 # this_5(D)->cols_, _2
 # E:/Projects/Simulation_Projects/cva_cpp/includes_hpp/math/matrix.hpp:23:             return data_[i * cols_ + j];
	.loc 4 23 28
	movq	%rdx, %rcx	 # _2, _2
	imulq	24(%rbp), %rcx	 # i, _2
 # E:/Projects/Simulation_Projects/cva_cpp/includes_hpp/math/matrix.hpp:23:             return data_[i * cols_ + j];
	.loc 4 23 39
	movq	32(%rbp), %rdx	 # j, tmp106
	addq	%rcx, %rdx	 # _3, _4
	movq	%rax, %rcx	 # _1,
	call	_ZNSt6vectorIdSaIdEEixEy	 #
 # E:/Projects/Simulation_Projects/cva_cpp/includes_hpp/math/matrix.hpp:24:         }
	.loc 4 24 9
	addq	$32, %rsp	 #,
	popq	%rbp	 #
	.cfi_restore 6
	.cfi_def_cfa 7, 8
	ret	
	.cfi_endproc
.LFE2953:
	.seh_endproc
	.section	.text$_ZN3cva11instruments10InstrumentC2Ev,"x"
	.linkonce discard
	.align 2
	.globl	_ZN3cva11instruments10InstrumentC2Ev
	.def	_ZN3cva11instruments10InstrumentC2Ev;	.scl	2;	.type	32;	.endef
	.seh_proc	_ZN3cva11instruments10InstrumentC2Ev
_ZN3cva11instruments10InstrumentC2Ev:
.LFB4893:
	.file 7 "E:/Projects/Simulation_Projects/cva_cpp/includes_hpp/instruments/instrument.hpp"
	.loc 7 15 11
	.cfi_startproc
	pushq	%rbp	 #
	.seh_pushreg	%rbp
	.cfi_def_cfa_offset 16
	.cfi_offset 6, -16
	movq	%rsp, %rbp	 #,
	.seh_setframe	%rbp, 0
	.cfi_def_cfa_register 6
	.seh_endprologue
	movq	%rcx, 16(%rbp)	 # this, this
.LBB131:
 # E:/Projects/Simulation_Projects/cva_cpp/includes_hpp/instruments/instrument.hpp:15:     class Instrument {
	.loc 7 15 11
	leaq	16+_ZTVN3cva11instruments10InstrumentE(%rip), %rdx	 #, _1
	movq	16(%rbp), %rax	 # this, tmp99
	movq	%rdx, (%rax)	 # _1, this_3(D)->_vptr.Instrument
.LBE131:
	nop	
	popq	%rbp	 #
	.cfi_restore 6
	.cfi_def_cfa 7, 8
	ret	
	.cfi_endproc
.LFE4893:
	.seh_endproc
	.section	.text$_ZN3cva11instruments10InstrumentD2Ev,"x"
	.linkonce discard
	.align 2
	.globl	_ZN3cva11instruments10InstrumentD2Ev
	.def	_ZN3cva11instruments10InstrumentD2Ev;	.scl	2;	.type	32;	.endef
	.seh_proc	_ZN3cva11instruments10InstrumentD2Ev
_ZN3cva11instruments10InstrumentD2Ev:
.LFB4896:
	.loc 7 17 17
	.cfi_startproc
	pushq	%rbp	 #
	.seh_pushreg	%rbp
	.cfi_def_cfa_offset 16
	.cfi_offset 6, -16
	movq	%rsp, %rbp	 #,
	.seh_setframe	%rbp, 0
	.cfi_def_cfa_register 6
	.seh_endprologue
	movq	%rcx, 16(%rbp)	 # this, this
.LBB132:
 # E:/Projects/Simulation_Projects/cva_cpp/includes_hpp/instruments/instrument.hpp:17:         virtual ~Instrument() = default;
	.loc 7 17 17
	leaq	16+_ZTVN3cva11instruments10InstrumentE(%rip), %rdx	 #, _1
	movq	16(%rbp), %rax	 # this, tmp99
	movq	%rdx, (%rax)	 # _1, this_3(D)->_vptr.Instrument
.LBE132:
	nop	
	popq	%rbp	 #
	.cfi_restore 6
	.cfi_def_cfa 7, 8
	ret	
	.cfi_endproc
.LFE4896:
	.seh_endproc
	.section	.text$_ZN3cva11instruments14EuropeanOptionC1ENS0_10OptionTypeEdddd,"x"
	.linkonce discard
	.align 2
	.globl	_ZN3cva11instruments14EuropeanOptionC1ENS0_10OptionTypeEdddd
	.def	_ZN3cva11instruments14EuropeanOptionC1ENS0_10OptionTypeEdddd;	.scl	2;	.type	32;	.endef
	.seh_proc	_ZN3cva11instruments14EuropeanOptionC1ENS0_10OptionTypeEdddd
_ZN3cva11instruments14EuropeanOptionC1ENS0_10OptionTypeEdddd:
.LFB4903:
	.file 8 "E:/Projects/Simulation_Projects/cva_cpp/includes_hpp/instruments/vanilla.hpp"
	.loc 8 53 9
	.cfi_startproc
	pushq	%rbp	 #
	.seh_pushreg	%rbp
	.cfi_def_cfa_offset 16
	.cfi_offset 6, -16
	movq	%rsp, %rbp	 #,
	.seh_setframe	%rbp, 0
	.cfi_def_cfa_register 6
	subq	$32, %rsp	 #,
	.seh_stackalloc	32
	.seh_endprologue
	movq	%rcx, 16(%rbp)	 # this, this
	movl	%edx, 24(%rbp)	 # type, type
	movsd	%xmm2, 32(%rbp)	 # strike, strike
	movsd	%xmm3, 40(%rbp)	 # expiry, expiry
.LBB133:
 # E:/Projects/Simulation_Projects/cva_cpp/includes_hpp/instruments/vanilla.hpp:54:             : type_(type), strike_(strike), expiry_(expiry), r_(r), vol_(vol) {}
	.loc 8 54 77
	movq	16(%rbp), %rax	 # this, _1
	movq	%rax, %rcx	 # _1,
	call	_ZN3cva11instruments10InstrumentC2Ev	 #
 # E:/Projects/Simulation_Projects/cva_cpp/includes_hpp/instruments/vanilla.hpp:54:             : type_(type), strike_(strike), expiry_(expiry), r_(r), vol_(vol) {}
	.loc 8 54 77 is_stmt 0 discriminator 1
	leaq	16+_ZTVN3cva11instruments14EuropeanOptionE(%rip), %rdx	 #, _2
	movq	16(%rbp), %rax	 # this, tmp101
	movq	%rdx, (%rax)	 # _2, this_5(D)->D.95428._vptr.Instrument
 # E:/Projects/Simulation_Projects/cva_cpp/includes_hpp/instruments/vanilla.hpp:54:             : type_(type), strike_(strike), expiry_(expiry), r_(r), vol_(vol) {}
	.loc 8 54 15 is_stmt 1 discriminator 1
	movq	16(%rbp), %rax	 # this, tmp102
	movl	24(%rbp), %edx	 # type, tmp103
	movl	%edx, 8(%rax)	 # tmp103, this_5(D)->type_
 # E:/Projects/Simulation_Projects/cva_cpp/includes_hpp/instruments/vanilla.hpp:54:             : type_(type), strike_(strike), expiry_(expiry), r_(r), vol_(vol) {}
	.loc 8 54 28 discriminator 1
	movq	16(%rbp), %rax	 # this, tmp104
	movsd	32(%rbp), %xmm0	 # strike, tmp105
	movsd	%xmm0, 16(%rax)	 # tmp105, this_5(D)->strike_
 # E:/Projects/Simulation_Projects/cva_cpp/includes_hpp/instruments/vanilla.hpp:54:             : type_(type), strike_(strike), expiry_(expiry), r_(r), vol_(vol) {}
	.loc 8 54 45 discriminator 1
	movq	16(%rbp), %rax	 # this, tmp106
	movsd	40(%rbp), %xmm0	 # expiry, tmp107
	movsd	%xmm0, 24(%rax)	 # tmp107, this_5(D)->expiry_
 # E:/Projects/Simulation_Projects/cva_cpp/includes_hpp/instruments/vanilla.hpp:54:             : type_(type), strike_(strike), expiry_(expiry), r_(r), vol_(vol) {}
	.loc 8 54 62 discriminator 1
	movq	16(%rbp), %rax	 # this, tmp108
	movsd	48(%rbp), %xmm0	 # r, tmp109
	movsd	%xmm0, 32(%rax)	 # tmp109, this_5(D)->r_
 # E:/Projects/Simulation_Projects/cva_cpp/includes_hpp/instruments/vanilla.hpp:54:             : type_(type), strike_(strike), expiry_(expiry), r_(r), vol_(vol) {}
	.loc 8 54 69 discriminator 1
	movq	16(%rbp), %rax	 # this, tmp110
	movsd	56(%rbp), %xmm0	 # vol, tmp111
	movsd	%xmm0, 40(%rax)	 # tmp111, this_5(D)->vol_
.LBE133:
 # E:/Projects/Simulation_Projects/cva_cpp/includes_hpp/instruments/vanilla.hpp:54:             : type_(type), strike_(strike), expiry_(expiry), r_(r), vol_(vol) {}
	.loc 8 54 80
	nop	
	addq	$32, %rsp	 #,
	popq	%rbp	 #
	.cfi_restore 6
	.cfi_def_cfa 7, 8
	ret	
	.cfi_endproc
.LFE4903:
	.seh_endproc
	.section	.text$_ZZNK3cva11instruments14EuropeanOption5valueEddENKUldE_clEd,"x"
	.linkonce discard
	.align 2
	.globl	_ZZNK3cva11instruments14EuropeanOption5valueEddENKUldE_clEd
	.def	_ZZNK3cva11instruments14EuropeanOption5valueEddENKUldE_clEd;	.scl	2;	.type	32;	.endef
	.seh_proc	_ZZNK3cva11instruments14EuropeanOption5valueEddENKUldE_clEd
_ZZNK3cva11instruments14EuropeanOption5valueEddENKUldE_clEd:
.LFB4905:
	.loc 8 74 28
	.cfi_startproc
	pushq	%rbp	 #
	.seh_pushreg	%rbp
	.cfi_def_cfa_offset 16
	.cfi_offset 6, -16
	movq	%rsp, %rbp	 #,
	.seh_setframe	%rbp, 0
	.cfi_def_cfa_register 6
	subq	$32, %rsp	 #,
	.seh_stackalloc	32
	.seh_endprologue
	movq	%rcx, 16(%rbp)	 # __closure, __closure
	movsd	%xmm1, 24(%rbp)	 # x, x
 # E:/Projects/Simulation_Projects/cva_cpp/includes_hpp/instruments/vanilla.hpp:74:                 auto cdf = [inv_sqrt2](double x) { return 0.5 * std::erfc(-x * inv_sqrt2); };
	.loc 8 74 75
	movsd	24(%rbp), %xmm0	 # x, tmp103
	movq	.LC1(%rip), %xmm1	 #, tmp104
	xorpd	%xmm0, %xmm1	 # tmp103, _1
 # E:/Projects/Simulation_Projects/cva_cpp/includes_hpp/instruments/vanilla.hpp:74:                 auto cdf = [inv_sqrt2](double x) { return 0.5 * std::erfc(-x * inv_sqrt2); };
	.loc 8 74 74
	movsd	.LC2(%rip), %xmm0	 #, tmp105
	mulsd	%xmm0, %xmm1	 # tmp105, _1
	movq	%xmm1, %rax	 # _1, _2
	movq	%rax, %xmm0	 # _2,
	call	erfc	 #
 # E:/Projects/Simulation_Projects/cva_cpp/includes_hpp/instruments/vanilla.hpp:74:                 auto cdf = [inv_sqrt2](double x) { return 0.5 * std::erfc(-x * inv_sqrt2); };
	.loc 8 74 89 discriminator 1
	movsd	.LC3(%rip), %xmm1	 #, tmp106
	mulsd	%xmm1, %xmm0	 # tmp106, _7
 # E:/Projects/Simulation_Projects/cva_cpp/includes_hpp/instruments/vanilla.hpp:74:                 auto cdf = [inv_sqrt2](double x) { return 0.5 * std::erfc(-x * inv_sqrt2); };
	.loc 8 74 92
	addq	$32, %rsp	 #,
	popq	%rbp	 #
	.cfi_restore 6
	.cfi_def_cfa 7, 8
	ret	
	.cfi_endproc
.LFE4905:
	.seh_endproc
	.section	.text$_ZZNK3cva11instruments14EuropeanOption5valueEddENKUldE0_clEd,"x"
	.linkonce discard
	.align 2
	.globl	_ZZNK3cva11instruments14EuropeanOption5valueEddENKUldE0_clEd
	.def	_ZZNK3cva11instruments14EuropeanOption5valueEddENKUldE0_clEd;	.scl	2;	.type	32;	.endef
	.seh_proc	_ZZNK3cva11instruments14EuropeanOption5valueEddENKUldE0_clEd
_ZZNK3cva11instruments14EuropeanOption5valueEddENKUldE0_clEd:
.LFB4906:
	.loc 8 77 29
	.cfi_startproc
	pushq	%rbp	 #
	.seh_pushreg	%rbp
	.cfi_def_cfa_offset 16
	.cfi_offset 6, -16
	movq	%rsp, %rbp	 #,
	.seh_setframe	%rbp, 0
	.cfi_def_cfa_register 6
	subq	$32, %rsp	 #,
	.seh_stackalloc	32
	.seh_endprologue
	movq	%rcx, 16(%rbp)	 # __closure, __closure
	movsd	%xmm1, 24(%rbp)	 # x, x
 # E:/Projects/Simulation_Projects/cva_cpp/includes_hpp/instruments/vanilla.hpp:77:                  auto cdf = [inv_sqrt2](double x) { return 0.5 * std::erfc(-x * inv_sqrt2); };
	.loc 8 77 76
	movsd	24(%rbp), %xmm0	 # x, tmp103
	movq	.LC1(%rip), %xmm1	 #, tmp104
	xorpd	%xmm0, %xmm1	 # tmp103, _1
 # E:/Projects/Simulation_Projects/cva_cpp/includes_hpp/instruments/vanilla.hpp:77:                  auto cdf = [inv_sqrt2](double x) { return 0.5 * std::erfc(-x * inv_sqrt2); };
	.loc 8 77 75
	movsd	.LC2(%rip), %xmm0	 #, tmp105
	mulsd	%xmm0, %xmm1	 # tmp105, _1
	movq	%xmm1, %rax	 # _1, _2
	movq	%rax, %xmm0	 # _2,
	call	erfc	 #
 # E:/Projects/Simulation_Projects/cva_cpp/includes_hpp/instruments/vanilla.hpp:77:                  auto cdf = [inv_sqrt2](double x) { return 0.5 * std::erfc(-x * inv_sqrt2); };
	.loc 8 77 90 discriminator 1
	movsd	.LC3(%rip), %xmm1	 #, tmp106
	mulsd	%xmm1, %xmm0	 # tmp106, _7
 # E:/Projects/Simulation_Projects/cva_cpp/includes_hpp/instruments/vanilla.hpp:77:                  auto cdf = [inv_sqrt2](double x) { return 0.5 * std::erfc(-x * inv_sqrt2); };
	.loc 8 77 93
	addq	$32, %rsp	 #,
	popq	%rbp	 #
	.cfi_restore 6
	.cfi_def_cfa 7, 8
	ret	
	.cfi_endproc
.LFE4906:
	.seh_endproc
	.section	.text$_ZNK3cva11instruments14EuropeanOption5valueEdd,"x"
	.linkonce discard
	.align 2
	.globl	_ZNK3cva11instruments14EuropeanOption5valueEdd
	.def	_ZNK3cva11instruments14EuropeanOption5valueEdd;	.scl	2;	.type	32;	.endef
	.seh_proc	_ZNK3cva11instruments14EuropeanOption5valueEdd
_ZNK3cva11instruments14EuropeanOption5valueEdd:
.LFB4904:
	.loc 8 56 30
	.cfi_startproc
	pushq	%rbp	 #
	.seh_pushreg	%rbp
	.cfi_def_cfa_offset 16
	.cfi_offset 6, -16
	subq	$144, %rsp	 #,
	.seh_stackalloc	144
	.cfi_def_cfa_offset 160
	leaq	112(%rsp), %rbp	 #,
	.seh_setframe	%rbp, 112
	.cfi_def_cfa 6, 48
	movups	%xmm6, 0(%rbp)	 #,
	.seh_savexmm	%xmm6, 112
	movups	%xmm7, 16(%rbp)	 #,
	.seh_savexmm	%xmm7, 128
	.cfi_offset 23, -48
	.cfi_offset 24, -32
	.seh_endprologue
	movq	%rcx, 48(%rbp)	 # this, this
	movsd	%xmm1, 56(%rbp)	 # spot, spot
	movsd	%xmm2, 64(%rbp)	 # t, t
.LBB134:
 # E:/Projects/Simulation_Projects/cva_cpp/includes_hpp/instruments/vanilla.hpp:57:             if (t >= expiry_) {
	.loc 8 57 22
	movq	48(%rbp), %rax	 # this, tmp147
	movsd	24(%rax), %xmm1	 # this_53(D)->expiry_, _1
 # E:/Projects/Simulation_Projects/cva_cpp/includes_hpp/instruments/vanilla.hpp:57:             if (t >= expiry_) {
	.loc 8 57 13
	movsd	64(%rbp), %xmm0	 # t, tmp148
	comisd	%xmm1, %xmm0	 # _1, tmp148
	jb	.L27	 #,
.LBB135:
 # E:/Projects/Simulation_Projects/cva_cpp/includes_hpp/instruments/vanilla.hpp:58:                 double payoff = (type_ == OptionType::Call) ? (spot - strike_) : (strike_ - spot);
	.loc 8 58 34
	movq	48(%rbp), %rax	 # this, tmp149
	movl	8(%rax), %eax	 # this_53(D)->type_, _2
 # E:/Projects/Simulation_Projects/cva_cpp/includes_hpp/instruments/vanilla.hpp:58:                 double payoff = (type_ == OptionType::Call) ? (spot - strike_) : (strike_ - spot);
	.loc 8 58 61
	testl	%eax, %eax	 # _2
	jne	.L21	 #,
 # E:/Projects/Simulation_Projects/cva_cpp/includes_hpp/instruments/vanilla.hpp:58:                 double payoff = (type_ == OptionType::Call) ? (spot - strike_) : (strike_ - spot);
	.loc 8 58 71 discriminator 1
	movq	48(%rbp), %rax	 # this, tmp150
	movsd	16(%rax), %xmm1	 # this_53(D)->strike_, _3
 # E:/Projects/Simulation_Projects/cva_cpp/includes_hpp/instruments/vanilla.hpp:58:                 double payoff = (type_ == OptionType::Call) ? (spot - strike_) : (strike_ - spot);
	.loc 8 58 61 discriminator 1
	movsd	56(%rbp), %xmm0	 # spot, tmp151
	subsd	%xmm1, %xmm0	 # _3, iftmp.23_48
	jmp	.L22	 #
.L21:
 # E:/Projects/Simulation_Projects/cva_cpp/includes_hpp/instruments/vanilla.hpp:58:                 double payoff = (type_ == OptionType::Call) ? (spot - strike_) : (strike_ - spot);
	.loc 8 58 83 discriminator 2
	movq	48(%rbp), %rax	 # this, tmp152
	movsd	16(%rax), %xmm0	 # this_53(D)->strike_, _4
 # E:/Projects/Simulation_Projects/cva_cpp/includes_hpp/instruments/vanilla.hpp:58:                 double payoff = (type_ == OptionType::Call) ? (spot - strike_) : (strike_ - spot);
	.loc 8 58 61 discriminator 2
	subsd	56(%rbp), %xmm0	 # spot, iftmp.23_48
.L22:
 # E:/Projects/Simulation_Projects/cva_cpp/includes_hpp/instruments/vanilla.hpp:58:                 double payoff = (type_ == OptionType::Call) ? (spot - strike_) : (strike_ - spot);
	.loc 8 58 24 discriminator 4
	movsd	%xmm0, -56(%rbp)	 # iftmp.23_48, payoff
 # E:/Projects/Simulation_Projects/cva_cpp/includes_hpp/instruments/vanilla.hpp:59:                 return std::max(0.0, payoff);
	.loc 8 59 33
	pxor	%xmm0, %xmm0	 # tmp153
	movsd	%xmm0, -48(%rbp)	 # tmp153, D.95476
 # E:/Projects/Simulation_Projects/cva_cpp/includes_hpp/instruments/vanilla.hpp:59:                 return std::max(0.0, payoff);
	.loc 8 59 32
	leaq	-56(%rbp), %rdx	 #, tmp154
	leaq	-48(%rbp), %rax	 #, tmp155
	movq	%rax, %rcx	 # tmp155,
	call	_ZSt3maxIdERKT_S2_S2_	 #
 # E:/Projects/Simulation_Projects/cva_cpp/includes_hpp/instruments/vanilla.hpp:59:                 return std::max(0.0, payoff);
	.loc 8 59 44 discriminator 1
	movsd	(%rax), %xmm0	 # *_5, _49
 # E:/Projects/Simulation_Projects/cva_cpp/includes_hpp/instruments/vanilla.hpp:59:                 return std::max(0.0, payoff);
	.loc 8 59 44 is_stmt 0
	jmp	.L23	 #
.L27:
.LBE135:
.LBE134:
 # E:/Projects/Simulation_Projects/cva_cpp/includes_hpp/instruments/vanilla.hpp:62:             double T = expiry_ - t;
	.loc 8 62 24 is_stmt 1
	movq	48(%rbp), %rax	 # this, tmp156
	movsd	24(%rax), %xmm0	 # this_53(D)->expiry_, _6
 # E:/Projects/Simulation_Projects/cva_cpp/includes_hpp/instruments/vanilla.hpp:62:             double T = expiry_ - t;
	.loc 8 62 20
	subsd	64(%rbp), %xmm0	 # t, T_55
	movsd	%xmm0, -16(%rbp)	 # T_55, T
 # E:/Projects/Simulation_Projects/cva_cpp/includes_hpp/instruments/vanilla.hpp:63:             double d1 = (std::log(spot / strike_) + (r_ + 0.5 * vol_ * vol_) * T) / (vol_ * std::sqrt(T));
	.loc 8 63 42
	movq	48(%rbp), %rax	 # this, tmp158
	movsd	16(%rax), %xmm1	 # this_53(D)->strike_, _7
 # E:/Projects/Simulation_Projects/cva_cpp/includes_hpp/instruments/vanilla.hpp:63:             double d1 = (std::log(spot / strike_) + (r_ + 0.5 * vol_ * vol_) * T) / (vol_ * std::sqrt(T));
	.loc 8 63 34
	movsd	56(%rbp), %xmm0	 # spot, tmp159
	divsd	%xmm1, %xmm0	 # _7, tmp159
	movq	%xmm0, %rax	 # tmp159, _8
	movq	%rax, %xmm0	 # _8,
	call	log	 #
 # E:/Projects/Simulation_Projects/cva_cpp/includes_hpp/instruments/vanilla.hpp:63:             double d1 = (std::log(spot / strike_) + (r_ + 0.5 * vol_ * vol_) * T) / (vol_ * std::sqrt(T));
	.loc 8 63 54 discriminator 1
	movq	48(%rbp), %rax	 # this, tmp160
	movsd	32(%rax), %xmm2	 # this_53(D)->r_, _10
 # E:/Projects/Simulation_Projects/cva_cpp/includes_hpp/instruments/vanilla.hpp:63:             double d1 = (std::log(spot / strike_) + (r_ + 0.5 * vol_ * vol_) * T) / (vol_ * std::sqrt(T));
	.loc 8 63 65 discriminator 1
	movq	48(%rbp), %rax	 # this, tmp161
	movsd	40(%rax), %xmm3	 # this_53(D)->vol_, _11
 # E:/Projects/Simulation_Projects/cva_cpp/includes_hpp/instruments/vanilla.hpp:63:             double d1 = (std::log(spot / strike_) + (r_ + 0.5 * vol_ * vol_) * T) / (vol_ * std::sqrt(T));
	.loc 8 63 63 discriminator 1
	movsd	.LC3(%rip), %xmm1	 #, tmp162
	mulsd	%xmm1, %xmm3	 # tmp162, _12
 # E:/Projects/Simulation_Projects/cva_cpp/includes_hpp/instruments/vanilla.hpp:63:             double d1 = (std::log(spot / strike_) + (r_ + 0.5 * vol_ * vol_) * T) / (vol_ * std::sqrt(T));
	.loc 8 63 72 discriminator 1
	movq	48(%rbp), %rax	 # this, tmp163
	movsd	40(%rax), %xmm1	 # this_53(D)->vol_, _13
 # E:/Projects/Simulation_Projects/cva_cpp/includes_hpp/instruments/vanilla.hpp:63:             double d1 = (std::log(spot / strike_) + (r_ + 0.5 * vol_ * vol_) * T) / (vol_ * std::sqrt(T));
	.loc 8 63 70 discriminator 1
	mulsd	%xmm3, %xmm1	 # _12, _14
 # E:/Projects/Simulation_Projects/cva_cpp/includes_hpp/instruments/vanilla.hpp:63:             double d1 = (std::log(spot / strike_) + (r_ + 0.5 * vol_ * vol_) * T) / (vol_ * std::sqrt(T));
	.loc 8 63 57 discriminator 1
	addsd	%xmm2, %xmm1	 # _10, _15
 # E:/Projects/Simulation_Projects/cva_cpp/includes_hpp/instruments/vanilla.hpp:63:             double d1 = (std::log(spot / strike_) + (r_ + 0.5 * vol_ * vol_) * T) / (vol_ * std::sqrt(T));
	.loc 8 63 78 discriminator 1
	mulsd	-16(%rbp), %xmm1	 # T, _16
 # E:/Projects/Simulation_Projects/cva_cpp/includes_hpp/instruments/vanilla.hpp:63:             double d1 = (std::log(spot / strike_) + (r_ + 0.5 * vol_ * vol_) * T) / (vol_ * std::sqrt(T));
	.loc 8 63 51 discriminator 1
	movapd	%xmm0, %xmm6	 # _9, _9
	addsd	%xmm1, %xmm6	 # _16, _9
 # E:/Projects/Simulation_Projects/cva_cpp/includes_hpp/instruments/vanilla.hpp:63:             double d1 = (std::log(spot / strike_) + (r_ + 0.5 * vol_ * vol_) * T) / (vol_ * std::sqrt(T));
	.loc 8 63 86 discriminator 1
	movq	48(%rbp), %rax	 # this, tmp164
	movsd	40(%rax), %xmm7	 # this_53(D)->vol_, _18
 # E:/Projects/Simulation_Projects/cva_cpp/includes_hpp/instruments/vanilla.hpp:63:             double d1 = (std::log(spot / strike_) + (r_ + 0.5 * vol_ * vol_) * T) / (vol_ * std::sqrt(T));
	.loc 8 63 102 discriminator 1
	movq	-16(%rbp), %rax	 # T, tmp165
	movq	%rax, %xmm0	 # tmp165,
	call	sqrt	 #
 # E:/Projects/Simulation_Projects/cva_cpp/includes_hpp/instruments/vanilla.hpp:63:             double d1 = (std::log(spot / strike_) + (r_ + 0.5 * vol_ * vol_) * T) / (vol_ * std::sqrt(T));
	.loc 8 63 91 discriminator 2
	mulsd	%xmm0, %xmm7	 # _19, _18
	movapd	%xmm7, %xmm1	 # _18, _20
 # E:/Projects/Simulation_Projects/cva_cpp/includes_hpp/instruments/vanilla.hpp:63:             double d1 = (std::log(spot / strike_) + (r_ + 0.5 * vol_ * vol_) * T) / (vol_ * std::sqrt(T));
	.loc 8 63 105 discriminator 2
	divsd	%xmm1, %xmm6	 # _20, _17
	movapd	%xmm6, %xmm0	 # _17, d1_59
	movsd	%xmm0, -24(%rbp)	 # d1_59, d1
 # E:/Projects/Simulation_Projects/cva_cpp/includes_hpp/instruments/vanilla.hpp:64:             double d2 = d1 - vol_ * std::sqrt(T);
	.loc 8 64 30
	movq	48(%rbp), %rax	 # this, tmp167
	movsd	40(%rax), %xmm6	 # this_53(D)->vol_, _21
 # E:/Projects/Simulation_Projects/cva_cpp/includes_hpp/instruments/vanilla.hpp:64:             double d2 = d1 - vol_ * std::sqrt(T);
	.loc 8 64 46
	movq	-16(%rbp), %rax	 # T, tmp168
	movq	%rax, %xmm0	 # tmp168,
	call	sqrt	 #
 # E:/Projects/Simulation_Projects/cva_cpp/includes_hpp/instruments/vanilla.hpp:64:             double d2 = d1 - vol_ * std::sqrt(T);
	.loc 8 64 35 discriminator 1
	mulsd	%xmm0, %xmm6	 # _22, _21
	movapd	%xmm6, %xmm1	 # _21, _23
 # E:/Projects/Simulation_Projects/cva_cpp/includes_hpp/instruments/vanilla.hpp:64:             double d2 = d1 - vol_ * std::sqrt(T);
	.loc 8 64 48 discriminator 1
	movsd	-24(%rbp), %xmm0	 # d1, tmp170
	subsd	%xmm1, %xmm0	 # _23, d2_61
	movsd	%xmm0, -32(%rbp)	 # d2_61, d2
 # E:/Projects/Simulation_Projects/cva_cpp/includes_hpp/instruments/vanilla.hpp:66:             double price = 0.0;
	.loc 8 66 20
	pxor	%xmm0, %xmm0	 # tmp171
	movsd	%xmm0, -8(%rbp)	 # tmp171, price
 # E:/Projects/Simulation_Projects/cva_cpp/includes_hpp/instruments/vanilla.hpp:68:             constexpr double inv_sqrt2 = 1 / std::numbers::sqrt2; 
	.loc 8 68 30
	movsd	.LC2(%rip), %xmm0	 #, tmp172
	movsd	%xmm0, -40(%rbp)	 # tmp172, inv_sqrt2
.LBB136:
 # E:/Projects/Simulation_Projects/cva_cpp/includes_hpp/instruments/vanilla.hpp:70:             if (type_ == OptionType::Call) {
	.loc 8 70 17
	movq	48(%rbp), %rax	 # this, tmp173
	movl	8(%rax), %eax	 # this_53(D)->type_, _24
 # E:/Projects/Simulation_Projects/cva_cpp/includes_hpp/instruments/vanilla.hpp:70:             if (type_ == OptionType::Call) {
	.loc 8 70 13
	testl	%eax, %eax	 # _24
	jne	.L24	 #,
.LBB137:
 # E:/Projects/Simulation_Projects/cva_cpp/includes_hpp/instruments/vanilla.hpp:74:                 auto cdf = [inv_sqrt2](double x) { return 0.5 * std::erfc(-x * inv_sqrt2); };
	.loc 8 74 22
	movsd	.LC2(%rip), %xmm0	 #, tmp174
	movsd	%xmm0, -64(%rbp)	 # tmp174, cdf.__inv_sqrt2
 # E:/Projects/Simulation_Projects/cva_cpp/includes_hpp/instruments/vanilla.hpp:75:                 price = spot * cdf(d1) - strike_ * std::exp(-r_ * T) * cdf(d2);
	.loc 8 75 35
	movsd	-24(%rbp), %xmm0	 # d1, tmp175
	leaq	-64(%rbp), %rax	 #, tmp176
	movapd	%xmm0, %xmm1	 # tmp175,
	movq	%rax, %rcx	 # tmp176,
	call	_ZZNK3cva11instruments14EuropeanOption5valueEddENKUldE_clEd	 #
	movq	%xmm0, %rax	 #, _25
 # E:/Projects/Simulation_Projects/cva_cpp/includes_hpp/instruments/vanilla.hpp:75:                 price = spot * cdf(d1) - strike_ * std::exp(-r_ * T) * cdf(d2);
	.loc 8 75 30 discriminator 1
	movq	%rax, %xmm6	 # _25, _25
	mulsd	56(%rbp), %xmm6	 # spot, _25
 # E:/Projects/Simulation_Projects/cva_cpp/includes_hpp/instruments/vanilla.hpp:75:                 price = spot * cdf(d1) - strike_ * std::exp(-r_ * T) * cdf(d2);
	.loc 8 75 42 discriminator 1
	movq	48(%rbp), %rax	 # this, tmp177
	movsd	16(%rax), %xmm7	 # this_53(D)->strike_, _27
 # E:/Projects/Simulation_Projects/cva_cpp/includes_hpp/instruments/vanilla.hpp:75:                 price = spot * cdf(d1) - strike_ * std::exp(-r_ * T) * cdf(d2);
	.loc 8 75 62 discriminator 1
	movq	48(%rbp), %rax	 # this, tmp178
	movsd	32(%rax), %xmm0	 # this_53(D)->r_, _28
 # E:/Projects/Simulation_Projects/cva_cpp/includes_hpp/instruments/vanilla.hpp:75:                 price = spot * cdf(d1) - strike_ * std::exp(-r_ * T) * cdf(d2);
	.loc 8 75 61 discriminator 1
	movq	.LC1(%rip), %xmm1	 #, tmp179
	xorpd	%xmm1, %xmm0	 # tmp179, _29
 # E:/Projects/Simulation_Projects/cva_cpp/includes_hpp/instruments/vanilla.hpp:75:                 price = spot * cdf(d1) - strike_ * std::exp(-r_ * T) * cdf(d2);
	.loc 8 75 60 discriminator 1
	mulsd	-16(%rbp), %xmm0	 # T, _29
	movq	%xmm0, %rax	 # _29, _30
	movq	%rax, %xmm0	 # _30,
	call	exp	 #
 # E:/Projects/Simulation_Projects/cva_cpp/includes_hpp/instruments/vanilla.hpp:75:                 price = spot * cdf(d1) - strike_ * std::exp(-r_ * T) * cdf(d2);
	.loc 8 75 50 discriminator 2
	mulsd	%xmm0, %xmm7	 # _31, _32
 # E:/Projects/Simulation_Projects/cva_cpp/includes_hpp/instruments/vanilla.hpp:75:                 price = spot * cdf(d1) - strike_ * std::exp(-r_ * T) * cdf(d2);
	.loc 8 75 75 discriminator 2
	movsd	-32(%rbp), %xmm0	 # d2, tmp180
	leaq	-64(%rbp), %rax	 #, tmp181
	movapd	%xmm0, %xmm1	 # tmp180,
	movq	%rax, %rcx	 # tmp181,
	call	_ZZNK3cva11instruments14EuropeanOption5valueEddENKUldE_clEd	 #
 # E:/Projects/Simulation_Projects/cva_cpp/includes_hpp/instruments/vanilla.hpp:75:                 price = spot * cdf(d1) - strike_ * std::exp(-r_ * T) * cdf(d2);
	.loc 8 75 70 discriminator 3
	mulsd	%xmm0, %xmm7	 # _33, _32
	movapd	%xmm7, %xmm1	 # _32, _34
 # E:/Projects/Simulation_Projects/cva_cpp/includes_hpp/instruments/vanilla.hpp:75:                 price = spot * cdf(d1) - strike_ * std::exp(-r_ * T) * cdf(d2);
	.loc 8 75 23 discriminator 3
	subsd	%xmm1, %xmm6	 # _34, _26
	movapd	%xmm6, %xmm0	 # _26, price_74
	movsd	%xmm0, -8(%rbp)	 # price_74, price
.LBE137:
	jmp	.L25	 #
.L24:
.LBB138:
 # E:/Projects/Simulation_Projects/cva_cpp/includes_hpp/instruments/vanilla.hpp:77:                  auto cdf = [inv_sqrt2](double x) { return 0.5 * std::erfc(-x * inv_sqrt2); };
	.loc 8 77 23
	movsd	.LC2(%rip), %xmm0	 #, tmp183
	movsd	%xmm0, -72(%rbp)	 # tmp183, cdf.__inv_sqrt2
 # E:/Projects/Simulation_Projects/cva_cpp/includes_hpp/instruments/vanilla.hpp:78:                  price = strike_ * std::exp(-r_ * T) * cdf(-d2) - spot * cdf(-d1);
	.loc 8 78 26
	movq	48(%rbp), %rax	 # this, tmp184
	movsd	16(%rax), %xmm6	 # this_53(D)->strike_, _35
 # E:/Projects/Simulation_Projects/cva_cpp/includes_hpp/instruments/vanilla.hpp:78:                  price = strike_ * std::exp(-r_ * T) * cdf(-d2) - spot * cdf(-d1);
	.loc 8 78 46
	movq	48(%rbp), %rax	 # this, tmp185
	movsd	32(%rax), %xmm0	 # this_53(D)->r_, _36
 # E:/Projects/Simulation_Projects/cva_cpp/includes_hpp/instruments/vanilla.hpp:78:                  price = strike_ * std::exp(-r_ * T) * cdf(-d2) - spot * cdf(-d1);
	.loc 8 78 45
	movq	.LC1(%rip), %xmm1	 #, tmp186
	xorpd	%xmm1, %xmm0	 # tmp186, _37
 # E:/Projects/Simulation_Projects/cva_cpp/includes_hpp/instruments/vanilla.hpp:78:                  price = strike_ * std::exp(-r_ * T) * cdf(-d2) - spot * cdf(-d1);
	.loc 8 78 44
	mulsd	-16(%rbp), %xmm0	 # T, _37
	movq	%xmm0, %rax	 # _37, _38
	movq	%rax, %xmm0	 # _38,
	call	exp	 #
 # E:/Projects/Simulation_Projects/cva_cpp/includes_hpp/instruments/vanilla.hpp:78:                  price = strike_ * std::exp(-r_ * T) * cdf(-d2) - spot * cdf(-d1);
	.loc 8 78 34 discriminator 1
	mulsd	%xmm0, %xmm6	 # _39, _40
 # E:/Projects/Simulation_Projects/cva_cpp/includes_hpp/instruments/vanilla.hpp:78:                  price = strike_ * std::exp(-r_ * T) * cdf(-d2) - spot * cdf(-d1);
	.loc 8 78 59 discriminator 1
	movsd	-32(%rbp), %xmm0	 # d2, tmp187
	movq	.LC1(%rip), %xmm1	 #, tmp188
	xorpd	%xmm1, %xmm0	 # tmp188, _41
	leaq	-72(%rbp), %rax	 #, tmp189
	movapd	%xmm0, %xmm1	 # _41,
	movq	%rax, %rcx	 # tmp189,
	call	_ZZNK3cva11instruments14EuropeanOption5valueEddENKUldE0_clEd	 #
 # E:/Projects/Simulation_Projects/cva_cpp/includes_hpp/instruments/vanilla.hpp:78:                  price = strike_ * std::exp(-r_ * T) * cdf(-d2) - spot * cdf(-d1);
	.loc 8 78 54 discriminator 2
	mulsd	%xmm0, %xmm6	 # _42, _43
 # E:/Projects/Simulation_Projects/cva_cpp/includes_hpp/instruments/vanilla.hpp:78:                  price = strike_ * std::exp(-r_ * T) * cdf(-d2) - spot * cdf(-d1);
	.loc 8 78 77 discriminator 2
	movsd	-24(%rbp), %xmm0	 # d1, tmp190
	movq	.LC1(%rip), %xmm1	 #, tmp191
	xorpd	%xmm1, %xmm0	 # tmp191, _44
	leaq	-72(%rbp), %rax	 #, tmp192
	movapd	%xmm0, %xmm1	 # _44,
	movq	%rax, %rcx	 # tmp192,
	call	_ZZNK3cva11instruments14EuropeanOption5valueEddENKUldE0_clEd	 #
	movq	%xmm0, %rax	 #, _45
 # E:/Projects/Simulation_Projects/cva_cpp/includes_hpp/instruments/vanilla.hpp:78:                  price = strike_ * std::exp(-r_ * T) * cdf(-d2) - spot * cdf(-d1);
	.loc 8 78 72 discriminator 3
	movq	%rax, %xmm1	 # _45, _45
	mulsd	56(%rbp), %xmm1	 # spot, _45
 # E:/Projects/Simulation_Projects/cva_cpp/includes_hpp/instruments/vanilla.hpp:78:                  price = strike_ * std::exp(-r_ * T) * cdf(-d2) - spot * cdf(-d1);
	.loc 8 78 24 discriminator 3
	subsd	%xmm1, %xmm6	 # _46, _43
	movapd	%xmm6, %xmm0	 # _43, price_68
	movsd	%xmm0, -8(%rbp)	 # price_68, price
.L25:
.LBE138:
.LBE136:
 # E:/Projects/Simulation_Projects/cva_cpp/includes_hpp/instruments/vanilla.hpp:80:             return price;
	.loc 8 80 20
	movsd	-8(%rbp), %xmm0	 # price, _49
.L23:
 # E:/Projects/Simulation_Projects/cva_cpp/includes_hpp/instruments/vanilla.hpp:81:         }
	.loc 8 81 9
	movups	0(%rbp), %xmm6	 #,
	movups	16(%rbp), %xmm7	 #,
	addq	$144, %rsp	 #,
	.cfi_restore 24
	.cfi_restore 23
	popq	%rbp	 #
	.cfi_restore 6
	.cfi_def_cfa 7, -136
	ret	
	.cfi_endproc
.LFE4904:
	.seh_endproc
	.section	.text$_ZNSt6vectorIdSaIdEEC1ESt16initializer_listIdERKS0_,"x"
	.linkonce discard
	.align 2
	.globl	_ZNSt6vectorIdSaIdEEC1ESt16initializer_listIdERKS0_
	.def	_ZNSt6vectorIdSaIdEEC1ESt16initializer_listIdERKS0_;	.scl	2;	.type	32;	.endef
	.seh_proc	_ZNSt6vectorIdSaIdEEC1ESt16initializer_listIdERKS0_
_ZNSt6vectorIdSaIdEEC1ESt16initializer_listIdERKS0_:
.LFB4916:
	.file 9 "D:/msys64/ucrt64/include/c++/15.2.0/bits/stl_vector.h"
	.loc 9 708 7
	.cfi_startproc
	pushq	%rbp	 #
	.seh_pushreg	%rbp
	.cfi_def_cfa_offset 16
	.cfi_offset 6, -16
	pushq	%rsi	 #
	.seh_pushreg	%rsi
	.cfi_def_cfa_offset 24
	.cfi_offset 4, -24
	pushq	%rbx	 #
	.seh_pushreg	%rbx
	.cfi_def_cfa_offset 32
	.cfi_offset 3, -32
	subq	$48, %rsp	 #,
	.seh_stackalloc	48
	.cfi_def_cfa_offset 80
	leaq	48(%rsp), %rbp	 #,
	.seh_setframe	%rbp, 48
	.cfi_def_cfa 6, 32
	.seh_endprologue
	movq	%rcx, 32(%rbp)	 # this, this
	movq	%rdx, %rbx	 #, tmp104
	movq	(%rbx), %rax	 # __l, tmp105
	movq	8(%rbx), %rdx	 # __l,
	movq	%rax, -16(%rbp)	 # tmp105, __l
	movq	%rdx, -8(%rbp)	 #, __l
	movq	%r8, 48(%rbp)	 # __a, __a
.LBB139:
 # D:/msys64/ucrt64/include/c++/15.2.0/bits/stl_vector.h:710:       : _Base(__a)
	.loc 9 710 18
	movq	32(%rbp), %rax	 # this, _1
	movq	48(%rbp), %rdx	 # __a, tmp106
	movq	%rax, %rcx	 # _1,
	call	_ZNSt12_Vector_baseIdSaIdEEC2ERKS0_	 #
 # D:/msys64/ucrt64/include/c++/15.2.0/bits/stl_vector.h:712: 	_M_range_initialize_n(__l.begin(), __l.end(), __l.size());
	.loc 9 712 23
	leaq	-16(%rbp), %rax	 #, tmp107
	movq	%rax, %rcx	 # tmp107,
	call	_ZNKSt16initializer_listIdE4sizeEv	 #
	movq	%rax, %rsi	 #, _2
 # D:/msys64/ucrt64/include/c++/15.2.0/bits/stl_vector.h:712: 	_M_range_initialize_n(__l.begin(), __l.end(), __l.size());
	.loc 9 712 23 is_stmt 0 discriminator 1
	leaq	-16(%rbp), %rax	 #, tmp108
	movq	%rax, %rcx	 # tmp108,
	call	_ZNKSt16initializer_listIdE3endEv	 #
	movq	%rax, %rbx	 #, _3
 # D:/msys64/ucrt64/include/c++/15.2.0/bits/stl_vector.h:712: 	_M_range_initialize_n(__l.begin(), __l.end(), __l.size());
	.loc 9 712 23 discriminator 2
	leaq	-16(%rbp), %rax	 #, tmp109
	movq	%rax, %rcx	 # tmp109,
	call	_ZNKSt16initializer_listIdE5beginEv	 #
	movq	%rax, %rdx	 #, _4
 # D:/msys64/ucrt64/include/c++/15.2.0/bits/stl_vector.h:712: 	_M_range_initialize_n(__l.begin(), __l.end(), __l.size());
	.loc 9 712 23 discriminator 3
	movq	32(%rbp), %rax	 # this, tmp110
	movq	%rsi, %r9	 # _2,
	movq	%rbx, %r8	 # _3,
	movq	%rax, %rcx	 # tmp110,
.LEHB0:
	call	_ZNSt6vectorIdSaIdEE21_M_range_initialize_nIPKdS4_EEvT_T0_y	 #
.LEHE0:
.LBE139:
 # D:/msys64/ucrt64/include/c++/15.2.0/bits/stl_vector.h:713:       }
	.loc 9 713 7 is_stmt 1
	jmp	.L31	 #
.L30:
.LBB140:
	movq	%rax, %rbx	 #, tmp111
	movq	32(%rbp), %rax	 # this, _5
	movq	%rax, %rcx	 # _5,
	call	_ZNSt12_Vector_baseIdSaIdEED2Ev	 #
	movq	%rbx, %rax	 # tmp111, D.105105
	movq	%rax, %rcx	 # D.105105,
.LEHB1:
	call	_Unwind_Resume	 #
	nop	
.LEHE1:
.L31:
.LBE140:
	addq	$48, %rsp	 #,
	popq	%rbx	 #
	.cfi_restore 3
	popq	%rsi	 #
	.cfi_restore 4
	popq	%rbp	 #
	.cfi_restore 6
	.cfi_def_cfa 7, -24
	ret	
	.cfi_endproc
.LFE4916:
	.seh_handler	__gxx_personality_seh0, @unwind, @except
	.seh_handlerdata
.LLSDA4916:
	.byte	0xff
	.byte	0xff
	.byte	0x1
	.uleb128 .LLSDACSE4916-.LLSDACSB4916
.LLSDACSB4916:
	.uleb128 .LEHB0-.LFB4916
	.uleb128 .LEHE0-.LEHB0
	.uleb128 .L30-.LFB4916
	.uleb128 0
	.uleb128 .LEHB1-.LFB4916
	.uleb128 .LEHE1-.LEHB1
	.uleb128 0
	.uleb128 0
.LLSDACSE4916:
	.section	.text$_ZNSt6vectorIdSaIdEEC1ESt16initializer_listIdERKS0_,"x"
	.linkonce discard
	.seh_endproc
	.section	.text$_ZNSt12_Vector_baseIdSaIdEE12_Vector_implD1Ev,"x"
	.linkonce discard
	.align 2
	.globl	_ZNSt12_Vector_baseIdSaIdEE12_Vector_implD1Ev
	.def	_ZNSt12_Vector_baseIdSaIdEE12_Vector_implD1Ev;	.scl	2;	.type	32;	.endef
	.seh_proc	_ZNSt12_Vector_baseIdSaIdEE12_Vector_implD1Ev
_ZNSt12_Vector_baseIdSaIdEE12_Vector_implD1Ev:
.LFB4920:
	.loc 9 139 14
	.cfi_startproc
	pushq	%rbp	 #
	.seh_pushreg	%rbp
	.cfi_def_cfa_offset 16
	.cfi_offset 6, -16
	movq	%rsp, %rbp	 #,
	.seh_setframe	%rbp, 0
	.cfi_def_cfa_register 6
	subq	$16, %rsp	 #,
	.seh_stackalloc	16
	.seh_endprologue
	movq	%rcx, 16(%rbp)	 # this, this
	movq	16(%rbp), %rax	 # this, tmp98
	movq	%rax, -8(%rbp)	 # tmp98, this
.LBB141:
.LBB142:
.LBB143:
 # D:/msys64/ucrt64/include/c++/15.2.0/bits/allocator.h:189:       ~allocator() _GLIBCXX_NOTHROW { }
	.loc 6 189 31
	nop	
.LBE143:
.LBE142:
.LBE141:
 # D:/msys64/ucrt64/include/c++/15.2.0/bits/stl_vector.h:139:       struct _Vector_impl
	.loc 9 139 14
	nop	
	addq	$16, %rsp	 #,
	popq	%rbp	 #
	.cfi_restore 6
	.cfi_def_cfa 7, 8
	ret	
	.cfi_endproc
.LFE4920:
	.seh_endproc
	.section	.text$_ZNSt12_Vector_baseIdSaIdEEC2ERKS0_,"x"
	.linkonce discard
	.align 2
	.globl	_ZNSt12_Vector_baseIdSaIdEEC2ERKS0_
	.def	_ZNSt12_Vector_baseIdSaIdEEC2ERKS0_;	.scl	2;	.type	32;	.endef
	.seh_proc	_ZNSt12_Vector_baseIdSaIdEEC2ERKS0_
_ZNSt12_Vector_baseIdSaIdEEC2ERKS0_:
.LFB4921:
	.loc 9 327 7
	.cfi_startproc
	pushq	%rbp	 #
	.seh_pushreg	%rbp
	.cfi_def_cfa_offset 16
	.cfi_offset 6, -16
	movq	%rsp, %rbp	 #,
	.seh_setframe	%rbp, 0
	.cfi_def_cfa_register 6
	subq	$32, %rsp	 #,
	.seh_stackalloc	32
	.seh_endprologue
	movq	%rcx, 16(%rbp)	 # this, this
	movq	%rdx, 24(%rbp)	 # __a, __a
.LBB144:
 # D:/msys64/ucrt64/include/c++/15.2.0/bits/stl_vector.h:328:       : _M_impl(__a) { }
	.loc 9 328 9
	movq	16(%rbp), %rax	 # this, _1
	movq	24(%rbp), %rdx	 # __a, tmp100
	movq	%rax, %rcx	 # _1,
	call	_ZNSt12_Vector_baseIdSaIdEE12_Vector_implC1ERKS0_	 #
.LBE144:
 # D:/msys64/ucrt64/include/c++/15.2.0/bits/stl_vector.h:328:       : _M_impl(__a) { }
	.loc 9 328 24
	nop	
	addq	$32, %rsp	 #,
	popq	%rbp	 #
	.cfi_restore 6
	.cfi_def_cfa 7, 8
	ret	
	.cfi_endproc
.LFE4921:
	.seh_endproc
	.section	.text$_ZNSt12_Vector_baseIdSaIdEE12_Vector_implC1ERKS0_,"x"
	.linkonce discard
	.align 2
	.globl	_ZNSt12_Vector_baseIdSaIdEE12_Vector_implC1ERKS0_
	.def	_ZNSt12_Vector_baseIdSaIdEE12_Vector_implC1ERKS0_;	.scl	2;	.type	32;	.endef
	.seh_proc	_ZNSt12_Vector_baseIdSaIdEE12_Vector_implC1ERKS0_
_ZNSt12_Vector_baseIdSaIdEE12_Vector_implC1ERKS0_:
.LFB4925:
	.loc 9 152 2
	.cfi_startproc
	pushq	%rbp	 #
	.seh_pushreg	%rbp
	.cfi_def_cfa_offset 16
	.cfi_offset 6, -16
	movq	%rsp, %rbp	 #,
	.seh_setframe	%rbp, 0
	.cfi_def_cfa_register 6
	subq	$64, %rsp	 #,
	.seh_stackalloc	64
	.seh_endprologue
	movq	%rcx, 16(%rbp)	 # this, this
	movq	%rdx, 24(%rbp)	 # __a, __a
	movq	16(%rbp), %rax	 # this, tmp99
	movq	%rax, -8(%rbp)	 # tmp99, this
	movq	24(%rbp), %rax	 # __a, tmp100
	movq	%rax, -16(%rbp)	 # tmp100, __a
	movq	-8(%rbp), %rax	 # this, tmp101
	movq	%rax, -24(%rbp)	 # tmp101, this
	movq	-16(%rbp), %rax	 # __a, tmp102
	movq	%rax, -32(%rbp)	 # tmp102, D.104975
.LBB145:
.LBB146:
.LBB147:
.LBB148:
.LBB149:
.LBB150:
 # D:/msys64/ucrt64/include/c++/15.2.0/bits/new_allocator.h:92:       __new_allocator(const __new_allocator&) _GLIBCXX_USE_NOEXCEPT { }
	.loc 5 92 58
	nop	
.LBE150:
.LBE149:
.LBE148:
 # D:/msys64/ucrt64/include/c++/15.2.0/bits/allocator.h:173:       : __allocator_base<_Tp>(__a) { }
	.loc 6 173 38
	nop	
.LBE147:
.LBE146:
 # D:/msys64/ucrt64/include/c++/15.2.0/bits/stl_vector.h:153: 	: _Tp_alloc_type(__a)
	.loc 9 153 22 discriminator 1
	movq	16(%rbp), %rax	 # this, _1
	movq	%rax, %rcx	 # _1,
	call	_ZNSt12_Vector_baseIdSaIdEE17_Vector_impl_dataC2Ev	 #
.LBE145:
 # D:/msys64/ucrt64/include/c++/15.2.0/bits/stl_vector.h:154: 	{ }
	.loc 9 154 4
	nop	
	addq	$64, %rsp	 #,
	popq	%rbp	 #
	.cfi_restore 6
	.cfi_def_cfa 7, 8
	ret	
	.cfi_endproc
.LFE4925:
	.seh_endproc
	.section	.text$_ZNSt12_Vector_baseIdSaIdEE17_Vector_impl_dataC2Ev,"x"
	.linkonce discard
	.align 2
	.globl	_ZNSt12_Vector_baseIdSaIdEE17_Vector_impl_dataC2Ev
	.def	_ZNSt12_Vector_baseIdSaIdEE17_Vector_impl_dataC2Ev;	.scl	2;	.type	32;	.endef
	.seh_proc	_ZNSt12_Vector_baseIdSaIdEE17_Vector_impl_dataC2Ev
_ZNSt12_Vector_baseIdSaIdEE17_Vector_impl_dataC2Ev:
.LFB4933:
	.loc 9 105 2
	.cfi_startproc
	pushq	%rbp	 #
	.seh_pushreg	%rbp
	.cfi_def_cfa_offset 16
	.cfi_offset 6, -16
	movq	%rsp, %rbp	 #,
	.seh_setframe	%rbp, 0
	.cfi_def_cfa_register 6
	.seh_endprologue
	movq	%rcx, 16(%rbp)	 # this, this
.LBB151:
 # D:/msys64/ucrt64/include/c++/15.2.0/bits/stl_vector.h:106: 	: _M_start(), _M_finish(), _M_end_of_storage()
	.loc 9 106 4
	movq	16(%rbp), %rax	 # this, tmp98
	movq	$0, (%rax)	 #, this_2(D)->_M_start
 # D:/msys64/ucrt64/include/c++/15.2.0/bits/stl_vector.h:106: 	: _M_start(), _M_finish(), _M_end_of_storage()
	.loc 9 106 16
	movq	16(%rbp), %rax	 # this, tmp99
	movq	$0, 8(%rax)	 #, this_2(D)->_M_finish
 # D:/msys64/ucrt64/include/c++/15.2.0/bits/stl_vector.h:106: 	: _M_start(), _M_finish(), _M_end_of_storage()
	.loc 9 106 29
	movq	16(%rbp), %rax	 # this, tmp100
	movq	$0, 16(%rax)	 #, this_2(D)->_M_end_of_storage
.LBE151:
 # D:/msys64/ucrt64/include/c++/15.2.0/bits/stl_vector.h:107: 	{ }
	.loc 9 107 4
	nop	
	popq	%rbp	 #
	.cfi_restore 6
	.cfi_def_cfa 7, 8
	ret	
	.cfi_endproc
.LFE4933:
	.seh_endproc
	.section	.text$_ZNKSt16initializer_listIdE5beginEv,"x"
	.linkonce discard
	.align 2
	.globl	_ZNKSt16initializer_listIdE5beginEv
	.def	_ZNKSt16initializer_listIdE5beginEv;	.scl	2;	.type	32;	.endef
	.seh_proc	_ZNKSt16initializer_listIdE5beginEv
_ZNKSt16initializer_listIdE5beginEv:
.LFB4935:
	.file 10 "D:/msys64/ucrt64/include/c++/15.2.0/initializer_list"
	.loc 10 75 7
	.cfi_startproc
	pushq	%rbp	 #
	.seh_pushreg	%rbp
	.cfi_def_cfa_offset 16
	.cfi_offset 6, -16
	movq	%rsp, %rbp	 #,
	.seh_setframe	%rbp, 0
	.cfi_def_cfa_register 6
	.seh_endprologue
	movq	%rcx, 16(%rbp)	 # this, this
 # D:/msys64/ucrt64/include/c++/15.2.0/initializer_list:75:       begin() const noexcept { return _M_array; }
	.loc 10 75 39
	movq	16(%rbp), %rax	 # this, tmp100
	movq	(%rax), %rax	 # this_2(D)->_M_array, _3
 # D:/msys64/ucrt64/include/c++/15.2.0/initializer_list:75:       begin() const noexcept { return _M_array; }
	.loc 10 75 49
	popq	%rbp	 #
	.cfi_restore 6
	.cfi_def_cfa 7, 8
	ret	
	.cfi_endproc
.LFE4935:
	.seh_endproc
	.section	.text$_ZNKSt16initializer_listIdE3endEv,"x"
	.linkonce discard
	.align 2
	.globl	_ZNKSt16initializer_listIdE3endEv
	.def	_ZNKSt16initializer_listIdE3endEv;	.scl	2;	.type	32;	.endef
	.seh_proc	_ZNKSt16initializer_listIdE3endEv
_ZNKSt16initializer_listIdE3endEv:
.LFB4936:
	.loc 10 79 7
	.cfi_startproc
	pushq	%rbp	 #
	.seh_pushreg	%rbp
	.cfi_def_cfa_offset 16
	.cfi_offset 6, -16
	pushq	%rbx	 #
	.seh_pushreg	%rbx
	.cfi_def_cfa_offset 24
	.cfi_offset 3, -24
	subq	$40, %rsp	 #,
	.seh_stackalloc	40
	.cfi_def_cfa_offset 64
	leaq	32(%rsp), %rbp	 #,
	.seh_setframe	%rbp, 32
	.cfi_def_cfa 6, 32
	.seh_endprologue
	movq	%rcx, 32(%rbp)	 # this, this
 # D:/msys64/ucrt64/include/c++/15.2.0/initializer_list:79:       end() const noexcept { return begin() + size(); }
	.loc 10 79 42
	movq	32(%rbp), %rax	 # this, tmp103
	movq	%rax, %rcx	 # tmp103,
	call	_ZNKSt16initializer_listIdE5beginEv	 #
	movq	%rax, %rbx	 #, _1
 # D:/msys64/ucrt64/include/c++/15.2.0/initializer_list:79:       end() const noexcept { return begin() + size(); }
	.loc 10 79 51 discriminator 1
	movq	32(%rbp), %rax	 # this, tmp104
	movq	%rax, %rcx	 # tmp104,
	call	_ZNKSt16initializer_listIdE4sizeEv	 #
 # D:/msys64/ucrt64/include/c++/15.2.0/initializer_list:79:       end() const noexcept { return begin() + size(); }
	.loc 10 79 45 discriminator 2
	salq	$3, %rax	 #, _3
 # D:/msys64/ucrt64/include/c++/15.2.0/initializer_list:79:       end() const noexcept { return begin() + size(); }
	.loc 10 79 52 discriminator 2
	addq	%rbx, %rax	 # _1, _8
 # D:/msys64/ucrt64/include/c++/15.2.0/initializer_list:79:       end() const noexcept { return begin() + size(); }
	.loc 10 79 55
	addq	$40, %rsp	 #,
	popq	%rbx	 #
	.cfi_restore 3
	popq	%rbp	 #
	.cfi_restore 6
	.cfi_def_cfa 7, -24
	ret	
	.cfi_endproc
.LFE4936:
	.seh_endproc
	.section	.text$_ZNKSt16initializer_listIdE4sizeEv,"x"
	.linkonce discard
	.align 2
	.globl	_ZNKSt16initializer_listIdE4sizeEv
	.def	_ZNKSt16initializer_listIdE4sizeEv;	.scl	2;	.type	32;	.endef
	.seh_proc	_ZNKSt16initializer_listIdE4sizeEv
_ZNKSt16initializer_listIdE4sizeEv:
.LFB4937:
	.loc 10 71 7
	.cfi_startproc
	pushq	%rbp	 #
	.seh_pushreg	%rbp
	.cfi_def_cfa_offset 16
	.cfi_offset 6, -16
	movq	%rsp, %rbp	 #,
	.seh_setframe	%rbp, 0
	.cfi_def_cfa_register 6
	.seh_endprologue
	movq	%rcx, 16(%rbp)	 # this, this
 # D:/msys64/ucrt64/include/c++/15.2.0/initializer_list:71:       size() const noexcept { return _M_len; }
	.loc 10 71 38
	movq	16(%rbp), %rax	 # this, tmp100
	movq	8(%rax), %rax	 # this_2(D)->_M_len, _3
 # D:/msys64/ucrt64/include/c++/15.2.0/initializer_list:71:       size() const noexcept { return _M_len; }
	.loc 10 71 46
	popq	%rbp	 #
	.cfi_restore 6
	.cfi_def_cfa 7, 8
	ret	
	.cfi_endproc
.LFE4937:
	.seh_endproc
	.section	.text$_ZNSt6vectorIdSaIdEE21_M_range_initialize_nIPKdS4_EEvT_T0_y,"x"
	.linkonce discard
	.align 2
	.globl	_ZNSt6vectorIdSaIdEE21_M_range_initialize_nIPKdS4_EEvT_T0_y
	.def	_ZNSt6vectorIdSaIdEE21_M_range_initialize_nIPKdS4_EEvT_T0_y;	.scl	2;	.type	32;	.endef
	.seh_proc	_ZNSt6vectorIdSaIdEE21_M_range_initialize_nIPKdS4_EEvT_T0_y
_ZNSt6vectorIdSaIdEE21_M_range_initialize_nIPKdS4_EEvT_T0_y:
.LFB4938:
	.loc 9 1981 2
	.cfi_startproc
	pushq	%rbp	 #
	.seh_pushreg	%rbp
	.cfi_def_cfa_offset 16
	.cfi_offset 6, -16
	pushq	%rbx	 #
	.seh_pushreg	%rbx
	.cfi_def_cfa_offset 24
	.cfi_offset 3, -24
	subq	$56, %rsp	 #,
	.seh_stackalloc	56
	.cfi_def_cfa_offset 80
	leaq	48(%rsp), %rbp	 #,
	.seh_setframe	%rbp, 48
	.cfi_def_cfa 6, 32
	.seh_endprologue
	movq	%rcx, 32(%rbp)	 # this, this
	movq	%rdx, 40(%rbp)	 # __first, __first
	movq	%r8, 48(%rbp)	 # __last, __last
	movq	%r9, 56(%rbp)	 # __n, __n
 # D:/msys64/ucrt64/include/c++/15.2.0/bits/stl_vector.h:1985: 	    this->_M_allocate(_S_check_init_len(__n, _M_get_Tp_allocator()));
	.loc 9 1985 23
	movq	32(%rbp), %rbx	 # this, _1
 # D:/msys64/ucrt64/include/c++/15.2.0/bits/stl_vector.h:1985: 	    this->_M_allocate(_S_check_init_len(__n, _M_get_Tp_allocator()));
	.loc 9 1985 66
	movq	32(%rbp), %rax	 # this, _2
	movq	%rax, %rcx	 # _2,
	call	_ZNSt12_Vector_baseIdSaIdEE19_M_get_Tp_allocatorEv	 #
	movq	%rax, %rdx	 #, _3
 # D:/msys64/ucrt64/include/c++/15.2.0/bits/stl_vector.h:1985: 	    this->_M_allocate(_S_check_init_len(__n, _M_get_Tp_allocator()));
	.loc 9 1985 23 discriminator 1
	movq	56(%rbp), %rax	 # __n, tmp111
	movq	%rax, %rcx	 # tmp111,
	call	_ZNSt6vectorIdSaIdEE17_S_check_init_lenEyRKS0_	 #
 # D:/msys64/ucrt64/include/c++/15.2.0/bits/stl_vector.h:1985: 	    this->_M_allocate(_S_check_init_len(__n, _M_get_Tp_allocator()));
	.loc 9 1985 23 is_stmt 0 discriminator 2
	movq	%rax, %rdx	 # _4,
	movq	%rbx, %rcx	 # _1,
	call	_ZNSt12_Vector_baseIdSaIdEE11_M_allocateEy	 #
 # D:/msys64/ucrt64/include/c++/15.2.0/bits/stl_vector.h:1985: 	    this->_M_allocate(_S_check_init_len(__n, _M_get_Tp_allocator()));
	.loc 9 1985 23 discriminator 3
	movq	%rax, -8(%rbp)	 # _20, __start
 # D:/msys64/ucrt64/include/c++/15.2.0/bits/stl_vector.h:1986: 	  this->_M_impl._M_start = this->_M_impl._M_finish = __start;
	.loc 9 1986 53 is_stmt 1
	movq	32(%rbp), %rax	 # this, tmp112
	movq	-8(%rbp), %rdx	 # __start, tmp113
	movq	%rdx, 8(%rax)	 # tmp113, this_13(D)->D.68084._M_impl.D.67390._M_finish
 # D:/msys64/ucrt64/include/c++/15.2.0/bits/stl_vector.h:1986: 	  this->_M_impl._M_start = this->_M_impl._M_finish = __start;
	.loc 9 1986 43
	movq	32(%rbp), %rax	 # this, tmp114
	movq	8(%rax), %rdx	 # this_13(D)->D.68084._M_impl.D.67390._M_finish, _5
 # D:/msys64/ucrt64/include/c++/15.2.0/bits/stl_vector.h:1986: 	  this->_M_impl._M_start = this->_M_impl._M_finish = __start;
	.loc 9 1986 27
	movq	32(%rbp), %rax	 # this, tmp115
	movq	%rdx, (%rax)	 # _5, this_13(D)->D.68084._M_impl.D.67390._M_start
 # D:/msys64/ucrt64/include/c++/15.2.0/bits/stl_vector.h:1987: 	  this->_M_impl._M_end_of_storage = __start + __n;
	.loc 9 1987 46
	movq	56(%rbp), %rax	 # __n, tmp116
	leaq	0(,%rax,8), %rdx	 #, _6
	movq	-8(%rbp), %rax	 # __start, tmp117
	addq	%rax, %rdx	 # tmp117, _7
 # D:/msys64/ucrt64/include/c++/15.2.0/bits/stl_vector.h:1987: 	  this->_M_impl._M_end_of_storage = __start + __n;
	.loc 9 1987 36
	movq	32(%rbp), %rax	 # this, tmp118
	movq	%rdx, 16(%rax)	 # _7, this_13(D)->D.68084._M_impl.D.67390._M_end_of_storage
 # D:/msys64/ucrt64/include/c++/15.2.0/bits/stl_vector.h:1990: 					    __start, _M_get_Tp_allocator());
	.loc 9 1990 38
	movq	32(%rbp), %rax	 # this, _8
	movq	%rax, %rcx	 # _8,
	call	_ZNSt12_Vector_baseIdSaIdEE19_M_get_Tp_allocatorEv	 #
	movq	%rax, %rcx	 #, _9
.LBB152:
.LBB153:
 # D:/msys64/ucrt64/include/c++/15.2.0/bits/move.h:139:     { return static_cast<typename std::remove_reference<_Tp>::type&&>(__t); }
	.file 11 "D:/msys64/ucrt64/include/c++/15.2.0/bits/move.h"
	.loc 11 139 74
	leaq	40(%rbp), %rax	 #, D.105064
.LBE153:
.LBE152:
 # D:/msys64/ucrt64/include/c++/15.2.0/bits/stl_vector.h:1989: 	      = std::__uninitialized_copy_a(_GLIBCXX_MOVE(__first), __last,
	.loc 9 1989 37 discriminator 1
	movq	(%rax), %rax	 # *_10, _11
	movq	-8(%rbp), %r8	 # __start, tmp119
	movq	48(%rbp), %rdx	 # __last, tmp120
	movq	%rcx, %r9	 # _9,
	movq	%rax, %rcx	 # _11,
	call	_ZSt22__uninitialized_copy_aIPKdS1_PddET1_T_T0_S3_RSaIT2_E	 #
 # D:/msys64/ucrt64/include/c++/15.2.0/bits/stl_vector.h:1989: 	      = std::__uninitialized_copy_a(_GLIBCXX_MOVE(__first), __last,
	.loc 9 1989 8 discriminator 2
	movq	32(%rbp), %rdx	 # this, tmp121
	movq	%rax, 8(%rdx)	 # _12, this_13(D)->D.68084._M_impl.D.67390._M_finish
 # D:/msys64/ucrt64/include/c++/15.2.0/bits/stl_vector.h:1991: 	}
	.loc 9 1991 2
	nop	
	addq	$56, %rsp	 #,
	popq	%rbx	 #
	.cfi_restore 3
	popq	%rbp	 #
	.cfi_restore 6
	.cfi_def_cfa 7, -40
	ret	
	.cfi_endproc
.LFE4938:
	.seh_endproc
	.section	.text$_ZNSt12_Vector_baseIdSaIdEE19_M_get_Tp_allocatorEv,"x"
	.linkonce discard
	.align 2
	.globl	_ZNSt12_Vector_baseIdSaIdEE19_M_get_Tp_allocatorEv
	.def	_ZNSt12_Vector_baseIdSaIdEE19_M_get_Tp_allocatorEv;	.scl	2;	.type	32;	.endef
	.seh_proc	_ZNSt12_Vector_baseIdSaIdEE19_M_get_Tp_allocatorEv
_ZNSt12_Vector_baseIdSaIdEE19_M_get_Tp_allocatorEv:
.LFB4939:
	.loc 9 307 7
	.cfi_startproc
	pushq	%rbp	 #
	.seh_pushreg	%rbp
	.cfi_def_cfa_offset 16
	.cfi_offset 6, -16
	movq	%rsp, %rbp	 #,
	.seh_setframe	%rbp, 0
	.cfi_def_cfa_register 6
	.seh_endprologue
	movq	%rcx, 16(%rbp)	 # this, this
 # D:/msys64/ucrt64/include/c++/15.2.0/bits/stl_vector.h:308:       { return this->_M_impl; }
	.loc 9 308 22
	movq	16(%rbp), %rax	 # this, _2
 # D:/msys64/ucrt64/include/c++/15.2.0/bits/stl_vector.h:308:       { return this->_M_impl; }
	.loc 9 308 31
	popq	%rbp	 #
	.cfi_restore 6
	.cfi_def_cfa 7, 8
	ret	
	.cfi_endproc
.LFE4939:
	.seh_endproc
	.section .rdata,"dr"
	.align 8
.LC5:
	.ascii "cannot create std::vector larger than max_size()\0"
	.section	.text$_ZNSt6vectorIdSaIdEE17_S_check_init_lenEyRKS0_,"x"
	.linkonce discard
	.globl	_ZNSt6vectorIdSaIdEE17_S_check_init_lenEyRKS0_
	.def	_ZNSt6vectorIdSaIdEE17_S_check_init_lenEyRKS0_;	.scl	2;	.type	32;	.endef
	.seh_proc	_ZNSt6vectorIdSaIdEE17_S_check_init_lenEyRKS0_
_ZNSt6vectorIdSaIdEE17_S_check_init_lenEyRKS0_:
.LFB4940:
	.loc 9 2208 7
	.cfi_startproc
	pushq	%rbp	 #
	.seh_pushreg	%rbp
	.cfi_def_cfa_offset 16
	.cfi_offset 6, -16
	movq	%rsp, %rbp	 #,
	.seh_setframe	%rbp, 0
	.cfi_def_cfa_register 6
	subq	$64, %rsp	 #,
	.seh_stackalloc	64
	.seh_endprologue
	movq	%rcx, 16(%rbp)	 # __n, __n
	movq	%rdx, 24(%rbp)	 # __a, __a
	movq	24(%rbp), %rax	 # __a, tmp102
	movq	%rax, -8(%rbp)	 # tmp102, __a
	leaq	-25(%rbp), %rax	 #, tmp103
	movq	%rax, -16(%rbp)	 # tmp103, this
	movq	-8(%rbp), %rax	 # __a, tmp104
	movq	%rax, -24(%rbp)	 # tmp104, D.104981
.LBB154:
.LBB155:
.LBB156:
.LBB157:
.LBB158:
 # D:/msys64/ucrt64/include/c++/15.2.0/bits/new_allocator.h:92:       __new_allocator(const __new_allocator&) _GLIBCXX_USE_NOEXCEPT { }
	.loc 5 92 58
	nop	
.LBE158:
.LBE157:
.LBE156:
 # D:/msys64/ucrt64/include/c++/15.2.0/bits/allocator.h:173:       : __allocator_base<_Tp>(__a) { }
	.loc 6 173 38
	nop	
.LBE155:
.LBE154:
 # D:/msys64/ucrt64/include/c++/15.2.0/bits/stl_vector.h:2210: 	if (__n > _S_max_size(_Tp_alloc_type(__a)))
	.loc 9 2210 23 discriminator 1
	leaq	-25(%rbp), %rax	 #, tmp105
	movq	%rax, %rcx	 # tmp105,
	call	_ZNSt6vectorIdSaIdEE11_S_max_sizeERKS0_	 #
 # D:/msys64/ucrt64/include/c++/15.2.0/bits/stl_vector.h:2210: 	if (__n > _S_max_size(_Tp_alloc_type(__a)))
	.loc 9 2210 10 discriminator 2
	cmpq	16(%rbp), %rax	 # __n, _1
	setb	%al	 #, retval.3_6
.LBB159:
.LBB160:
 # D:/msys64/ucrt64/include/c++/15.2.0/bits/allocator.h:189:       ~allocator() _GLIBCXX_NOTHROW { }
	.loc 6 189 31
	nop	
.LBE160:
.LBE159:
 # D:/msys64/ucrt64/include/c++/15.2.0/bits/stl_vector.h:2210: 	if (__n > _S_max_size(_Tp_alloc_type(__a)))
	.loc 9 2210 2 discriminator 3
	testb	%al, %al	 # retval.3_6
	je	.L47	 #,
 # D:/msys64/ucrt64/include/c++/15.2.0/bits/stl_vector.h:2211: 	  __throw_length_error(
	.loc 9 2211 24
	leaq	.LC5(%rip), %rax	 #, tmp106
	movq	%rax, %rcx	 # tmp106,
	call	_ZSt20__throw_length_errorPKc	 #
.L47:
 # D:/msys64/ucrt64/include/c++/15.2.0/bits/stl_vector.h:2213: 	return __n;
	.loc 9 2213 9
	movq	16(%rbp), %rax	 # __n, _8
 # D:/msys64/ucrt64/include/c++/15.2.0/bits/stl_vector.h:2214:       }
	.loc 9 2214 7
	addq	$64, %rsp	 #,
	popq	%rbp	 #
	.cfi_restore 6
	.cfi_def_cfa 7, 8
	ret	
	.cfi_endproc
.LFE4940:
	.seh_endproc
	.section	.text$_ZNSt6vectorIdSaIdEE11_S_max_sizeERKS0_,"x"
	.linkonce discard
	.globl	_ZNSt6vectorIdSaIdEE11_S_max_sizeERKS0_
	.def	_ZNSt6vectorIdSaIdEE11_S_max_sizeERKS0_;	.scl	2;	.type	32;	.endef
	.seh_proc	_ZNSt6vectorIdSaIdEE11_S_max_sizeERKS0_
_ZNSt6vectorIdSaIdEE11_S_max_sizeERKS0_:
.LFB4941:
	.loc 9 2217 7
	.cfi_startproc
	pushq	%rbp	 #
	.seh_pushreg	%rbp
	.cfi_def_cfa_offset 16
	.cfi_offset 6, -16
	movq	%rsp, %rbp	 #,
	.seh_setframe	%rbp, 0
	.cfi_def_cfa_register 6
	subq	$48, %rsp	 #,
	.seh_stackalloc	48
	.seh_endprologue
	movq	%rcx, 16(%rbp)	 # __a, __a
 # D:/msys64/ucrt64/include/c++/15.2.0/bits/stl_vector.h:2222: 	const size_t __diffmax
	.loc 9 2222 15
	movabsq	$1152921504606846975, %rax	 #, tmp105
	movq	%rax, -8(%rbp)	 # tmp105, __diffmax
 # D:/msys64/ucrt64/include/c++/15.2.0/bits/stl_vector.h:2224: 	const size_t __allocmax = _Alloc_traits::max_size(__a);
	.loc 9 2224 15
	movabsq	$2305843009213693951, %rax	 #, tmp106
	movq	%rax, -16(%rbp)	 # tmp106, __allocmax
 # D:/msys64/ucrt64/include/c++/15.2.0/bits/stl_vector.h:2225: 	return (std::min)(__diffmax, __allocmax);
	.loc 9 2225 19
	leaq	-16(%rbp), %rdx	 #, tmp101
	leaq	-8(%rbp), %rax	 #, tmp102
	movq	%rax, %rcx	 # tmp102,
	call	_ZSt3minIyERKT_S2_S2_	 #
 # D:/msys64/ucrt64/include/c++/15.2.0/bits/stl_vector.h:2225: 	return (std::min)(__diffmax, __allocmax);
	.loc 9 2225 41 discriminator 1
	movq	(%rax), %rax	 # *_1, _6
 # D:/msys64/ucrt64/include/c++/15.2.0/bits/stl_vector.h:2226:       }
	.loc 9 2226 7
	addq	$48, %rsp	 #,
	popq	%rbp	 #
	.cfi_restore 6
	.cfi_def_cfa 7, 8
	ret	
	.cfi_endproc
.LFE4941:
	.seh_endproc
	.section	.text$_ZSt3minIyERKT_S2_S2_,"x"
	.linkonce discard
	.globl	_ZSt3minIyERKT_S2_S2_
	.def	_ZSt3minIyERKT_S2_S2_;	.scl	2;	.type	32;	.endef
	.seh_proc	_ZSt3minIyERKT_S2_S2_
_ZSt3minIyERKT_S2_S2_:
.LFB4943:
	.file 12 "D:/msys64/ucrt64/include/c++/15.2.0/bits/stl_algobase.h"
	.loc 12 234 5
	.cfi_startproc
	pushq	%rbp	 #
	.seh_pushreg	%rbp
	.cfi_def_cfa_offset 16
	.cfi_offset 6, -16
	movq	%rsp, %rbp	 #,
	.seh_setframe	%rbp, 0
	.cfi_def_cfa_register 6
	.seh_endprologue
	movq	%rcx, 16(%rbp)	 # __a, __a
	movq	%rdx, 24(%rbp)	 # __b, __b
 # D:/msys64/ucrt64/include/c++/15.2.0/bits/stl_algobase.h:239:       if (__b < __a)
	.loc 12 239 15
	movq	24(%rbp), %rax	 # __b, tmp102
	movq	(%rax), %rdx	 # *__b_5(D), _1
	movq	16(%rbp), %rax	 # __a, tmp103
	movq	(%rax), %rax	 # *__a_6(D), _2
 # D:/msys64/ucrt64/include/c++/15.2.0/bits/stl_algobase.h:239:       if (__b < __a)
	.loc 12 239 7
	cmpq	%rax, %rdx	 # _2, _1
	jnb	.L52	 #,
 # D:/msys64/ucrt64/include/c++/15.2.0/bits/stl_algobase.h:240: 	return __b;
	.loc 12 240 9
	movq	24(%rbp), %rax	 # __b, _3
	jmp	.L53	 #
.L52:
 # D:/msys64/ucrt64/include/c++/15.2.0/bits/stl_algobase.h:241:       return __a;
	.loc 12 241 14
	movq	16(%rbp), %rax	 # __a, _3
.L53:
 # D:/msys64/ucrt64/include/c++/15.2.0/bits/stl_algobase.h:242:     }
	.loc 12 242 5
	popq	%rbp	 #
	.cfi_restore 6
	.cfi_def_cfa 7, 8
	ret	
	.cfi_endproc
.LFE4943:
	.seh_endproc
	.section	.text$_ZNSt12_Vector_baseIdSaIdEE11_M_allocateEy,"x"
	.linkonce discard
	.align 2
	.globl	_ZNSt12_Vector_baseIdSaIdEE11_M_allocateEy
	.def	_ZNSt12_Vector_baseIdSaIdEE11_M_allocateEy;	.scl	2;	.type	32;	.endef
	.seh_proc	_ZNSt12_Vector_baseIdSaIdEE11_M_allocateEy
_ZNSt12_Vector_baseIdSaIdEE11_M_allocateEy:
.LFB4947:
	.loc 9 384 7
	.cfi_startproc
	pushq	%rbp	 #
	.seh_pushreg	%rbp
	.cfi_def_cfa_offset 16
	.cfi_offset 6, -16
	movq	%rsp, %rbp	 #,
	.seh_setframe	%rbp, 0
	.cfi_def_cfa_register 6
	subq	$64, %rsp	 #,
	.seh_stackalloc	64
	.seh_endprologue
	movq	%rcx, 16(%rbp)	 # this, this
	movq	%rdx, 24(%rbp)	 # __n, __n
 # D:/msys64/ucrt64/include/c++/15.2.0/bits/stl_vector.h:387: 	return __n != 0 ? _Tr::allocate(_M_impl, __n) : pointer();
	.loc 9 387 18
	cmpq	$0, 24(%rbp)	 #, __n
	je	.L55	 #,
 # D:/msys64/ucrt64/include/c++/15.2.0/bits/stl_vector.h:387: 	return __n != 0 ? _Tr::allocate(_M_impl, __n) : pointer();
	.loc 9 387 34 discriminator 1
	movq	16(%rbp), %rax	 # this, _1
	movq	%rax, -8(%rbp)	 # _1, __a
	movq	24(%rbp), %rax	 # __n, tmp110
	movq	%rax, -16(%rbp)	 # tmp110, __n
	movq	-8(%rbp), %rax	 # __a, tmp111
	movq	%rax, -24(%rbp)	 # tmp111, this
	movq	-16(%rbp), %rax	 # __n, tmp112
	movq	%rax, -32(%rbp)	 # tmp112, __n
.LBB161:
.LBB162:
.LBB163:
.LBB164:
.LBB165:
.LBB166:
 # D:/msys64/ucrt64/include/c++/15.2.0/x86_64-w64-mingw32/bits/c++config.h:589:     return __builtin_is_constant_evaluated();
	.file 13 "D:/msys64/ucrt64/include/c++/15.2.0/x86_64-w64-mingw32/bits/c++config.h"
	.loc 13 589 44
	movl	$0, %eax	 #, _13
.LBE166:
.LBE165:
 # D:/msys64/ucrt64/include/c++/15.2.0/bits/allocator.h:196: 	if (std::__is_constant_evaluated())
	.loc 6 196 2 discriminator 1
	testb	%al, %al	 # _13
	je	.L57	 #,
 # D:/msys64/ucrt64/include/c++/15.2.0/bits/allocator.h:198: 	    if (__builtin_mul_overflow(__n, sizeof(_Tp), &__n))
	.loc 6 198 32
	movq	-32(%rbp), %rax	 # __n, __n.6_16
	movl	$0, %ecx	 #, _17
	leaq	0(,%rax,8), %rdx	 #, tmp113
	shrq	$61, %rax	 #, tmp114
	testq	%rax, %rax	 # tmp114
	je	.L58	 #,
	movl	$1, %ecx	 #, _17
.L58:
	movq	%rdx, %rax	 # tmp113, _17
 # D:/msys64/ucrt64/include/c++/15.2.0/bits/allocator.h:198: 	    if (__builtin_mul_overflow(__n, sizeof(_Tp), &__n))
	.loc 6 198 32 is_stmt 0 discriminator 1
	movq	%rax, -32(%rbp)	 # _18, __n
	movq	%rcx, %rax	 # _17, _19
	andl	$1, %eax	 #, retval.5_20
 # D:/msys64/ucrt64/include/c++/15.2.0/bits/allocator.h:198: 	    if (__builtin_mul_overflow(__n, sizeof(_Tp), &__n))
	.loc 6 198 6 is_stmt 1 discriminator 1
	testb	%al, %al	 # retval.5_20
	je	.L60	 #,
 # D:/msys64/ucrt64/include/c++/15.2.0/bits/allocator.h:199: 	      std::__throw_bad_array_new_length();
	.loc 6 199 41
	call	_ZSt28__throw_bad_array_new_lengthv	 #
.L60:
 # D:/msys64/ucrt64/include/c++/15.2.0/bits/allocator.h:200: 	    return static_cast<_Tp*>(::operator new(__n));
	.loc 6 200 45
	movq	-32(%rbp), %rax	 # __n, __n.7_21
	movq	%rax, %rcx	 # __n.7_21,
	call	_Znwy	 #
 # D:/msys64/ucrt64/include/c++/15.2.0/bits/allocator.h:200: 	    return static_cast<_Tp*>(::operator new(__n));
	.loc 6 200 50
	jmp	.L61	 #
.L57:
 # D:/msys64/ucrt64/include/c++/15.2.0/bits/allocator.h:203: 	return __allocator_base<_Tp>::allocate(__n, 0);
	.loc 6 203 40
	movq	-32(%rbp), %rdx	 # __n, __n.8_24
	movq	-24(%rbp), %rax	 # this, tmp116
	movl	$0, %r8d	 #,
	movq	%rax, %rcx	 # tmp116,
	call	_ZNSt15__new_allocatorIdE8allocateEyPKv	 #
 # D:/msys64/ucrt64/include/c++/15.2.0/bits/allocator.h:203: 	return __allocator_base<_Tp>::allocate(__n, 0);
	.loc 6 203 47
	nop	
.L61:
.LBE164:
.LBE163:
 # D:/msys64/ucrt64/include/c++/15.2.0/bits/alloc_traits.h:614:       { return __a.allocate(__n); }
	.file 14 "D:/msys64/ucrt64/include/c++/15.2.0/bits/alloc_traits.h"
	.loc 14 614 32
	nop	
	jmp	.L63	 #
.L55:
.LBE162:
.LBE161:
 # D:/msys64/ucrt64/include/c++/15.2.0/bits/stl_vector.h:387: 	return __n != 0 ? _Tr::allocate(_M_impl, __n) : pointer();
	.loc 9 387 58 discriminator 2
	movl	$0, %eax	 #, D.105008
.L63:
 # D:/msys64/ucrt64/include/c++/15.2.0/bits/stl_vector.h:388:       }
	.loc 9 388 7
	addq	$64, %rsp	 #,
	popq	%rbp	 #
	.cfi_restore 6
	.cfi_def_cfa 7, 8
	ret	
	.cfi_endproc
.LFE4947:
	.seh_endproc
	.section	.text$_ZN3cva4math6MatrixD1Ev,"x"
	.linkonce discard
	.align 2
	.globl	_ZN3cva4math6MatrixD1Ev
	.def	_ZN3cva4math6MatrixD1Ev;	.scl	2;	.type	32;	.endef
	.seh_proc	_ZN3cva4math6MatrixD1Ev
_ZN3cva4math6MatrixD1Ev:
.LFB4952:
	.loc 4 13 11
	.cfi_startproc
	pushq	%rbp	 #
	.seh_pushreg	%rbp
	.cfi_def_cfa_offset 16
	.cfi_offset 6, -16
	movq	%rsp, %rbp	 #,
	.seh_setframe	%rbp, 0
	.cfi_def_cfa_register 6
	subq	$32, %rsp	 #,
	.seh_stackalloc	32
	.seh_endprologue
	movq	%rcx, 16(%rbp)	 # this, this
.LBB167:
 # E:/Projects/Simulation_Projects/cva_cpp/includes_hpp/math/matrix.hpp:13:     class Matrix {
	.loc 4 13 11
	movq	16(%rbp), %rax	 # this, tmp99
	addq	$16, %rax	 #, _1
	movq	%rax, %rcx	 # _1,
	call	_ZNSt6vectorIdSaIdEED1Ev	 #
.LBE167:
	nop	
	addq	$32, %rsp	 #,
	popq	%rbp	 #
	.cfi_restore 6
	.cfi_def_cfa 7, 8
	ret	
	.cfi_endproc
.LFE4952:
	.seh_endproc
	.section	.text$_ZN3cva11instruments14EuropeanOptionD1Ev,"x"
	.linkonce discard
	.align 2
	.globl	_ZN3cva11instruments14EuropeanOptionD1Ev
	.def	_ZN3cva11instruments14EuropeanOptionD1Ev;	.scl	2;	.type	32;	.endef
	.seh_proc	_ZN3cva11instruments14EuropeanOptionD1Ev
_ZN3cva11instruments14EuropeanOptionD1Ev:
.LFB4955:
	.loc 8 13 11
	.cfi_startproc
	pushq	%rbp	 #
	.seh_pushreg	%rbp
	.cfi_def_cfa_offset 16
	.cfi_offset 6, -16
	movq	%rsp, %rbp	 #,
	.seh_setframe	%rbp, 0
	.cfi_def_cfa_register 6
	subq	$32, %rsp	 #,
	.seh_stackalloc	32
	.seh_endprologue
	movq	%rcx, 16(%rbp)	 # this, this
.LBB168:
 # E:/Projects/Simulation_Projects/cva_cpp/includes_hpp/instruments/vanilla.hpp:13:     class EuropeanOption : public Instrument {
	.loc 8 13 11
	leaq	16+_ZTVN3cva11instruments14EuropeanOptionE(%rip), %rdx	 #, _1
	movq	16(%rbp), %rax	 # this, tmp100
	movq	%rdx, (%rax)	 # _1, this_4(D)->D.95428._vptr.Instrument
	movq	16(%rbp), %rax	 # this, _2
	movq	%rax, %rcx	 # _2,
	call	_ZN3cva11instruments10InstrumentD2Ev	 #
.LBE168:
	nop	
	addq	$32, %rsp	 #,
	popq	%rbp	 #
	.cfi_restore 6
	.cfi_def_cfa 7, 8
	ret	
	.cfi_endproc
.LFE4955:
	.seh_endproc
	.section	.text$_ZN3cva11instruments14EuropeanOptionD0Ev,"x"
	.linkonce discard
	.align 2
	.globl	_ZN3cva11instruments14EuropeanOptionD0Ev
	.def	_ZN3cva11instruments14EuropeanOptionD0Ev;	.scl	2;	.type	32;	.endef
	.seh_proc	_ZN3cva11instruments14EuropeanOptionD0Ev
_ZN3cva11instruments14EuropeanOptionD0Ev:
.LFB4956:
	.loc 8 13 11
	.cfi_startproc
	pushq	%rbp	 #
	.seh_pushreg	%rbp
	.cfi_def_cfa_offset 16
	.cfi_offset 6, -16
	movq	%rsp, %rbp	 #,
	.seh_setframe	%rbp, 0
	.cfi_def_cfa_register 6
	subq	$32, %rsp	 #,
	.seh_stackalloc	32
	.seh_endprologue
	movq	%rcx, 16(%rbp)	 # this, this
 # E:/Projects/Simulation_Projects/cva_cpp/includes_hpp/instruments/vanilla.hpp:13:     class EuropeanOption : public Instrument {
	.loc 8 13 11
	movq	16(%rbp), %rax	 # this, tmp98
	movq	%rax, %rcx	 # tmp98,
	call	_ZN3cva11instruments14EuropeanOptionD1Ev	 #
 # E:/Projects/Simulation_Projects/cva_cpp/includes_hpp/instruments/vanilla.hpp:13:     class EuropeanOption : public Instrument {
	.loc 8 13 11 is_stmt 0 discriminator 1
	movq	16(%rbp), %rax	 # this, tmp99
	movl	$48, %edx	 #,
	movq	%rax, %rcx	 # tmp99,
	call	_ZdlPvy	 #
	nop	
 # E:/Projects/Simulation_Projects/cva_cpp/includes_hpp/instruments/vanilla.hpp:13:     class EuropeanOption : public Instrument {
	.loc 8 13 11
	addq	$32, %rsp	 #,
	popq	%rbp	 #
	.cfi_restore 6
	.cfi_def_cfa 7, 8
	ret	
	.cfi_endproc
.LFE4956:
	.seh_endproc
	.section	.text$_ZN3cva15ExposureProfileD1Ev,"x"
	.linkonce discard
	.align 2
	.globl	_ZN3cva15ExposureProfileD1Ev
	.def	_ZN3cva15ExposureProfileD1Ev;	.scl	2;	.type	32;	.endef
	.seh_proc	_ZN3cva15ExposureProfileD1Ev
_ZN3cva15ExposureProfileD1Ev:
.LFB4959:
	.file 15 "E:/Projects/Simulation_Projects/cva_cpp/includes_hpp/cva/cva_calculator.hpp"
	.loc 15 13 12 is_stmt 1
	.cfi_startproc
	pushq	%rbp	 #
	.seh_pushreg	%rbp
	.cfi_def_cfa_offset 16
	.cfi_offset 6, -16
	movq	%rsp, %rbp	 #,
	.seh_setframe	%rbp, 0
	.cfi_def_cfa_register 6
	subq	$32, %rsp	 #,
	.seh_stackalloc	32
	.seh_endprologue
	movq	%rcx, 16(%rbp)	 # this, this
.LBB169:
 # E:/Projects/Simulation_Projects/cva_cpp/includes_hpp/cva/cva_calculator.hpp:13:     struct ExposureProfile {
	.loc 15 13 12
	movq	16(%rbp), %rax	 # this, tmp101
	addq	$48, %rax	 #, _1
	movq	%rax, %rcx	 # _1,
	call	_ZNSt6vectorIdSaIdEED1Ev	 #
 # E:/Projects/Simulation_Projects/cva_cpp/includes_hpp/cva/cva_calculator.hpp:13:     struct ExposureProfile {
	.loc 15 13 12 is_stmt 0 discriminator 1
	movq	16(%rbp), %rax	 # this, tmp102
	addq	$24, %rax	 #, _2
	movq	%rax, %rcx	 # _2,
	call	_ZNSt6vectorIdSaIdEED1Ev	 #
 # E:/Projects/Simulation_Projects/cva_cpp/includes_hpp/cva/cva_calculator.hpp:13:     struct ExposureProfile {
	.loc 15 13 12 discriminator 2
	movq	16(%rbp), %rax	 # this, _3
	movq	%rax, %rcx	 # _3,
	call	_ZNSt6vectorIdSaIdEED1Ev	 #
.LBE169:
 # E:/Projects/Simulation_Projects/cva_cpp/includes_hpp/cva/cva_calculator.hpp:13:     struct ExposureProfile {
	.loc 15 13 12
	nop	
	addq	$32, %rsp	 #,
	popq	%rbp	 #
	.cfi_restore 6
	.cfi_def_cfa 7, 8
	ret	
	.cfi_endproc
.LFE4959:
	.seh_endproc
	.section .rdata,"dr"
.LC6:
	.ascii "__n < this->size()\0"
	.align 8
.LC7:
	.ascii "constexpr std::vector<_Tp, _Alloc>::reference std::vector<_Tp, _Alloc>::operator[](size_type) [with _Tp = double; _Alloc = std::allocator<double>; reference = double&; size_type = long long unsigned int]\0"
	.align 8
.LC8:
	.ascii "D:/msys64/ucrt64/include/c++/15.2.0/bits/stl_vector.h\0"
	.section	.text$_ZNSt6vectorIdSaIdEEixEy,"x"
	.linkonce discard
	.align 2
	.globl	_ZNSt6vectorIdSaIdEEixEy
	.def	_ZNSt6vectorIdSaIdEEixEy;	.scl	2;	.type	32;	.endef
	.seh_proc	_ZNSt6vectorIdSaIdEEixEy
_ZNSt6vectorIdSaIdEEixEy:
.LFB4960:
	.loc 9 1261 7 is_stmt 1
	.cfi_startproc
	pushq	%rbp	 #
	.seh_pushreg	%rbp
	.cfi_def_cfa_offset 16
	.cfi_offset 6, -16
	movq	%rsp, %rbp	 #,
	.seh_setframe	%rbp, 0
	.cfi_def_cfa_register 6
	subq	$32, %rsp	 #,
	.seh_stackalloc	32
	.seh_endprologue
	movq	%rcx, 16(%rbp)	 # this, this
	movq	%rdx, 24(%rbp)	 # __n, __n
 # D:/msys64/ucrt64/include/c++/15.2.0/bits/stl_vector.h:1263: 	__glibcxx_requires_subscript(__n);
	.loc 9 1263 50
	movq	16(%rbp), %rax	 # this, tmp107
	movq	%rax, %rcx	 # tmp107,
	call	_ZNKSt6vectorIdSaIdEE4sizeEv	 #
 # D:/msys64/ucrt64/include/c++/15.2.0/bits/stl_vector.h:1263: 	__glibcxx_requires_subscript(__n);
	.loc 9 1263 29 discriminator 1
	cmpq	%rax, 24(%rbp)	 # _1, __n
	setnb	%al	 #, _2
 # D:/msys64/ucrt64/include/c++/15.2.0/bits/stl_vector.h:1263: 	__glibcxx_requires_subscript(__n);
	.loc 9 1263 27 discriminator 1
	movzbl	%al, %eax	 # _2, _3
 # D:/msys64/ucrt64/include/c++/15.2.0/bits/stl_vector.h:1263: 	__glibcxx_requires_subscript(__n);
	.loc 9 1263 27 is_stmt 0 discriminator 2
	testl	%eax, %eax	 # _4
	setne	%al	 #, retval.24_11
 # D:/msys64/ucrt64/include/c++/15.2.0/bits/stl_vector.h:1263: 	__glibcxx_requires_subscript(__n);
	.loc 9 1263 7 is_stmt 1 discriminator 2
	testb	%al, %al	 # retval.24_11
	je	.L70	 #,
 # D:/msys64/ucrt64/include/c++/15.2.0/bits/stl_vector.h:1263: 	__glibcxx_requires_subscript(__n);
	.loc 9 1263 89 discriminator 3
	leaq	.LC6(%rip), %rcx	 #, tmp108
	leaq	.LC7(%rip), %rdx	 #, tmp109
	leaq	.LC8(%rip), %rax	 #, tmp110
	movq	%rcx, %r9	 # tmp108,
	movq	%rdx, %r8	 # tmp109,
	movl	$1263, %edx	 #,
	movq	%rax, %rcx	 # tmp110,
	call	_ZSt21__glibcxx_assert_failPKciS0_S0_	 #
.L70:
 # D:/msys64/ucrt64/include/c++/15.2.0/bits/stl_vector.h:1264: 	return *(this->_M_impl._M_start + __n);
	.loc 9 1264 25
	movq	16(%rbp), %rax	 # this, tmp111
	movq	(%rax), %rax	 # this_8(D)->D.68084._M_impl.D.67390._M_start, _5
 # D:/msys64/ucrt64/include/c++/15.2.0/bits/stl_vector.h:1264: 	return *(this->_M_impl._M_start + __n);
	.loc 9 1264 34
	movq	24(%rbp), %rdx	 # __n, tmp112
	salq	$3, %rdx	 #, _6
 # D:/msys64/ucrt64/include/c++/15.2.0/bits/stl_vector.h:1264: 	return *(this->_M_impl._M_start + __n);
	.loc 9 1264 39
	addq	%rdx, %rax	 # _6, _12
 # D:/msys64/ucrt64/include/c++/15.2.0/bits/stl_vector.h:1265:       }
	.loc 9 1265 7
	addq	$32, %rsp	 #,
	popq	%rbp	 #
	.cfi_restore 6
	.cfi_def_cfa 7, 8
	ret	
	.cfi_endproc
.LFE4960:
	.seh_endproc
	.section	.text$_ZNKSt6vectorIdSaIdEE4sizeEv,"x"
	.linkonce discard
	.align 2
	.globl	_ZNKSt6vectorIdSaIdEE4sizeEv
	.def	_ZNKSt6vectorIdSaIdEE4sizeEv;	.scl	2;	.type	32;	.endef
	.seh_proc	_ZNKSt6vectorIdSaIdEE4sizeEv
_ZNKSt6vectorIdSaIdEE4sizeEv:
.LFB4961:
	.loc 9 1117 7
	.cfi_startproc
	pushq	%rbp	 #
	.seh_pushreg	%rbp
	.cfi_def_cfa_offset 16
	.cfi_offset 6, -16
	movq	%rsp, %rbp	 #,
	.seh_setframe	%rbp, 0
	.cfi_def_cfa_register 6
	subq	$16, %rsp	 #,
	.seh_stackalloc	16
	.seh_endprologue
	movq	%rcx, 16(%rbp)	 # this, this
 # D:/msys64/ucrt64/include/c++/15.2.0/bits/stl_vector.h:1119: 	ptrdiff_t __dif = this->_M_impl._M_finish - this->_M_impl._M_start;
	.loc 9 1119 34
	movq	16(%rbp), %rax	 # this, tmp103
	movq	8(%rax), %rdx	 # this_5(D)->D.68084._M_impl.D.67390._M_finish, _1
 # D:/msys64/ucrt64/include/c++/15.2.0/bits/stl_vector.h:1119: 	ptrdiff_t __dif = this->_M_impl._M_finish - this->_M_impl._M_start;
	.loc 9 1119 60
	movq	16(%rbp), %rax	 # this, tmp104
	movq	(%rax), %rax	 # this_5(D)->D.68084._M_impl.D.67390._M_start, _2
 # D:/msys64/ucrt64/include/c++/15.2.0/bits/stl_vector.h:1119: 	ptrdiff_t __dif = this->_M_impl._M_finish - this->_M_impl._M_start;
	.loc 9 1119 44
	subq	%rax, %rdx	 # _2, _3
 # D:/msys64/ucrt64/include/c++/15.2.0/bits/stl_vector.h:1119: 	ptrdiff_t __dif = this->_M_impl._M_finish - this->_M_impl._M_start;
	.loc 9 1119 12
	movq	%rdx, %rax	 # _3, _3
	sarq	$3, %rax	 #, _3
	movq	%rax, -8(%rbp)	 # __dif_6, __dif
 # D:/msys64/ucrt64/include/c++/15.2.0/bits/stl_vector.h:1120: 	if (__dif < 0)
	.loc 9 1120 2
	cmpq	$0, -8(%rbp)	 #, __dif
 # D:/msys64/ucrt64/include/c++/15.2.0/bits/stl_vector.h:1122: 	return size_type(__dif);
	.loc 9 1122 24
	movq	-8(%rbp), %rax	 # __dif, _7
 # D:/msys64/ucrt64/include/c++/15.2.0/bits/stl_vector.h:1123:       }
	.loc 9 1123 7
	addq	$16, %rsp	 #,
	popq	%rbp	 #
	.cfi_restore 6
	.cfi_def_cfa 7, 8
	ret	
	.cfi_endproc
.LFE4961:
	.seh_endproc
	.section .rdata,"dr"
	.align 8
.LC9:
	.ascii "Testing CVA Calculator (Mock)...\0"
.LC14:
	.ascii "EPE[0]: \0"
.LC15:
	.ascii "EPE[1]: \0"
	.align 8
.LC17:
	.ascii "E:\\Projects\\Simulation_Projects\\cva_cpp\\tests\\test_cva.cpp\0"
	.align 8
.LC18:
	.ascii "std::abs(profile.epe[0] - 100.0) < 1e-5\0"
	.align 8
.LC19:
	.ascii "std::abs(profile.epe[1] - 100.0) < 1e-5\0"
.LC20:
	.ascii "CVA: \0"
	.align 8
.LC23:
	.ascii "std::abs(profile.cva_value - 63.212) < 0.1\0"
.LC24:
	.ascii "CVA Calculator tests passed.\0"
	.text
	.globl	_Z13test_cva_calcv
	.def	_Z13test_cva_calcv;	.scl	2;	.type	32;	.endef
	.seh_proc	_Z13test_cva_calcv
_Z13test_cva_calcv:
.LFB4907:
	.file 16 "E:/Projects/Simulation_Projects/cva_cpp/tests/test_cva.cpp"
	.loc 16 23 22
	.cfi_startproc
	pushq	%rbp	 #
	.seh_pushreg	%rbp
	.cfi_def_cfa_offset 16
	.cfi_offset 6, -16
	pushq	%rdi	 #
	.seh_pushreg	%rdi
	.cfi_def_cfa_offset 24
	.cfi_offset 5, -24
	pushq	%rsi	 #
	.seh_pushreg	%rsi
	.cfi_def_cfa_offset 32
	.cfi_offset 4, -32
	pushq	%rbx	 #
	.seh_pushreg	%rbx
	.cfi_def_cfa_offset 40
	.cfi_offset 3, -40
	subq	$360, %rsp	 #,
	.seh_stackalloc	360
	.cfi_def_cfa_offset 400
	leaq	128(%rsp), %rbp	 #,
	.seh_setframe	%rbp, 128
	.cfi_def_cfa 6, 272
	.seh_endprologue
 # E:\Projects\Simulation_Projects\cva_cpp\tests\test_cva.cpp:24:     std::cout << "Testing CVA Calculator (Mock)..." << std::endl;
	.loc 16 24 18
	leaq	.LC9(%rip), %rdx	 #, tmp131
	movq	.refptr._ZSt4cout(%rip), %rax	 #, tmp132
	movq	%rax, %rcx	 # tmp132,
.LEHB2:
	call	_ZStlsISt11char_traitsIcEERSt13basic_ostreamIcT_ES5_PKc	 #
	movq	%rax, %rcx	 #, _1
 # E:\Projects\Simulation_Projects\cva_cpp\tests\test_cva.cpp:24:     std::cout << "Testing CVA Calculator (Mock)..." << std::endl;
	.loc 16 24 61 discriminator 2
	movq	.refptr._ZSt4endlIcSt11char_traitsIcEERSt13basic_ostreamIT_T0_ES6_(%rip), %rax	 #, tmp133
	movq	%rax, %rdx	 # tmp133,
	call	_ZNSolsEPFRSoS_E	 #
 # E:\Projects\Simulation_Projects\cva_cpp\tests\test_cva.cpp:31:     std::vector<double> time_grid = {0.0, 1.0};
	.loc 16 31 46
	pxor	%xmm0, %xmm0	 # tmp134
	movsd	%xmm0, 160(%rbp)	 # tmp134, D.95631[0]
	movsd	.LC10(%rip), %xmm0	 #, tmp135
	movsd	%xmm0, 168(%rbp)	 # tmp135, D.95631[1]
	leaq	160(%rbp), %rax	 #, tmp136
	movq	%rax, %rsi	 # tmp136, D.95632
	movl	$2, %edi	 #, D.95632
	leaq	183(%rbp), %rax	 #, tmp137
	movq	%rax, 184(%rbp)	 # tmp137, this
.LBB170:
.LBB171:
.LBB172:
.LBB173:
.LBB174:
 # D:/msys64/ucrt64/include/c++/15.2.0/bits/new_allocator.h:88:       __new_allocator() _GLIBCXX_USE_NOEXCEPT { }
	.loc 5 88 36
	nop	
.LBE174:
.LBE173:
.LBE172:
 # D:/msys64/ucrt64/include/c++/15.2.0/bits/allocator.h:168:       allocator() _GLIBCXX_NOTHROW { }
	.loc 6 168 30
	nop	
.LBE171:
.LBE170:
 # E:\Projects\Simulation_Projects\cva_cpp\tests\test_cva.cpp:31:     std::vector<double> time_grid = {0.0, 1.0};
	.loc 16 31 46 discriminator 1
	movq	%rsi, -64(%rbp)	 # D.95632,
	movq	%rdi, -56(%rbp)	 # D.95632,
	leaq	183(%rbp), %rcx	 #, tmp138
	leaq	-64(%rbp), %rdx	 #, tmp139
	leaq	128(%rbp), %rax	 #, tmp140
	movq	%rcx, %r8	 # tmp138,
	movq	%rax, %rcx	 # tmp140,
	call	_ZNSt6vectorIdSaIdEEC1ESt16initializer_listIdERKS0_	 #
.LEHE2:
.LBB175:
.LBB176:
 # D:/msys64/ucrt64/include/c++/15.2.0/bits/allocator.h:189:       ~allocator() _GLIBCXX_NOTHROW { }
	.loc 6 189 31
	nop	
.LBE176:
.LBE175:
 # E:\Projects\Simulation_Projects\cva_cpp\tests\test_cva.cpp:32:     math::Matrix paths(2, 2); 
	.loc 16 32 28
	leaq	80(%rbp), %rax	 #, tmp141
	pxor	%xmm3, %xmm3	 #
	movl	$2, %r8d	 #,
	movl	$2, %edx	 #,
	movq	%rax, %rcx	 # tmp141,
.LEHB3:
	call	_ZN3cva4math6MatrixC1Eyyd	 #
.LEHE3:
 # E:\Projects\Simulation_Projects\cva_cpp\tests\test_cva.cpp:34:     paths(0, 0) = 100.0; paths(0, 1) = 100.0;
	.loc 16 34 10
	leaq	80(%rbp), %rax	 #, tmp142
	movl	$0, %r8d	 #,
	movl	$0, %edx	 #,
	movq	%rax, %rcx	 # tmp142,
	call	_ZN3cva4math6MatrixclEyy	 #
 # E:\Projects\Simulation_Projects\cva_cpp\tests\test_cva.cpp:34:     paths(0, 0) = 100.0; paths(0, 1) = 100.0;
	.loc 16 34 17 discriminator 1
	movsd	.LC11(%rip), %xmm0	 #, tmp143
	movsd	%xmm0, (%rax)	 # tmp143, *_2
 # E:\Projects\Simulation_Projects\cva_cpp\tests\test_cva.cpp:34:     paths(0, 0) = 100.0; paths(0, 1) = 100.0;
	.loc 16 34 31 discriminator 1
	leaq	80(%rbp), %rax	 #, tmp144
	movl	$1, %r8d	 #,
	movl	$0, %edx	 #,
	movq	%rax, %rcx	 # tmp144,
	call	_ZN3cva4math6MatrixclEyy	 #
 # E:\Projects\Simulation_Projects\cva_cpp\tests\test_cva.cpp:34:     paths(0, 0) = 100.0; paths(0, 1) = 100.0;
	.loc 16 34 38 discriminator 2
	movsd	.LC11(%rip), %xmm0	 #, tmp145
	movsd	%xmm0, (%rax)	 # tmp145, *_3
 # E:\Projects\Simulation_Projects\cva_cpp\tests\test_cva.cpp:36:     paths(1, 0) = 100.0; paths(1, 1) = 100.0;
	.loc 16 36 10
	leaq	80(%rbp), %rax	 #, tmp146
	movl	$0, %r8d	 #,
	movl	$1, %edx	 #,
	movq	%rax, %rcx	 # tmp146,
	call	_ZN3cva4math6MatrixclEyy	 #
 # E:\Projects\Simulation_Projects\cva_cpp\tests\test_cva.cpp:36:     paths(1, 0) = 100.0; paths(1, 1) = 100.0;
	.loc 16 36 17 discriminator 1
	movsd	.LC11(%rip), %xmm0	 #, tmp147
	movsd	%xmm0, (%rax)	 # tmp147, *_4
 # E:\Projects\Simulation_Projects\cva_cpp\tests\test_cva.cpp:36:     paths(1, 0) = 100.0; paths(1, 1) = 100.0;
	.loc 16 36 31 discriminator 1
	leaq	80(%rbp), %rax	 #, tmp148
	movl	$1, %r8d	 #,
	movl	$1, %edx	 #,
	movq	%rax, %rcx	 # tmp148,
	call	_ZN3cva4math6MatrixclEyy	 #
 # E:\Projects\Simulation_Projects\cva_cpp\tests\test_cva.cpp:36:     paths(1, 0) = 100.0; paths(1, 1) = 100.0;
	.loc 16 36 38 discriminator 2
	movsd	.LC11(%rip), %xmm0	 #, tmp149
	movsd	%xmm0, (%rax)	 # tmp149, *_5
 # E:\Projects\Simulation_Projects\cva_cpp\tests\test_cva.cpp:38:     double r = 0.0;         // Simple discounting
	.loc 16 38 12
	pxor	%xmm0, %xmm0	 # tmp150
	movsd	%xmm0, 216(%rbp)	 # tmp150, r
 # E:\Projects\Simulation_Projects\cva_cpp\tests\test_cva.cpp:39:     double h = 1.0;         // High hazard rate for effect
	.loc 16 39 12
	movsd	.LC10(%rip), %xmm0	 #, tmp151
	movsd	%xmm0, 208(%rbp)	 # tmp151, h
 # E:\Projects\Simulation_Projects\cva_cpp\tests\test_cva.cpp:40:     double rec = 0.0;       // 0 recovery -> LGD = 1
	.loc 16 40 12
	pxor	%xmm0, %xmm0	 # tmp152
	movsd	%xmm0, 200(%rbp)	 # tmp152, rec
 # E:\Projects\Simulation_Projects\cva_cpp\tests\test_cva.cpp:41:     double vol = 0.2;
	.loc 16 41 12
	movsd	.LC12(%rip), %xmm0	 #, tmp153
	movsd	%xmm0, 192(%rbp)	 # tmp153, vol
 # E:\Projects\Simulation_Projects\cva_cpp\tests\test_cva.cpp:49:     );
	.loc 16 49 5
	movsd	.LC13(%rip), %xmm1	 #, tmp154
	leaq	32(%rbp), %rax	 #, tmp155
	movsd	192(%rbp), %xmm0	 # vol, tmp156
	movsd	%xmm0, 40(%rsp)	 # tmp156,
	movsd	216(%rbp), %xmm0	 # r, tmp157
	movsd	%xmm0, 32(%rsp)	 # tmp157,
	movapd	%xmm1, %xmm3	 # tmp154,
	pxor	%xmm2, %xmm2	 #
	movl	$0, %edx	 #,
	movq	%rax, %rcx	 # tmp155,
	call	_ZN3cva11instruments14EuropeanOptionC1ENS0_10OptionTypeEdddd	 #
 # E:\Projects\Simulation_Projects\cva_cpp\tests\test_cva.cpp:53:     );
	.loc 16 53 5
	leaq	-48(%rbp), %rax	 #, tmp158
	leaq	128(%rbp), %r8	 #, tmp159
	leaq	80(%rbp), %rcx	 #, tmp160
	leaq	32(%rbp), %rdx	 #, tmp161
	movsd	200(%rbp), %xmm0	 # rec, tmp162
	movsd	%xmm0, 48(%rsp)	 # tmp162,
	movsd	208(%rbp), %xmm0	 # h, tmp163
	movsd	%xmm0, 40(%rsp)	 # tmp163,
	movsd	216(%rbp), %xmm0	 # r, tmp164
	movsd	%xmm0, 32(%rsp)	 # tmp164,
	movq	%r8, %r9	 # tmp159,
	movq	%rcx, %r8	 # tmp160,
	movq	%rax, %rcx	 # tmp158,
.LEHB4:
	call	_ZN3cva10Calculator11compute_cvaERKNS_11instruments10InstrumentERKNS_4math6MatrixERKSt6vectorIdSaIdEEddd	 #
.LEHE4:
 # E:\Projects\Simulation_Projects\cva_cpp\tests\test_cva.cpp:57:     std::cout << "EPE[0]: " << profile.epe[0] << std::endl;
	.loc 16 57 18
	leaq	.LC14(%rip), %rdx	 #, tmp165
	movq	.refptr._ZSt4cout(%rip), %rax	 #, tmp166
	movq	%rax, %rcx	 # tmp166,
.LEHB5:
	call	_ZStlsISt11char_traitsIcEERSt13basic_ostreamIcT_ES5_PKc	 #
	movq	%rax, %rbx	 #, _6
 # E:\Projects\Simulation_Projects\cva_cpp\tests\test_cva.cpp:57:     std::cout << "EPE[0]: " << profile.epe[0] << std::endl;
	.loc 16 57 45 discriminator 2
	leaq	-48(%rbp), %rax	 #, tmp167
	addq	$24, %rax	 #, tmp168
	movl	$0, %edx	 #,
	movq	%rax, %rcx	 # tmp168,
	call	_ZNSt6vectorIdSaIdEEixEy	 #
 # E:\Projects\Simulation_Projects\cva_cpp\tests\test_cva.cpp:57:     std::cout << "EPE[0]: " << profile.epe[0] << std::endl;
	.loc 16 57 45 is_stmt 0 discriminator 3
	movsd	(%rax), %xmm0	 # *_7, _8
	movapd	%xmm0, %xmm1	 # _8,
	movq	%rbx, %rcx	 # _6,
	call	_ZNSolsEd	 #
	movq	%rax, %rcx	 #, _9
 # E:\Projects\Simulation_Projects\cva_cpp\tests\test_cva.cpp:57:     std::cout << "EPE[0]: " << profile.epe[0] << std::endl;
	.loc 16 57 55 is_stmt 1 discriminator 5
	movq	.refptr._ZSt4endlIcSt11char_traitsIcEERSt13basic_ostreamIT_T0_ES6_(%rip), %rax	 #, tmp169
	movq	%rax, %rdx	 # tmp169,
	call	_ZNSolsEPFRSoS_E	 #
 # E:\Projects\Simulation_Projects\cva_cpp\tests\test_cva.cpp:58:     std::cout << "EPE[1]: " << profile.epe[1] << std::endl;
	.loc 16 58 18
	leaq	.LC15(%rip), %rdx	 #, tmp170
	movq	.refptr._ZSt4cout(%rip), %rax	 #, tmp171
	movq	%rax, %rcx	 # tmp171,
	call	_ZStlsISt11char_traitsIcEERSt13basic_ostreamIcT_ES5_PKc	 #
	movq	%rax, %rbx	 #, _10
 # E:\Projects\Simulation_Projects\cva_cpp\tests\test_cva.cpp:58:     std::cout << "EPE[1]: " << profile.epe[1] << std::endl;
	.loc 16 58 45 discriminator 2
	leaq	-48(%rbp), %rax	 #, tmp172
	addq	$24, %rax	 #, tmp173
	movl	$1, %edx	 #,
	movq	%rax, %rcx	 # tmp173,
	call	_ZNSt6vectorIdSaIdEEixEy	 #
 # E:\Projects\Simulation_Projects\cva_cpp\tests\test_cva.cpp:58:     std::cout << "EPE[1]: " << profile.epe[1] << std::endl;
	.loc 16 58 45 is_stmt 0 discriminator 3
	movsd	(%rax), %xmm0	 # *_11, _12
	movapd	%xmm0, %xmm1	 # _12,
	movq	%rbx, %rcx	 # _10,
	call	_ZNSolsEd	 #
	movq	%rax, %rcx	 #, _13
 # E:\Projects\Simulation_Projects\cva_cpp\tests\test_cva.cpp:58:     std::cout << "EPE[1]: " << profile.epe[1] << std::endl;
	.loc 16 58 55 is_stmt 1 discriminator 5
	movq	.refptr._ZSt4endlIcSt11char_traitsIcEERSt13basic_ostreamIT_T0_ES6_(%rip), %rax	 #, tmp174
	movq	%rax, %rdx	 # tmp174,
	call	_ZNSolsEPFRSoS_E	 #
 # E:\Projects\Simulation_Projects\cva_cpp\tests\test_cva.cpp:59:     assert(std::abs(profile.epe[0] - 100.0) < 1e-5);
	.loc 16 59 26
	leaq	-48(%rbp), %rax	 #, tmp175
	addq	$24, %rax	 #, tmp176
	movl	$0, %edx	 #,
	movq	%rax, %rcx	 # tmp176,
	call	_ZNSt6vectorIdSaIdEEixEy	 #
 # E:\Projects\Simulation_Projects\cva_cpp\tests\test_cva.cpp:59:     assert(std::abs(profile.epe[0] - 100.0) < 1e-5);
	.loc 16 59 12 discriminator 1
	movsd	(%rax), %xmm0	 # *_14, _15
	movsd	.LC11(%rip), %xmm1	 #, tmp177
	subsd	%xmm1, %xmm0	 # tmp177, _15
	movq	%xmm0, %rax	 # _15, _16
	movq	%rax, %xmm0	 # _16,
	call	_ZSt3absd	 #
 # E:\Projects\Simulation_Projects\cva_cpp\tests\test_cva.cpp:59:     assert(std::abs(profile.epe[0] - 100.0) < 1e-5);
	.loc 16 59 4 discriminator 2
	movsd	.LC16(%rip), %xmm1	 #, tmp178
	comisd	%xmm0, %xmm1	 # _17, tmp178
	ja	.L76	 #,
 # E:\Projects\Simulation_Projects\cva_cpp\tests\test_cva.cpp:59:     assert(std::abs(profile.epe[0] - 100.0) < 1e-5);
	.loc 16 59 18 discriminator 4
	leaq	.LC17(%rip), %rdx	 #, tmp179
	leaq	.LC18(%rip), %rax	 #, tmp180
	movl	$59, %r8d	 #,
	movq	%rax, %rcx	 # tmp180,
	call	_assert	 #
.L76:
 # E:\Projects\Simulation_Projects\cva_cpp\tests\test_cva.cpp:60:     assert(std::abs(profile.epe[1] - 100.0) < 1e-5);
	.loc 16 60 26
	leaq	-48(%rbp), %rax	 #, tmp181
	addq	$24, %rax	 #, tmp182
	movl	$1, %edx	 #,
	movq	%rax, %rcx	 # tmp182,
	call	_ZNSt6vectorIdSaIdEEixEy	 #
 # E:\Projects\Simulation_Projects\cva_cpp\tests\test_cva.cpp:60:     assert(std::abs(profile.epe[1] - 100.0) < 1e-5);
	.loc 16 60 12 discriminator 1
	movsd	(%rax), %xmm0	 # *_18, _19
	movsd	.LC11(%rip), %xmm1	 #, tmp183
	subsd	%xmm1, %xmm0	 # tmp183, _19
	movq	%xmm0, %rax	 # _19, _20
	movq	%rax, %xmm0	 # _20,
	call	_ZSt3absd	 #
 # E:\Projects\Simulation_Projects\cva_cpp\tests\test_cva.cpp:60:     assert(std::abs(profile.epe[1] - 100.0) < 1e-5);
	.loc 16 60 4 discriminator 2
	movsd	.LC16(%rip), %xmm1	 #, tmp184
	comisd	%xmm0, %xmm1	 # _21, tmp184
	ja	.L77	 #,
 # E:\Projects\Simulation_Projects\cva_cpp\tests\test_cva.cpp:60:     assert(std::abs(profile.epe[1] - 100.0) < 1e-5);
	.loc 16 60 18 discriminator 4
	leaq	.LC17(%rip), %rdx	 #, tmp185
	leaq	.LC19(%rip), %rax	 #, tmp186
	movl	$60, %r8d	 #,
	movq	%rax, %rcx	 # tmp186,
	call	_assert	 #
.L77:
 # E:\Projects\Simulation_Projects\cva_cpp\tests\test_cva.cpp:66:     std::cout << "CVA: " << profile.cva_value << std::endl;
	.loc 16 66 18
	leaq	.LC20(%rip), %rdx	 #, tmp187
	movq	.refptr._ZSt4cout(%rip), %rax	 #, tmp188
	movq	%rax, %rcx	 # tmp188,
	call	_ZStlsISt11char_traitsIcEERSt13basic_ostreamIcT_ES5_PKc	 #
 # E:\Projects\Simulation_Projects\cva_cpp\tests\test_cva.cpp:66:     std::cout << "CVA: " << profile.cva_value << std::endl;
	.loc 16 66 37 discriminator 2
	movsd	24(%rbp), %xmm0	 # profile.cva_value, _23
	movapd	%xmm0, %xmm1	 # _23,
	movq	%rax, %rcx	 # _22,
	call	_ZNSolsEd	 #
	movq	%rax, %rcx	 #, _24
 # E:\Projects\Simulation_Projects\cva_cpp\tests\test_cva.cpp:66:     std::cout << "CVA: " << profile.cva_value << std::endl;
	.loc 16 66 55 discriminator 4
	movq	.refptr._ZSt4endlIcSt11char_traitsIcEERSt13basic_ostreamIT_T0_ES6_(%rip), %rax	 #, tmp189
	movq	%rax, %rdx	 # tmp189,
	call	_ZNSolsEPFRSoS_E	 #
 # E:\Projects\Simulation_Projects\cva_cpp\tests\test_cva.cpp:67:     assert(std::abs(profile.cva_value - 63.212) < 0.1);
	.loc 16 67 21
	movsd	24(%rbp), %xmm0	 # profile.cva_value, _25
 # E:\Projects\Simulation_Projects\cva_cpp\tests\test_cva.cpp:67:     assert(std::abs(profile.cva_value - 63.212) < 0.1);
	.loc 16 67 12
	movsd	.LC21(%rip), %xmm1	 #, tmp190
	subsd	%xmm1, %xmm0	 # tmp190, _25
	movq	%xmm0, %rax	 # _25, _26
	movq	%rax, %xmm0	 # _26,
	call	_ZSt3absd	 #
 # E:\Projects\Simulation_Projects\cva_cpp\tests\test_cva.cpp:67:     assert(std::abs(profile.cva_value - 63.212) < 0.1);
	.loc 16 67 4 discriminator 1
	movsd	.LC22(%rip), %xmm1	 #, tmp191
	comisd	%xmm0, %xmm1	 # _27, tmp191
	ja	.L78	 #,
 # E:\Projects\Simulation_Projects\cva_cpp\tests\test_cva.cpp:67:     assert(std::abs(profile.cva_value - 63.212) < 0.1);
	.loc 16 67 18 discriminator 3
	leaq	.LC17(%rip), %rdx	 #, tmp192
	leaq	.LC23(%rip), %rax	 #, tmp193
	movl	$67, %r8d	 #,
	movq	%rax, %rcx	 # tmp193,
	call	_assert	 #
.L78:
 # E:\Projects\Simulation_Projects\cva_cpp\tests\test_cva.cpp:69:     std::cout << "CVA Calculator tests passed." << std::endl;
	.loc 16 69 18
	leaq	.LC24(%rip), %rdx	 #, tmp194
	movq	.refptr._ZSt4cout(%rip), %rax	 #, tmp195
	movq	%rax, %rcx	 # tmp195,
	call	_ZStlsISt11char_traitsIcEERSt13basic_ostreamIcT_ES5_PKc	 #
	movq	%rax, %rcx	 #, _28
 # E:\Projects\Simulation_Projects\cva_cpp\tests\test_cva.cpp:69:     std::cout << "CVA Calculator tests passed." << std::endl;
	.loc 16 69 57 discriminator 2
	movq	.refptr._ZSt4endlIcSt11char_traitsIcEERSt13basic_ostreamIT_T0_ES6_(%rip), %rax	 #, tmp196
	movq	%rax, %rdx	 # tmp196,
	call	_ZNSolsEPFRSoS_E	 #
.LEHE5:
 # E:\Projects\Simulation_Projects\cva_cpp\tests\test_cva.cpp:70: }
	.loc 16 70 1
	leaq	-48(%rbp), %rax	 #, tmp197
	movq	%rax, %rcx	 # tmp197,
	call	_ZN3cva15ExposureProfileD1Ev	 #
 # E:\Projects\Simulation_Projects\cva_cpp\tests\test_cva.cpp:70: }
	.loc 16 70 1 is_stmt 0 discriminator 1
	leaq	32(%rbp), %rax	 #, tmp198
	movq	%rax, %rcx	 # tmp198,
	call	_ZN3cva11instruments14EuropeanOptionD1Ev	 #
 # E:\Projects\Simulation_Projects\cva_cpp\tests\test_cva.cpp:70: }
	.loc 16 70 1 discriminator 2
	leaq	80(%rbp), %rax	 #, tmp199
	movq	%rax, %rcx	 # tmp199,
	call	_ZN3cva4math6MatrixD1Ev	 #
 # E:\Projects\Simulation_Projects\cva_cpp\tests\test_cva.cpp:70: }
	.loc 16 70 1 discriminator 3
	leaq	128(%rbp), %rax	 #, tmp200
	movq	%rax, %rcx	 # tmp200,
	call	_ZNSt6vectorIdSaIdEED1Ev	 #
 # E:\Projects\Simulation_Projects\cva_cpp\tests\test_cva.cpp:70: }
	.loc 16 70 1
	jmp	.L85	 #
.L84:
	movq	%rax, %rbx	 #, tmp203
	leaq	-48(%rbp), %rax	 #, tmp201
	movq	%rax, %rcx	 # tmp201,
	call	_ZN3cva15ExposureProfileD1Ev	 #
	jmp	.L80	 #
.L83:
	movq	%rax, %rbx	 #, tmp202
.L80:
	leaq	32(%rbp), %rax	 #, tmp206
	movq	%rax, %rcx	 # tmp206,
	call	_ZN3cva11instruments14EuropeanOptionD1Ev	 #
	leaq	80(%rbp), %rax	 #, tmp209
	movq	%rax, %rcx	 # tmp209,
	call	_ZN3cva4math6MatrixD1Ev	 #
	jmp	.L81	 #
.L82:
	movq	%rax, %rbx	 #, tmp210
.L81:
	leaq	128(%rbp), %rax	 #, tmp212
	movq	%rax, %rcx	 # tmp212,
	call	_ZNSt6vectorIdSaIdEED1Ev	 #
	movq	%rbx, %rax	 # tmp210, D.105111
	movq	%rax, %rcx	 # D.105111,
.LEHB6:
	call	_Unwind_Resume	 #
	nop	
.LEHE6:
.L85:
	addq	$360, %rsp	 #,
	popq	%rbx	 #
	.cfi_restore 3
	popq	%rsi	 #
	.cfi_restore 4
	popq	%rdi	 #
	.cfi_restore 5
	popq	%rbp	 #
	.cfi_restore 6
	.cfi_def_cfa 7, -328
	ret	
	.cfi_endproc
.LFE4907:
	.seh_handler	__gxx_personality_seh0, @unwind, @except
	.seh_handlerdata
.LLSDA4907:
	.byte	0xff
	.byte	0xff
	.byte	0x1
	.uleb128 .LLSDACSE4907-.LLSDACSB4907
.LLSDACSB4907:
	.uleb128 .LEHB2-.LFB4907
	.uleb128 .LEHE2-.LEHB2
	.uleb128 0
	.uleb128 0
	.uleb128 .LEHB3-.LFB4907
	.uleb128 .LEHE3-.LEHB3
	.uleb128 .L82-.LFB4907
	.uleb128 0
	.uleb128 .LEHB4-.LFB4907
	.uleb128 .LEHE4-.LEHB4
	.uleb128 .L83-.LFB4907
	.uleb128 0
	.uleb128 .LEHB5-.LFB4907
	.uleb128 .LEHE5-.LEHB5
	.uleb128 .L84-.LFB4907
	.uleb128 0
	.uleb128 .LEHB6-.LFB4907
	.uleb128 .LEHE6-.LEHB6
	.uleb128 0
	.uleb128 0
.LLSDACSE4907:
	.text
	.seh_endproc
	.globl	main
	.def	main;	.scl	2;	.type	32;	.endef
	.seh_proc	main
main:
.LFB4962:
	.loc 16 72 12 is_stmt 1
	.cfi_startproc
	pushq	%rbp	 #
	.seh_pushreg	%rbp
	.cfi_def_cfa_offset 16
	.cfi_offset 6, -16
	movq	%rsp, %rbp	 #,
	.seh_setframe	%rbp, 0
	.cfi_def_cfa_register 6
	subq	$32, %rsp	 #,
	.seh_stackalloc	32
	.seh_endprologue
 # E:\Projects\Simulation_Projects\cva_cpp\tests\test_cva.cpp:72: int main() {
	.loc 16 72 12
	call	__main	 #
 # E:\Projects\Simulation_Projects\cva_cpp\tests\test_cva.cpp:73:     test_cva_calc();
	.loc 16 73 18
	call	_Z13test_cva_calcv	 #
 # E:\Projects\Simulation_Projects\cva_cpp\tests\test_cva.cpp:74:     return 0;
	.loc 16 74 12
	movl	$0, %eax	 #, _3
 # E:\Projects\Simulation_Projects\cva_cpp\tests\test_cva.cpp:75: }
	.loc 16 75 1
	addq	$32, %rsp	 #,
	popq	%rbp	 #
	.cfi_restore 6
	.cfi_def_cfa 7, 8
	ret	
	.cfi_endproc
.LFE4962:
	.seh_endproc
	.section	.text$_ZNSt6vectorIdSaIdEEC1EyRKdRKS0_,"x"
	.linkonce discard
	.align 2
	.globl	_ZNSt6vectorIdSaIdEEC1EyRKdRKS0_
	.def	_ZNSt6vectorIdSaIdEEC1EyRKdRKS0_;	.scl	2;	.type	32;	.endef
	.seh_proc	_ZNSt6vectorIdSaIdEEC1EyRKdRKS0_
_ZNSt6vectorIdSaIdEEC1EyRKdRKS0_:
.LFB5266:
	.loc 9 599 7
	.cfi_startproc
	pushq	%rbp	 #
	.seh_pushreg	%rbp
	.cfi_def_cfa_offset 16
	.cfi_offset 6, -16
	pushq	%rbx	 #
	.seh_pushreg	%rbx
	.cfi_def_cfa_offset 24
	.cfi_offset 3, -24
	subq	$40, %rsp	 #,
	.seh_stackalloc	40
	.cfi_def_cfa_offset 64
	leaq	32(%rsp), %rbp	 #,
	.seh_setframe	%rbp, 32
	.cfi_def_cfa 6, 32
	.seh_endprologue
	movq	%rcx, 32(%rbp)	 # this, this
	movq	%rdx, 40(%rbp)	 # __n, __n
	movq	%r8, 48(%rbp)	 # __value, __value
	movq	%r9, 56(%rbp)	 # __a, __a
.LBB177:
 # D:/msys64/ucrt64/include/c++/15.2.0/bits/stl_vector.h:601:       : _Base(_S_check_init_len(__n, __a), __a)
	.loc 9 601 47
	movq	32(%rbp), %rbx	 # this, _1
	movq	56(%rbp), %rdx	 # __a, tmp102
	movq	40(%rbp), %rax	 # __n, tmp103
	movq	%rax, %rcx	 # tmp103,
.LEHB7:
	call	_ZNSt6vectorIdSaIdEE17_S_check_init_lenEyRKS0_	 #
 # D:/msys64/ucrt64/include/c++/15.2.0/bits/stl_vector.h:601:       : _Base(_S_check_init_len(__n, __a), __a)
	.loc 9 601 47 is_stmt 0 discriminator 1
	movq	56(%rbp), %rdx	 # __a, tmp104
	movq	%rdx, %r8	 # tmp104,
	movq	%rax, %rdx	 # _2,
	movq	%rbx, %rcx	 # _1,
	call	_ZNSt12_Vector_baseIdSaIdEEC2EyRKS0_	 #
.LEHE7:
 # D:/msys64/ucrt64/include/c++/15.2.0/bits/stl_vector.h:602:       { _M_fill_initialize(__n, __value); }
	.loc 9 602 27 is_stmt 1
	movq	48(%rbp), %rcx	 # __value, tmp105
	movq	40(%rbp), %rdx	 # __n, tmp106
	movq	32(%rbp), %rax	 # this, tmp107
	movq	%rcx, %r8	 # tmp105,
	movq	%rax, %rcx	 # tmp107,
.LEHB8:
	call	_ZNSt6vectorIdSaIdEE18_M_fill_initializeEyRKd	 #
.LEHE8:
.LBE177:
 # D:/msys64/ucrt64/include/c++/15.2.0/bits/stl_vector.h:602:       { _M_fill_initialize(__n, __value); }
	.loc 9 602 43
	jmp	.L91	 #
.L90:
.LBB178:
 # D:/msys64/ucrt64/include/c++/15.2.0/bits/stl_vector.h:602:       { _M_fill_initialize(__n, __value); }
	.loc 9 602 43 is_stmt 0 discriminator 2
	movq	%rax, %rbx	 #, tmp108
	movq	32(%rbp), %rax	 # this, _3
	movq	%rax, %rcx	 # _3,
	call	_ZNSt12_Vector_baseIdSaIdEED2Ev	 #
	movq	%rbx, %rax	 # tmp108, D.105126
	movq	%rax, %rcx	 # D.105126,
.LEHB9:
	call	_Unwind_Resume	 #
	nop	
.LEHE9:
.L91:
.LBE178:
 # D:/msys64/ucrt64/include/c++/15.2.0/bits/stl_vector.h:602:       { _M_fill_initialize(__n, __value); }
	.loc 9 602 43
	addq	$40, %rsp	 #,
	popq	%rbx	 #
	.cfi_restore 3
	popq	%rbp	 #
	.cfi_restore 6
	.cfi_def_cfa 7, -24
	ret	
	.cfi_endproc
.LFE5266:
	.seh_handler	__gxx_personality_seh0, @unwind, @except
	.seh_handlerdata
.LLSDA5266:
	.byte	0xff
	.byte	0xff
	.byte	0x1
	.uleb128 .LLSDACSE5266-.LLSDACSB5266
.LLSDACSB5266:
	.uleb128 .LEHB7-.LFB5266
	.uleb128 .LEHE7-.LEHB7
	.uleb128 0
	.uleb128 0
	.uleb128 .LEHB8-.LFB5266
	.uleb128 .LEHE8-.LEHB8
	.uleb128 .L90-.LFB5266
	.uleb128 0
	.uleb128 .LEHB9-.LFB5266
	.uleb128 .LEHE9-.LEHB9
	.uleb128 0
	.uleb128 0
.LLSDACSE5266:
	.section	.text$_ZNSt6vectorIdSaIdEEC1EyRKdRKS0_,"x"
	.linkonce discard
	.seh_endproc
	.section	.text$_ZNSt6vectorIdSaIdEED1Ev,"x"
	.linkonce discard
	.align 2
	.globl	_ZNSt6vectorIdSaIdEED1Ev
	.def	_ZNSt6vectorIdSaIdEED1Ev;	.scl	2;	.type	32;	.endef
	.seh_proc	_ZNSt6vectorIdSaIdEED1Ev
_ZNSt6vectorIdSaIdEED1Ev:
.LFB5269:
	.loc 9 800 7 is_stmt 1
	.cfi_startproc
	pushq	%rbp	 #
	.seh_pushreg	%rbp
	.cfi_def_cfa_offset 16
	.cfi_offset 6, -16
	movq	%rsp, %rbp	 #,
	.seh_setframe	%rbp, 0
	.cfi_def_cfa_register 6
	subq	$64, %rsp	 #,
	.seh_stackalloc	64
	.seh_endprologue
	movq	%rcx, 16(%rbp)	 # this, this
.LBB179:
 # D:/msys64/ucrt64/include/c++/15.2.0/bits/stl_vector.h:803: 		      _M_get_Tp_allocator());
	.loc 9 803 28
	movq	16(%rbp), %rax	 # this, _1
	movq	%rax, %rcx	 # _1,
	call	_ZNSt12_Vector_baseIdSaIdEE19_M_get_Tp_allocatorEv	 #
 # D:/msys64/ucrt64/include/c++/15.2.0/bits/stl_vector.h:802: 	std::_Destroy(this->_M_impl._M_start, this->_M_impl._M_finish,
	.loc 9 802 54
	movq	16(%rbp), %rdx	 # this, tmp103
	movq	8(%rdx), %rdx	 # this_6(D)->D.68084._M_impl.D.67390._M_finish, _3
 # D:/msys64/ucrt64/include/c++/15.2.0/bits/stl_vector.h:802: 	std::_Destroy(this->_M_impl._M_start, this->_M_impl._M_finish,
	.loc 9 802 30
	movq	16(%rbp), %rcx	 # this, tmp104
	movq	(%rcx), %rcx	 # this_6(D)->D.68084._M_impl.D.67390._M_start, _4
	movq	%rcx, -8(%rbp)	 # _4, __first
	movq	%rdx, -16(%rbp)	 # _3, __last
	movq	%rax, -24(%rbp)	 # _2, D.105099
.LBB180:
.LBB181:
 # D:/msys64/ucrt64/include/c++/15.2.0/bits/alloc_traits.h:1045:       std::_Destroy(__first, __last);
	.loc 14 1045 20
	movq	-16(%rbp), %rdx	 # __last, tmp105
	movq	-8(%rbp), %rax	 # __first, tmp106
	movq	%rax, %rcx	 # tmp106,
	call	_ZSt8_DestroyIPdEvT_S1_	 #
 # D:/msys64/ucrt64/include/c++/15.2.0/bits/alloc_traits.h:1046:     }
	.loc 14 1046 5
	nop	
.LBE181:
.LBE180:
 # D:/msys64/ucrt64/include/c++/15.2.0/bits/stl_vector.h:805:       }
	.loc 9 805 7
	movq	16(%rbp), %rax	 # this, _5
	movq	%rax, %rcx	 # _5,
	call	_ZNSt12_Vector_baseIdSaIdEED2Ev	 #
.LBE179:
	nop	
	addq	$64, %rsp	 #,
	popq	%rbp	 #
	.cfi_restore 6
	.cfi_def_cfa 7, 8
	ret	
	.cfi_endproc
.LFE5269:
	.seh_handler	__gxx_personality_seh0, @unwind, @except
	.seh_handlerdata
.LLSDA5269:
	.byte	0xff
	.byte	0xff
	.byte	0x1
	.uleb128 .LLSDACSE5269-.LLSDACSB5269
.LLSDACSB5269:
.LLSDACSE5269:
	.section	.text$_ZNSt6vectorIdSaIdEED1Ev,"x"
	.linkonce discard
	.seh_endproc
	.section	.text$_ZSt3maxIdERKT_S2_S2_,"x"
	.linkonce discard
	.globl	_ZSt3maxIdERKT_S2_S2_
	.def	_ZSt3maxIdERKT_S2_S2_;	.scl	2;	.type	32;	.endef
	.seh_proc	_ZSt3maxIdERKT_S2_S2_
_ZSt3maxIdERKT_S2_S2_:
.LFB5341:
	.loc 12 258 5
	.cfi_startproc
	pushq	%rbp	 #
	.seh_pushreg	%rbp
	.cfi_def_cfa_offset 16
	.cfi_offset 6, -16
	movq	%rsp, %rbp	 #,
	.seh_setframe	%rbp, 0
	.cfi_def_cfa_register 6
	.seh_endprologue
	movq	%rcx, 16(%rbp)	 # __a, __a
	movq	%rdx, 24(%rbp)	 # __b, __b
 # D:/msys64/ucrt64/include/c++/15.2.0/bits/stl_algobase.h:263:       if (__a < __b)
	.loc 12 263 15
	movq	16(%rbp), %rax	 # __a, tmp102
	movsd	(%rax), %xmm1	 # *__a_5(D), _1
	movq	24(%rbp), %rax	 # __b, tmp103
	movsd	(%rax), %xmm0	 # *__b_6(D), _2
 # D:/msys64/ucrt64/include/c++/15.2.0/bits/stl_algobase.h:263:       if (__a < __b)
	.loc 12 263 7
	comisd	%xmm1, %xmm0	 # _1, _2
	jbe	.L98	 #,
 # D:/msys64/ucrt64/include/c++/15.2.0/bits/stl_algobase.h:264: 	return __b;
	.loc 12 264 9
	movq	24(%rbp), %rax	 # __b, _3
	jmp	.L96	 #
.L98:
 # D:/msys64/ucrt64/include/c++/15.2.0/bits/stl_algobase.h:265:       return __a;
	.loc 12 265 14
	movq	16(%rbp), %rax	 # __a, _3
.L96:
 # D:/msys64/ucrt64/include/c++/15.2.0/bits/stl_algobase.h:266:     }
	.loc 12 266 5
	popq	%rbp	 #
	.cfi_restore 6
	.cfi_def_cfa 7, 8
	ret	
	.cfi_endproc
.LFE5341:
	.seh_endproc
	.section	.text$_ZNSt12_Vector_baseIdSaIdEED2Ev,"x"
	.linkonce discard
	.align 2
	.globl	_ZNSt12_Vector_baseIdSaIdEED2Ev
	.def	_ZNSt12_Vector_baseIdSaIdEED2Ev;	.scl	2;	.type	32;	.endef
	.seh_proc	_ZNSt12_Vector_baseIdSaIdEED2Ev
_ZNSt12_Vector_baseIdSaIdEED2Ev:
.LFB5346:
	.loc 9 373 7
	.cfi_startproc
	pushq	%rbp	 #
	.seh_pushreg	%rbp
	.cfi_def_cfa_offset 16
	.cfi_offset 6, -16
	movq	%rsp, %rbp	 #,
	.seh_setframe	%rbp, 0
	.cfi_def_cfa_register 6
	subq	$32, %rsp	 #,
	.seh_stackalloc	32
	.seh_endprologue
	movq	%rcx, 16(%rbp)	 # this, this
.LBB182:
 # D:/msys64/ucrt64/include/c++/15.2.0/bits/stl_vector.h:376: 		      _M_impl._M_end_of_storage - _M_impl._M_start);
	.loc 9 376 17
	movq	16(%rbp), %rax	 # this, tmp105
	movq	16(%rax), %rdx	 # this_9(D)->_M_impl.D.67390._M_end_of_storage, _1
 # D:/msys64/ucrt64/include/c++/15.2.0/bits/stl_vector.h:376: 		      _M_impl._M_end_of_storage - _M_impl._M_start);
	.loc 9 376 45
	movq	16(%rbp), %rax	 # this, tmp106
	movq	(%rax), %rax	 # this_9(D)->_M_impl.D.67390._M_start, _2
 # D:/msys64/ucrt64/include/c++/15.2.0/bits/stl_vector.h:376: 		      _M_impl._M_end_of_storage - _M_impl._M_start);
	.loc 9 376 35
	subq	%rax, %rdx	 # _2, _3
	movq	%rdx, %rax	 # _3, _3
	sarq	$3, %rax	 #, _3
 # D:/msys64/ucrt64/include/c++/15.2.0/bits/stl_vector.h:375: 	_M_deallocate(_M_impl._M_start,
	.loc 9 375 15
	movq	%rax, %rcx	 # _4, _5
	movq	16(%rbp), %rax	 # this, tmp108
	movq	(%rax), %rdx	 # this_9(D)->_M_impl.D.67390._M_start, _6
	movq	16(%rbp), %rax	 # this, tmp109
	movq	%rcx, %r8	 # _5,
	movq	%rax, %rcx	 # tmp109,
	call	_ZNSt12_Vector_baseIdSaIdEE13_M_deallocateEPdy	 #
 # D:/msys64/ucrt64/include/c++/15.2.0/bits/stl_vector.h:377:       }
	.loc 9 377 7
	movq	16(%rbp), %rax	 # this, _7
	movq	%rax, %rcx	 # _7,
	call	_ZNSt12_Vector_baseIdSaIdEE12_Vector_implD1Ev	 #
.LBE182:
	nop	
	addq	$32, %rsp	 #,
	popq	%rbp	 #
	.cfi_restore 6
	.cfi_def_cfa 7, 8
	ret	
	.cfi_endproc
.LFE5346:
	.seh_handler	__gxx_personality_seh0, @unwind, @except
	.seh_handlerdata
.LLSDA5346:
	.byte	0xff
	.byte	0xff
	.byte	0x1
	.uleb128 .LLSDACSE5346-.LLSDACSB5346
.LLSDACSB5346:
.LLSDACSE5346:
	.section	.text$_ZNSt12_Vector_baseIdSaIdEED2Ev,"x"
	.linkonce discard
	.seh_endproc
	.section	.text$_ZSt22__uninitialized_copy_aIPKdS1_PddET1_T_T0_S3_RSaIT2_E,"x"
	.linkonce discard
	.globl	_ZSt22__uninitialized_copy_aIPKdS1_PddET1_T_T0_S3_RSaIT2_E
	.def	_ZSt22__uninitialized_copy_aIPKdS1_PddET1_T_T0_S3_RSaIT2_E;	.scl	2;	.type	32;	.endef
	.seh_proc	_ZSt22__uninitialized_copy_aIPKdS1_PddET1_T_T0_S3_RSaIT2_E
_ZSt22__uninitialized_copy_aIPKdS1_PddET1_T_T0_S3_RSaIT2_E:
.LFB5349:
	.file 17 "D:/msys64/ucrt64/include/c++/15.2.0/bits/stl_uninitialized.h"
	.loc 17 613 5
	.cfi_startproc
	pushq	%rbp	 #
	.seh_pushreg	%rbp
	.cfi_def_cfa_offset 16
	.cfi_offset 6, -16
	movq	%rsp, %rbp	 #,
	.seh_setframe	%rbp, 0
	.cfi_def_cfa_register 6
	subq	$32, %rsp	 #,
	.seh_stackalloc	32
	.seh_endprologue
	movq	%rcx, 16(%rbp)	 # __first, __first
	movq	%rdx, 24(%rbp)	 # __last, __last
	movq	%r8, 32(%rbp)	 # __result, __result
	movq	%r9, 40(%rbp)	 # D.99276, D.99276
 # D:/msys64/ucrt64/include/c++/15.2.0/bits/stl_uninitialized.h:617:       if (std::is_constant_evaluated())
	.loc 17 617 37
	call	_ZSt21is_constant_evaluatedv	 #
 # D:/msys64/ucrt64/include/c++/15.2.0/bits/stl_uninitialized.h:617:       if (std::is_constant_evaluated())
	.loc 17 617 7 discriminator 1
	testb	%al, %al	 # retval.10_9
	je	.L101	 #,
.LBB183:
.LBB184:
 # D:/msys64/ucrt64/include/c++/15.2.0/bits/move.h:139:     { return static_cast<typename std::remove_reference<_Tp>::type&&>(__t); }
	.loc 11 139 74
	leaq	16(%rbp), %rax	 #, D.105056
.LBE184:
.LBE183:
 # D:/msys64/ucrt64/include/c++/15.2.0/bits/stl_uninitialized.h:618: 	return std::__do_uninit_copy(std::move(__first), __last, __result);
	.loc 17 618 30 discriminator 1
	movq	(%rax), %rax	 # *_1, _2
	movq	32(%rbp), %rcx	 # __result, tmp105
	movq	24(%rbp), %rdx	 # __last, tmp106
	movq	%rcx, %r8	 # tmp105,
	movq	%rax, %rcx	 # _2,
	call	_ZSt16__do_uninit_copyIPKdS1_PdET1_T_T0_S3_	 #
 # D:/msys64/ucrt64/include/c++/15.2.0/bits/stl_uninitialized.h:618: 	return std::__do_uninit_copy(std::move(__first), __last, __result);
	.loc 17 618 67
	jmp	.L103	 #
.L101:
.LBB185:
.LBB186:
 # D:/msys64/ucrt64/include/c++/15.2.0/bits/move.h:139:     { return static_cast<typename std::remove_reference<_Tp>::type&&>(__t); }
	.loc 11 139 74
	leaq	16(%rbp), %rax	 #, D.105060
.LBE186:
.LBE185:
 # D:/msys64/ucrt64/include/c++/15.2.0/bits/stl_uninitialized.h:635: 	return std::uninitialized_copy(std::move(__first), __last, __result);
	.loc 17 635 32 discriminator 1
	movq	(%rax), %rax	 # *_3, _4
	movq	32(%rbp), %rcx	 # __result, tmp107
	movq	24(%rbp), %rdx	 # __last, tmp108
	movq	%rcx, %r8	 # tmp107,
	movq	%rax, %rcx	 # _4,
	call	_ZSt18uninitialized_copyIPKdPdET0_T_S4_S3_	 #
 # D:/msys64/ucrt64/include/c++/15.2.0/bits/stl_uninitialized.h:635: 	return std::uninitialized_copy(std::move(__first), __last, __result);
	.loc 17 635 69
	nop	
.L103:
 # D:/msys64/ucrt64/include/c++/15.2.0/bits/stl_uninitialized.h:639:     }
	.loc 17 639 5
	addq	$32, %rsp	 #,
	popq	%rbp	 #
	.cfi_restore 6
	.cfi_def_cfa 7, 8
	ret	
	.cfi_endproc
.LFE5349:
	.seh_endproc
	.section	.text$_ZNSt15__new_allocatorIdE8allocateEyPKv,"x"
	.linkonce discard
	.align 2
	.globl	_ZNSt15__new_allocatorIdE8allocateEyPKv
	.def	_ZNSt15__new_allocatorIdE8allocateEyPKv;	.scl	2;	.type	32;	.endef
	.seh_proc	_ZNSt15__new_allocatorIdE8allocateEyPKv
_ZNSt15__new_allocatorIdE8allocateEyPKv:
.LFB5350:
	.loc 5 126 7
	.cfi_startproc
	pushq	%rbp	 #
	.seh_pushreg	%rbp
	.cfi_def_cfa_offset 16
	.cfi_offset 6, -16
	movq	%rsp, %rbp	 #,
	.seh_setframe	%rbp, 0
	.cfi_def_cfa_register 6
	subq	$48, %rsp	 #,
	.seh_stackalloc	48
	.seh_endprologue
	movq	%rcx, 16(%rbp)	 # this, this
	movq	%rdx, 24(%rbp)	 # __n, __n
	movq	%r8, 32(%rbp)	 # D.99293, D.99293
	movq	16(%rbp), %rax	 # this, tmp106
	movq	%rax, -8(%rbp)	 # tmp106, this
.LBB187:
.LBB188:
 # D:/msys64/ucrt64/include/c++/15.2.0/bits/new_allocator.h:233: 	return std::size_t(__PTRDIFF_MAX__) / sizeof(_Tp);
	.loc 5 233 55
	movabsq	$1152921504606846975, %rax	 #, D.104983
.LBE188:
.LBE187:
 # D:/msys64/ucrt64/include/c++/15.2.0/bits/new_allocator.h:134: 	if (__builtin_expect(__n > this->_M_max_size(), false))
	.loc 5 134 27 discriminator 1
	cmpq	24(%rbp), %rax	 # __n, D.104983
	setb	%al	 #, _2
 # D:/msys64/ucrt64/include/c++/15.2.0/bits/new_allocator.h:134: 	if (__builtin_expect(__n > this->_M_max_size(), false))
	.loc 5 134 22 discriminator 1
	movzbl	%al, %eax	 # _2, _3
 # D:/msys64/ucrt64/include/c++/15.2.0/bits/new_allocator.h:134: 	if (__builtin_expect(__n > this->_M_max_size(), false))
	.loc 5 134 22 is_stmt 0 discriminator 2
	testl	%eax, %eax	 # _4
	setne	%al	 #, retval.9_9
 # D:/msys64/ucrt64/include/c++/15.2.0/bits/new_allocator.h:134: 	if (__builtin_expect(__n > this->_M_max_size(), false))
	.loc 5 134 2 is_stmt 1 discriminator 2
	testb	%al, %al	 # retval.9_9
	je	.L107	 #,
 # D:/msys64/ucrt64/include/c++/15.2.0/bits/new_allocator.h:138: 	    if (__n > (std::size_t(-1) / sizeof(_Tp)))
	.loc 5 138 6
	movabsq	$2305843009213693951, %rax	 #, tmp107
	cmpq	24(%rbp), %rax	 # __n, tmp107
	jnb	.L108	 #,
 # D:/msys64/ucrt64/include/c++/15.2.0/bits/new_allocator.h:139: 	      std::__throw_bad_array_new_length();
	.loc 5 139 41
	call	_ZSt28__throw_bad_array_new_lengthv	 #
.L108:
 # D:/msys64/ucrt64/include/c++/15.2.0/bits/new_allocator.h:140: 	    std::__throw_bad_alloc();
	.loc 5 140 28
	call	_ZSt17__throw_bad_allocv	 #
.L107:
 # D:/msys64/ucrt64/include/c++/15.2.0/bits/new_allocator.h:151: 	return static_cast<_Tp*>(_GLIBCXX_OPERATOR_NEW(__n * sizeof(_Tp)));
	.loc 5 151 67
	movq	24(%rbp), %rax	 # __n, tmp108
	salq	$3, %rax	 #, _6
	movq	%rax, %rcx	 # _6,
	call	_Znwy	 #
 # D:/msys64/ucrt64/include/c++/15.2.0/bits/new_allocator.h:151: 	return static_cast<_Tp*>(_GLIBCXX_OPERATOR_NEW(__n * sizeof(_Tp)));
	.loc 5 151 68
	nop	
 # D:/msys64/ucrt64/include/c++/15.2.0/bits/new_allocator.h:152:       }
	.loc 5 152 7
	addq	$48, %rsp	 #,
	popq	%rbp	 #
	.cfi_restore 6
	.cfi_def_cfa 7, 8
	ret	
	.cfi_endproc
.LFE5350:
	.seh_endproc
	.section	.text$_ZNSt12_Vector_baseIdSaIdEEC2EyRKS0_,"x"
	.linkonce discard
	.align 2
	.globl	_ZNSt12_Vector_baseIdSaIdEEC2EyRKS0_
	.def	_ZNSt12_Vector_baseIdSaIdEEC2EyRKS0_;	.scl	2;	.type	32;	.endef
	.seh_proc	_ZNSt12_Vector_baseIdSaIdEEC2EyRKS0_
_ZNSt12_Vector_baseIdSaIdEEC2EyRKS0_:
.LFB5472:
	.loc 9 339 7
	.cfi_startproc
	pushq	%rbp	 #
	.seh_pushreg	%rbp
	.cfi_def_cfa_offset 16
	.cfi_offset 6, -16
	pushq	%rbx	 #
	.seh_pushreg	%rbx
	.cfi_def_cfa_offset 24
	.cfi_offset 3, -24
	subq	$40, %rsp	 #,
	.seh_stackalloc	40
	.cfi_def_cfa_offset 64
	leaq	32(%rsp), %rbp	 #,
	.seh_setframe	%rbp, 32
	.cfi_def_cfa 6, 32
	.seh_endprologue
	movq	%rcx, 32(%rbp)	 # this, this
	movq	%rdx, 40(%rbp)	 # __n, __n
	movq	%r8, 48(%rbp)	 # __a, __a
.LBB189:
 # D:/msys64/ucrt64/include/c++/15.2.0/bits/stl_vector.h:340:       : _M_impl(__a)
	.loc 9 340 9
	movq	32(%rbp), %rax	 # this, _1
	movq	48(%rbp), %rdx	 # __a, tmp101
	movq	%rax, %rcx	 # _1,
	call	_ZNSt12_Vector_baseIdSaIdEE12_Vector_implC1ERKS0_	 #
 # D:/msys64/ucrt64/include/c++/15.2.0/bits/stl_vector.h:341:       { _M_create_storage(__n); }
	.loc 9 341 26
	movq	40(%rbp), %rdx	 # __n, tmp102
	movq	32(%rbp), %rax	 # this, tmp103
	movq	%rax, %rcx	 # tmp103,
.LEHB10:
	call	_ZNSt12_Vector_baseIdSaIdEE17_M_create_storageEy	 #
.LEHE10:
.LBE189:
 # D:/msys64/ucrt64/include/c++/15.2.0/bits/stl_vector.h:341:       { _M_create_storage(__n); }
	.loc 9 341 33
	jmp	.L113	 #
.L112:
.LBB190:
 # D:/msys64/ucrt64/include/c++/15.2.0/bits/stl_vector.h:341:       { _M_create_storage(__n); }
	.loc 9 341 33 is_stmt 0 discriminator 2
	movq	%rax, %rbx	 #, tmp104
	movq	32(%rbp), %rax	 # this, _2
	movq	%rax, %rcx	 # _2,
	call	_ZNSt12_Vector_baseIdSaIdEE12_Vector_implD1Ev	 #
	movq	%rbx, %rax	 # tmp104, D.105127
	movq	%rax, %rcx	 # D.105127,
.LEHB11:
	call	_Unwind_Resume	 #
	nop	
.LEHE11:
.L113:
.LBE190:
 # D:/msys64/ucrt64/include/c++/15.2.0/bits/stl_vector.h:341:       { _M_create_storage(__n); }
	.loc 9 341 33
	addq	$40, %rsp	 #,
	popq	%rbx	 #
	.cfi_restore 3
	popq	%rbp	 #
	.cfi_restore 6
	.cfi_def_cfa 7, -24
	ret	
	.cfi_endproc
.LFE5472:
	.seh_handler	__gxx_personality_seh0, @unwind, @except
	.seh_handlerdata
.LLSDA5472:
	.byte	0xff
	.byte	0xff
	.byte	0x1
	.uleb128 .LLSDACSE5472-.LLSDACSB5472
.LLSDACSB5472:
	.uleb128 .LEHB10-.LFB5472
	.uleb128 .LEHE10-.LEHB10
	.uleb128 .L112-.LFB5472
	.uleb128 0
	.uleb128 .LEHB11-.LFB5472
	.uleb128 .LEHE11-.LEHB11
	.uleb128 0
	.uleb128 0
.LLSDACSE5472:
	.section	.text$_ZNSt12_Vector_baseIdSaIdEEC2EyRKS0_,"x"
	.linkonce discard
	.seh_endproc
	.section	.text$_ZNSt6vectorIdSaIdEE18_M_fill_initializeEyRKd,"x"
	.linkonce discard
	.align 2
	.globl	_ZNSt6vectorIdSaIdEE18_M_fill_initializeEyRKd
	.def	_ZNSt6vectorIdSaIdEE18_M_fill_initializeEyRKd;	.scl	2;	.type	32;	.endef
	.seh_proc	_ZNSt6vectorIdSaIdEE18_M_fill_initializeEyRKd
_ZNSt6vectorIdSaIdEE18_M_fill_initializeEyRKd:
.LFB5474:
	.loc 9 1997 7 is_stmt 1
	.cfi_startproc
	pushq	%rbp	 #
	.seh_pushreg	%rbp
	.cfi_def_cfa_offset 16
	.cfi_offset 6, -16
	movq	%rsp, %rbp	 #,
	.seh_setframe	%rbp, 0
	.cfi_def_cfa_register 6
	subq	$32, %rsp	 #,
	.seh_stackalloc	32
	.seh_endprologue
	movq	%rcx, 16(%rbp)	 # this, this
	movq	%rdx, 24(%rbp)	 # __n, __n
	movq	%r8, 32(%rbp)	 # __value, __value
 # D:/msys64/ucrt64/include/c++/15.2.0/bits/stl_vector.h:2001: 					_M_get_Tp_allocator());
	.loc 9 2001 25
	movq	16(%rbp), %rax	 # this, _1
	movq	%rax, %rcx	 # _1,
	call	_ZNSt12_Vector_baseIdSaIdEE19_M_get_Tp_allocatorEv	 #
	movq	%rax, %rcx	 #, _2
 # D:/msys64/ucrt64/include/c++/15.2.0/bits/stl_vector.h:2000: 	  std::__uninitialized_fill_n_a(this->_M_impl._M_start, __n, __value,
	.loc 9 2000 48
	movq	16(%rbp), %rax	 # this, tmp102
	movq	(%rax), %rax	 # this_5(D)->D.68084._M_impl.D.67390._M_start, _3
 # D:/msys64/ucrt64/include/c++/15.2.0/bits/stl_vector.h:2000: 	  std::__uninitialized_fill_n_a(this->_M_impl._M_start, __n, __value,
	.loc 9 2000 33
	movq	32(%rbp), %r8	 # __value, tmp103
	movq	24(%rbp), %rdx	 # __n, tmp104
	movq	%rcx, %r9	 # _2,
	movq	%rax, %rcx	 # _3,
	call	_ZSt24__uninitialized_fill_n_aIPdyddET_S1_T0_RKT1_RSaIT2_E	 #
 # D:/msys64/ucrt64/include/c++/15.2.0/bits/stl_vector.h:1999: 	this->_M_impl._M_finish =
	.loc 9 1999 26
	movq	16(%rbp), %rdx	 # this, tmp105
	movq	%rax, 8(%rdx)	 # _4, this_5(D)->D.68084._M_impl.D.67390._M_finish
 # D:/msys64/ucrt64/include/c++/15.2.0/bits/stl_vector.h:2002:       }
	.loc 9 2002 7
	nop	
	addq	$32, %rsp	 #,
	popq	%rbp	 #
	.cfi_restore 6
	.cfi_def_cfa 7, 8
	ret	
	.cfi_endproc
.LFE5474:
	.seh_endproc
	.section	.text$_ZNSt12_Vector_baseIdSaIdEE13_M_deallocateEPdy,"x"
	.linkonce discard
	.align 2
	.globl	_ZNSt12_Vector_baseIdSaIdEE13_M_deallocateEPdy
	.def	_ZNSt12_Vector_baseIdSaIdEE13_M_deallocateEPdy;	.scl	2;	.type	32;	.endef
	.seh_proc	_ZNSt12_Vector_baseIdSaIdEE13_M_deallocateEPdy
_ZNSt12_Vector_baseIdSaIdEE13_M_deallocateEPdy:
.LFB5541:
	.loc 9 392 7
	.cfi_startproc
	pushq	%rbp	 #
	.seh_pushreg	%rbp
	.cfi_def_cfa_offset 16
	.cfi_offset 6, -16
	movq	%rsp, %rbp	 #,
	.seh_setframe	%rbp, 0
	.cfi_def_cfa_register 6
	subq	$80, %rsp	 #,
	.seh_stackalloc	80
	.seh_endprologue
	movq	%rcx, 16(%rbp)	 # this, this
	movq	%rdx, 24(%rbp)	 # __p, __p
	movq	%r8, 32(%rbp)	 # __n, __n
 # D:/msys64/ucrt64/include/c++/15.2.0/bits/stl_vector.h:395: 	if (__p)
	.loc 9 395 2
	cmpq	$0, 24(%rbp)	 #, __p
	je	.L120	 #,
 # D:/msys64/ucrt64/include/c++/15.2.0/bits/stl_vector.h:396: 	  _Tr::deallocate(_M_impl, __p, __n);
	.loc 9 396 20
	movq	16(%rbp), %rax	 # this, _1
	movq	%rax, -8(%rbp)	 # _1, __a
	movq	24(%rbp), %rax	 # __p, tmp100
	movq	%rax, -16(%rbp)	 # tmp100, __p
	movq	32(%rbp), %rax	 # __n, tmp101
	movq	%rax, -24(%rbp)	 # tmp101, __n
	movq	-8(%rbp), %rax	 # __a, tmp102
	movq	%rax, -32(%rbp)	 # tmp102, this
	movq	-16(%rbp), %rax	 # __p, tmp103
	movq	%rax, -40(%rbp)	 # tmp103, __p
	movq	-24(%rbp), %rax	 # __n, tmp104
	movq	%rax, -48(%rbp)	 # tmp104, __n
.LBB191:
.LBB192:
.LBB193:
.LBB194:
.LBB195:
.LBB196:
 # D:/msys64/ucrt64/include/c++/15.2.0/x86_64-w64-mingw32/bits/c++config.h:589:     return __builtin_is_constant_evaluated();
	.loc 13 589 44
	movl	$0, %eax	 #, _13
.LBE196:
.LBE195:
 # D:/msys64/ucrt64/include/c++/15.2.0/bits/allocator.h:210: 	if (std::__is_constant_evaluated())
	.loc 6 210 2 discriminator 1
	testb	%al, %al	 # _13
	je	.L118	 #,
 # D:/msys64/ucrt64/include/c++/15.2.0/bits/allocator.h:212: 	    ::operator delete(__p);
	.loc 6 212 23
	movq	-40(%rbp), %rax	 # __p, tmp105
	movq	%rax, %rcx	 # tmp105,
	call	_ZdlPv	 #
 # D:/msys64/ucrt64/include/c++/15.2.0/bits/allocator.h:213: 	    return;
	.loc 6 213 6
	jmp	.L119	 #
.L118:
 # D:/msys64/ucrt64/include/c++/15.2.0/bits/allocator.h:215: 	__allocator_base<_Tp>::deallocate(__p, __n);
	.loc 6 215 35
	movq	-48(%rbp), %rcx	 # __n, tmp106
	movq	-40(%rbp), %rdx	 # __p, tmp107
	movq	-32(%rbp), %rax	 # this, tmp108
	movq	%rcx, %r8	 # tmp106,
	movq	%rax, %rcx	 # tmp108,
	call	_ZNSt15__new_allocatorIdE10deallocateEPdy	 #
.L119:
.LBE194:
.LBE193:
 # D:/msys64/ucrt64/include/c++/15.2.0/bits/alloc_traits.h:649:       { __a.deallocate(__p, __n); }
	.loc 14 649 35
	nop	
.L120:
.LBE192:
.LBE191:
 # D:/msys64/ucrt64/include/c++/15.2.0/bits/stl_vector.h:397:       }
	.loc 9 397 7
	nop	
	addq	$80, %rsp	 #,
	popq	%rbp	 #
	.cfi_restore 6
	.cfi_def_cfa 7, 8
	ret	
	.cfi_endproc
.LFE5541:
	.seh_endproc
	.section	.text$_ZNSt19_UninitDestroyGuardIPdvEC1ERS0_,"x"
	.linkonce discard
	.align 2
	.globl	_ZNSt19_UninitDestroyGuardIPdvEC1ERS0_
	.def	_ZNSt19_UninitDestroyGuardIPdvEC1ERS0_;	.scl	2;	.type	32;	.endef
	.seh_proc	_ZNSt19_UninitDestroyGuardIPdvEC1ERS0_
_ZNSt19_UninitDestroyGuardIPdvEC1ERS0_:
.LFB5545:
	.loc 17 113 7
	.cfi_startproc
	pushq	%rbp	 #
	.seh_pushreg	%rbp
	.cfi_def_cfa_offset 16
	.cfi_offset 6, -16
	movq	%rsp, %rbp	 #,
	.seh_setframe	%rbp, 0
	.cfi_def_cfa_register 6
	.seh_endprologue
	movq	%rcx, 16(%rbp)	 # this, this
	movq	%rdx, 24(%rbp)	 # __first, __first
.LBB197:
 # D:/msys64/ucrt64/include/c++/15.2.0/bits/stl_uninitialized.h:114:       : _M_first(__first), _M_cur(__builtin_addressof(__first))
	.loc 17 114 9
	movq	24(%rbp), %rax	 # __first, tmp99
	movq	(%rax), %rdx	 # *__first_5(D), _1
	movq	16(%rbp), %rax	 # this, tmp100
	movq	%rdx, (%rax)	 # _1, this_3(D)->_M_first
 # D:/msys64/ucrt64/include/c++/15.2.0/bits/stl_uninitialized.h:114:       : _M_first(__first), _M_cur(__builtin_addressof(__first))
	.loc 17 114 28
	movq	16(%rbp), %rax	 # this, tmp101
	movq	24(%rbp), %rdx	 # __first, tmp102
	movq	%rdx, 8(%rax)	 # tmp102, this_3(D)->_M_cur
.LBE197:
 # D:/msys64/ucrt64/include/c++/15.2.0/bits/stl_uninitialized.h:115:       { }
	.loc 17 115 9
	nop	
	popq	%rbp	 #
	.cfi_restore 6
	.cfi_def_cfa 7, 8
	ret	
	.cfi_endproc
.LFE5545:
	.seh_endproc
	.section	.text$_ZSt16__do_uninit_copyIPKdS1_PdET1_T_T0_S3_,"x"
	.linkonce discard
	.globl	_ZSt16__do_uninit_copyIPKdS1_PdET1_T_T0_S3_
	.def	_ZSt16__do_uninit_copyIPKdS1_PdET1_T_T0_S3_;	.scl	2;	.type	32;	.endef
	.seh_proc	_ZSt16__do_uninit_copyIPKdS1_PdET1_T_T0_S3_
_ZSt16__do_uninit_copyIPKdS1_PdET1_T_T0_S3_:
.LFB5542:
	.loc 17 140 5
	.cfi_startproc
	pushq	%rbp	 #
	.seh_pushreg	%rbp
	.cfi_def_cfa_offset 16
	.cfi_offset 6, -16
	pushq	%rbx	 #
	.seh_pushreg	%rbx
	.cfi_def_cfa_offset 24
	.cfi_offset 3, -24
	subq	$72, %rsp	 #,
	.seh_stackalloc	72
	.cfi_def_cfa_offset 96
	leaq	64(%rsp), %rbp	 #,
	.seh_setframe	%rbp, 64
	.cfi_def_cfa 6, 32
	.seh_endprologue
	movq	%rcx, 32(%rbp)	 # __first, __first
	movq	%rdx, 40(%rbp)	 # __last, __last
	movq	%r8, 48(%rbp)	 # __result, __result
 # D:/msys64/ucrt64/include/c++/15.2.0/bits/stl_uninitialized.h:143:       _UninitDestroyGuard<_ForwardIterator> __guard(__result);
	.loc 17 143 45
	leaq	48(%rbp), %rdx	 #, tmp104
	leaq	-32(%rbp), %rax	 #, tmp105
	movq	%rax, %rcx	 # tmp105,
	call	_ZNSt19_UninitDestroyGuardIPdvEC1ERS0_	 #
 # D:/msys64/ucrt64/include/c++/15.2.0/bits/stl_uninitialized.h:144:       for (; __first != __last; ++__first, (void)++__result)
	.loc 17 144 7
	jmp	.L123	 #
.L125:
 # D:/msys64/ucrt64/include/c++/15.2.0/bits/stl_uninitialized.h:145: 	std::_Construct(std::__addressof(*__result), *__first);
	.loc 17 145 17
	movq	48(%rbp), %rax	 # __result, __result.11_1
	movq	%rax, -8(%rbp)	 # __result.11_1, __r
.LBB198:
.LBB199:
 # D:/msys64/ucrt64/include/c++/15.2.0/bits/move.h:53:     { return __builtin_addressof(__r); }
	.loc 11 53 37
	movq	-8(%rbp), %rax	 # __r, D.105052
.LBE199:
.LBE198:
 # D:/msys64/ucrt64/include/c++/15.2.0/bits/stl_uninitialized.h:145: 	std::_Construct(std::__addressof(*__result), *__first);
	.loc 17 145 17 discriminator 1
	movq	32(%rbp), %rdx	 # __first, tmp106
	movq	%rax, %rcx	 # D.105052,
	call	_ZSt10_ConstructIdJRKdEEvPT_DpOT0_	 #
 # D:/msys64/ucrt64/include/c++/15.2.0/bits/stl_uninitialized.h:144:       for (; __first != __last; ++__first, (void)++__result)
	.loc 17 144 7 discriminator 2
	addq	$8, 32(%rbp)	 #, __first
 # D:/msys64/ucrt64/include/c++/15.2.0/bits/stl_uninitialized.h:144:       for (; __first != __last; ++__first, (void)++__result)
	.loc 17 144 44 discriminator 2
	movq	48(%rbp), %rax	 # __result, __result.12_3
	addq	$8, %rax	 #, _4
	movq	%rax, 48(%rbp)	 # _4, __result
.L123:
 # D:/msys64/ucrt64/include/c++/15.2.0/bits/stl_uninitialized.h:144:       for (; __first != __last; ++__first, (void)++__result)
	.loc 17 144 22 discriminator 1
	movq	32(%rbp), %rax	 # __first, tmp107
	cmpq	40(%rbp), %rax	 # __last, tmp107
	jne	.L125	 #,
 # D:/msys64/ucrt64/include/c++/15.2.0/bits/stl_uninitialized.h:146:       __guard.release();
	.loc 17 146 22
	leaq	-32(%rbp), %rax	 #, tmp108
	movq	%rax, %rcx	 # tmp108,
	call	_ZNSt19_UninitDestroyGuardIPdvE7releaseEv	 #
 # D:/msys64/ucrt64/include/c++/15.2.0/bits/stl_uninitialized.h:147:       return __result;
	.loc 17 147 14
	movq	48(%rbp), %rbx	 # __result, _12
 # D:/msys64/ucrt64/include/c++/15.2.0/bits/stl_uninitialized.h:148:     }
	.loc 17 148 5
	leaq	-32(%rbp), %rax	 #, tmp109
	movq	%rax, %rcx	 # tmp109,
	call	_ZNSt19_UninitDestroyGuardIPdvED1Ev	 #
 # D:/msys64/ucrt64/include/c++/15.2.0/bits/stl_uninitialized.h:147:       return __result;
	.loc 17 147 14
	movq	%rbx, %rax	 # _12, <retval>
 # D:/msys64/ucrt64/include/c++/15.2.0/bits/stl_uninitialized.h:148:     }
	.loc 17 148 5
	addq	$72, %rsp	 #,
	popq	%rbx	 #
	.cfi_restore 3
	popq	%rbp	 #
	.cfi_restore 6
	.cfi_def_cfa 7, -56
	ret	
	.cfi_endproc
.LFE5542:
	.seh_endproc
	.section	.text$_ZSt18uninitialized_copyIPKdPdET0_T_S4_S3_,"x"
	.linkonce discard
	.globl	_ZSt18uninitialized_copyIPKdPdET0_T_S4_S3_
	.def	_ZSt18uninitialized_copyIPKdPdET0_T_S4_S3_;	.scl	2;	.type	32;	.endef
	.seh_proc	_ZSt18uninitialized_copyIPKdPdET0_T_S4_S3_
_ZSt18uninitialized_copyIPKdPdET0_T_S4_S3_:
.LFB5546:
	.loc 17 231 5
	.cfi_startproc
	pushq	%rbp	 #
	.seh_pushreg	%rbp
	.cfi_def_cfa_offset 16
	.cfi_offset 6, -16
	movq	%rsp, %rbp	 #,
	.seh_setframe	%rbp, 0
	.cfi_def_cfa_register 6
	subq	$64, %rsp	 #,
	.seh_stackalloc	64
	.seh_endprologue
	movq	%rcx, 16(%rbp)	 # __first, __first
	movq	%rdx, 24(%rbp)	 # __last, __last
	movq	%r8, 32(%rbp)	 # __result, __result
.LBB200:
.LBB201:
.LBB202:
.LBB203:
 # D:/msys64/ucrt64/include/c++/15.2.0/bits/stl_uninitialized.h:269: 	  ptrdiff_t __n = __last - __first;
	.loc 17 269 27
	movq	24(%rbp), %rax	 # __last, tmp107
	subq	16(%rbp), %rax	 # __first, _1
 # D:/msys64/ucrt64/include/c++/15.2.0/bits/stl_uninitialized.h:269: 	  ptrdiff_t __n = __last - __first;
	.loc 17 269 14
	sarq	$3, %rax	 #, __n_12
	movq	%rax, -8(%rbp)	 # __n_12, __n
.LBB204:
 # D:/msys64/ucrt64/include/c++/15.2.0/bits/stl_uninitialized.h:270: 	  if (__n > 0) [[__likely__]]
	.loc 17 270 4
	cmpq	$0, -8(%rbp)	 #, __n
	jle	.L128	 #,
.LBB205:
.LBB206:
 # D:/msys64/ucrt64/include/c++/15.2.0/bits/stl_uninitialized.h:275: 			       __n * sizeof(_ValT));
	.loc 17 275 11
	movq	-8(%rbp), %rax	 # __n, __n.15_2
 # D:/msys64/ucrt64/include/c++/15.2.0/bits/stl_uninitialized.h:273: 	      __builtin_memcpy(std::__niter_base(__result),
	.loc 17 273 24
	leaq	0(,%rax,8), %rcx	 #, _3
	movq	16(%rbp), %rax	 # __first, tmp109
	movq	%rax, -24(%rbp)	 # tmp109, __it
.LBB207:
.LBB208:
 # D:/msys64/ucrt64/include/c++/15.2.0/bits/stl_iterator.h:3011:     { return __it; }
	.file 18 "D:/msys64/ucrt64/include/c++/15.2.0/bits/stl_iterator.h"
	.loc 18 3011 14
	movq	-24(%rbp), %rdx	 # __it, D.105026
	movq	32(%rbp), %rax	 # __result, tmp110
	movq	%rax, -16(%rbp)	 # tmp110, __it
.LBE208:
.LBE207:
.LBB209:
.LBB210:
	movq	-16(%rbp), %rax	 # __it, D.105022
.LBE210:
.LBE209:
 # D:/msys64/ucrt64/include/c++/15.2.0/bits/stl_uninitialized.h:273: 	      __builtin_memcpy(std::__niter_base(__result),
	.loc 17 273 24 discriminator 1
	movq	%rcx, %r8	 # tmp113,
	movq	%rax, %rcx	 # tmp111,
	call	memcpy	 #
 # D:/msys64/ucrt64/include/c++/15.2.0/bits/stl_uninitialized.h:276: 	      __result += __n;
	.loc 17 276 20
	movq	-8(%rbp), %rax	 # __n, __n.16_6
 # D:/msys64/ucrt64/include/c++/15.2.0/bits/stl_uninitialized.h:276: 	      __result += __n;
	.loc 17 276 17
	salq	$3, %rax	 #, _7
	addq	%rax, 32(%rbp)	 # _7, __result
.L128:
.LBE206:
.LBE205:
.LBE204:
 # D:/msys64/ucrt64/include/c++/15.2.0/bits/stl_uninitialized.h:278: 	  return __result;
	.loc 17 278 11
	movq	32(%rbp), %rax	 # __result, _17
.LBE203:
.LBE202:
.LBE201:
.LBE200:
 # D:/msys64/ucrt64/include/c++/15.2.0/bits/stl_uninitialized.h:317:     }
	.loc 17 317 5
	addq	$64, %rsp	 #,
	popq	%rbp	 #
	.cfi_restore 6
	.cfi_def_cfa 7, 8
	ret	
	.cfi_endproc
.LFE5546:
	.seh_endproc
	.section	.text$_ZNSt12_Vector_baseIdSaIdEE17_M_create_storageEy,"x"
	.linkonce discard
	.align 2
	.globl	_ZNSt12_Vector_baseIdSaIdEE17_M_create_storageEy
	.def	_ZNSt12_Vector_baseIdSaIdEE17_M_create_storageEy;	.scl	2;	.type	32;	.endef
	.seh_proc	_ZNSt12_Vector_baseIdSaIdEE17_M_create_storageEy
_ZNSt12_Vector_baseIdSaIdEE17_M_create_storageEy:
.LFB5627:
	.loc 9 403 7
	.cfi_startproc
	pushq	%rbp	 #
	.seh_pushreg	%rbp
	.cfi_def_cfa_offset 16
	.cfi_offset 6, -16
	movq	%rsp, %rbp	 #,
	.seh_setframe	%rbp, 0
	.cfi_def_cfa_register 6
	subq	$32, %rsp	 #,
	.seh_stackalloc	32
	.seh_endprologue
	movq	%rcx, 16(%rbp)	 # this, this
	movq	%rdx, 24(%rbp)	 # __n, __n
 # D:/msys64/ucrt64/include/c++/15.2.0/bits/stl_vector.h:405: 	this->_M_impl._M_start = this->_M_allocate(__n);
	.loc 9 405 44
	movq	24(%rbp), %rdx	 # __n, tmp103
	movq	16(%rbp), %rax	 # this, tmp104
	movq	%rax, %rcx	 # tmp104,
	call	_ZNSt12_Vector_baseIdSaIdEE11_M_allocateEy	 #
 # D:/msys64/ucrt64/include/c++/15.2.0/bits/stl_vector.h:405: 	this->_M_impl._M_start = this->_M_allocate(__n);
	.loc 9 405 25 discriminator 1
	movq	16(%rbp), %rdx	 # this, tmp105
	movq	%rax, (%rdx)	 # _1, this_7(D)->_M_impl.D.67390._M_start
 # D:/msys64/ucrt64/include/c++/15.2.0/bits/stl_vector.h:406: 	this->_M_impl._M_finish = this->_M_impl._M_start;
	.loc 9 406 42
	movq	16(%rbp), %rax	 # this, tmp106
	movq	(%rax), %rdx	 # this_7(D)->_M_impl.D.67390._M_start, _2
 # D:/msys64/ucrt64/include/c++/15.2.0/bits/stl_vector.h:406: 	this->_M_impl._M_finish = this->_M_impl._M_start;
	.loc 9 406 26
	movq	16(%rbp), %rax	 # this, tmp107
	movq	%rdx, 8(%rax)	 # _2, this_7(D)->_M_impl.D.67390._M_finish
 # D:/msys64/ucrt64/include/c++/15.2.0/bits/stl_vector.h:407: 	this->_M_impl._M_end_of_storage = this->_M_impl._M_start + __n;
	.loc 9 407 50
	movq	16(%rbp), %rax	 # this, tmp108
	movq	(%rax), %rax	 # this_7(D)->_M_impl.D.67390._M_start, _3
 # D:/msys64/ucrt64/include/c++/15.2.0/bits/stl_vector.h:407: 	this->_M_impl._M_end_of_storage = this->_M_impl._M_start + __n;
	.loc 9 407 59
	movq	24(%rbp), %rdx	 # __n, tmp109
	salq	$3, %rdx	 #, _4
	addq	%rax, %rdx	 # _3, _5
 # D:/msys64/ucrt64/include/c++/15.2.0/bits/stl_vector.h:407: 	this->_M_impl._M_end_of_storage = this->_M_impl._M_start + __n;
	.loc 9 407 34
	movq	16(%rbp), %rax	 # this, tmp110
	movq	%rdx, 16(%rax)	 # _5, this_7(D)->_M_impl.D.67390._M_end_of_storage
 # D:/msys64/ucrt64/include/c++/15.2.0/bits/stl_vector.h:408:       }
	.loc 9 408 7
	nop	
	addq	$32, %rsp	 #,
	popq	%rbp	 #
	.cfi_restore 6
	.cfi_def_cfa 7, 8
	ret	
	.cfi_endproc
.LFE5627:
	.seh_endproc
	.section	.text$_ZSt24__uninitialized_fill_n_aIPdyddET_S1_T0_RKT1_RSaIT2_E,"x"
	.linkonce discard
	.globl	_ZSt24__uninitialized_fill_n_aIPdyddET_S1_T0_RKT1_RSaIT2_E
	.def	_ZSt24__uninitialized_fill_n_aIPdyddET_S1_T0_RKT1_RSaIT2_E;	.scl	2;	.type	32;	.endef
	.seh_proc	_ZSt24__uninitialized_fill_n_aIPdyddET_S1_T0_RKT1_RSaIT2_E
_ZSt24__uninitialized_fill_n_aIPdyddET_S1_T0_RKT1_RSaIT2_E:
.LFB5628:
	.loc 17 720 5
	.cfi_startproc
	pushq	%rbp	 #
	.seh_pushreg	%rbp
	.cfi_def_cfa_offset 16
	.cfi_offset 6, -16
	movq	%rsp, %rbp	 #,
	.seh_setframe	%rbp, 0
	.cfi_def_cfa_register 6
	subq	$32, %rsp	 #,
	.seh_stackalloc	32
	.seh_endprologue
	movq	%rcx, 16(%rbp)	 # __first, __first
	movq	%rdx, 24(%rbp)	 # __n, __n
	movq	%r8, 32(%rbp)	 # __x, __x
	movq	%r9, 40(%rbp)	 # D.102867, D.102867
 # D:/msys64/ucrt64/include/c++/15.2.0/bits/stl_uninitialized.h:724:       if (std::is_constant_evaluated())
	.loc 17 724 37
	call	_ZSt21is_constant_evaluatedv	 #
 # D:/msys64/ucrt64/include/c++/15.2.0/bits/stl_uninitialized.h:724:       if (std::is_constant_evaluated())
	.loc 17 724 7 discriminator 1
	testb	%al, %al	 # retval.18_5
	je	.L134	 #,
 # D:/msys64/ucrt64/include/c++/15.2.0/bits/stl_uninitialized.h:725: 	return std::__do_uninit_fill_n(__first, __n, __x);
	.loc 17 725 32
	movq	32(%rbp), %rcx	 # __x, tmp101
	movq	24(%rbp), %rdx	 # __n, tmp102
	movq	16(%rbp), %rax	 # __first, tmp103
	movq	%rcx, %r8	 # tmp101,
	movq	%rax, %rcx	 # tmp103,
	call	_ZSt18__do_uninit_fill_nIPdydET_S1_T0_RKT1_	 #
 # D:/msys64/ucrt64/include/c++/15.2.0/bits/stl_uninitialized.h:725: 	return std::__do_uninit_fill_n(__first, __n, __x);
	.loc 17 725 50
	jmp	.L135	 #
.L134:
 # D:/msys64/ucrt64/include/c++/15.2.0/bits/stl_uninitialized.h:727:       return std::uninitialized_fill_n(__first, __n, __x);
	.loc 17 727 39
	movq	32(%rbp), %rcx	 # __x, tmp104
	movq	24(%rbp), %rdx	 # __n, tmp105
	movq	16(%rbp), %rax	 # __first, tmp106
	movq	%rcx, %r8	 # tmp104,
	movq	%rax, %rcx	 # tmp106,
	call	_ZSt20uninitialized_fill_nIPdydET_S1_T0_RKT1_	 #
 # D:/msys64/ucrt64/include/c++/15.2.0/bits/stl_uninitialized.h:727:       return std::uninitialized_fill_n(__first, __n, __x);
	.loc 17 727 57
	nop	
.L135:
 # D:/msys64/ucrt64/include/c++/15.2.0/bits/stl_uninitialized.h:728:     }
	.loc 17 728 5
	addq	$32, %rsp	 #,
	popq	%rbp	 #
	.cfi_restore 6
	.cfi_def_cfa 7, 8
	ret	
	.cfi_endproc
.LFE5628:
	.seh_endproc
	.section	.text$_ZSt8_DestroyIPdEvT_S1_,"x"
	.linkonce discard
	.globl	_ZSt8_DestroyIPdEvT_S1_
	.def	_ZSt8_DestroyIPdEvT_S1_;	.scl	2;	.type	32;	.endef
	.seh_proc	_ZSt8_DestroyIPdEvT_S1_
_ZSt8_DestroyIPdEvT_S1_:
.LFB5629:
	.file 19 "D:/msys64/ucrt64/include/c++/15.2.0/bits/stl_construct.h"
	.loc 19 202 5
	.cfi_startproc
	pushq	%rbp	 #
	.seh_pushreg	%rbp
	.cfi_def_cfa_offset 16
	.cfi_offset 6, -16
	movq	%rsp, %rbp	 #,
	.seh_setframe	%rbp, 0
	.cfi_def_cfa_register 6
	subq	$48, %rsp	 #,
	.seh_stackalloc	48
	.seh_endprologue
	movq	%rcx, 16(%rbp)	 # __first, __first
	movq	%rdx, 24(%rbp)	 # __last, __last
.LBB211:
.LBB212:
 # D:/msys64/ucrt64/include/c++/15.2.0/x86_64-w64-mingw32/bits/c++config.h:589:     return __builtin_is_constant_evaluated();
	.loc 13 589 44
	movl	$0, %eax	 #, D.105029
.LBE212:
.LBE211:
 # D:/msys64/ucrt64/include/c++/15.2.0/bits/stl_construct.h:214:       else if (std::__is_constant_evaluated())
	.loc 19 214 12 discriminator 1
	testb	%al, %al	 # D.105029
	je	.L142	 #,
 # D:/msys64/ucrt64/include/c++/15.2.0/bits/stl_construct.h:215: 	for (; __first != __last; ++__first)
	.loc 19 215 2
	jmp	.L139	 #
.L141:
	movq	16(%rbp), %rax	 # __first, tmp100
	movq	%rax, -8(%rbp)	 # tmp100, __r
.LBB213:
.LBB214:
 # D:/msys64/ucrt64/include/c++/15.2.0/bits/move.h:53:     { return __builtin_addressof(__r); }
	.loc 11 53 37
	movq	-8(%rbp), %rax	 # __r, D.105033
.LBE214:
.LBE213:
 # D:/msys64/ucrt64/include/c++/15.2.0/bits/stl_construct.h:216: 	  std::destroy_at(std::__addressof(*__first));
	.loc 19 216 19 discriminator 1
	movq	%rax, %rcx	 # D.105033,
	call	_ZSt10destroy_atIdEvPT_	 #
 # D:/msys64/ucrt64/include/c++/15.2.0/bits/stl_construct.h:215: 	for (; __first != __last; ++__first)
	.loc 19 215 2 discriminator 2
	addq	$8, 16(%rbp)	 #, __first
.L139:
 # D:/msys64/ucrt64/include/c++/15.2.0/bits/stl_construct.h:215: 	for (; __first != __last; ++__first)
	.loc 19 215 17 discriminator 1
	movq	16(%rbp), %rax	 # __first, tmp101
	cmpq	24(%rbp), %rax	 # __last, tmp101
	jne	.L141	 #,
.L142:
 # D:/msys64/ucrt64/include/c++/15.2.0/bits/stl_construct.h:222:     }
	.loc 19 222 5
	nop	
	addq	$48, %rsp	 #,
	popq	%rbp	 #
	.cfi_restore 6
	.cfi_def_cfa 7, 8
	ret	
	.cfi_endproc
.LFE5629:
	.seh_endproc
	.section	.text$_ZNSt19_UninitDestroyGuardIPdvED1Ev,"x"
	.linkonce discard
	.align 2
	.globl	_ZNSt19_UninitDestroyGuardIPdvED1Ev
	.def	_ZNSt19_UninitDestroyGuardIPdvED1Ev;	.scl	2;	.type	32;	.endef
	.seh_proc	_ZNSt19_UninitDestroyGuardIPdvED1Ev
_ZNSt19_UninitDestroyGuardIPdvED1Ev:
.LFB5671:
	.loc 17 118 7
	.cfi_startproc
	pushq	%rbp	 #
	.seh_pushreg	%rbp
	.cfi_def_cfa_offset 16
	.cfi_offset 6, -16
	movq	%rsp, %rbp	 #,
	.seh_setframe	%rbp, 0
	.cfi_def_cfa_register 6
	subq	$32, %rsp	 #,
	.seh_stackalloc	32
	.seh_endprologue
	movq	%rcx, 16(%rbp)	 # this, this
.LBB215:
 # D:/msys64/ucrt64/include/c++/15.2.0/bits/stl_uninitialized.h:120: 	if (__builtin_expect(_M_cur != 0, 0))
	.loc 17 120 23
	movq	16(%rbp), %rax	 # this, tmp105
	movq	8(%rax), %rax	 # this_10(D)->_M_cur, _1
 # D:/msys64/ucrt64/include/c++/15.2.0/bits/stl_uninitialized.h:120: 	if (__builtin_expect(_M_cur != 0, 0))
	.loc 17 120 30
	testq	%rax, %rax	 # _1
	setne	%al	 #, _2
 # D:/msys64/ucrt64/include/c++/15.2.0/bits/stl_uninitialized.h:120: 	if (__builtin_expect(_M_cur != 0, 0))
	.loc 17 120 22
	movzbl	%al, %eax	 # _2, _3
 # D:/msys64/ucrt64/include/c++/15.2.0/bits/stl_uninitialized.h:120: 	if (__builtin_expect(_M_cur != 0, 0))
	.loc 17 120 2 discriminator 1
	testl	%eax, %eax	 # _4
	je	.L145	 #,
 # D:/msys64/ucrt64/include/c++/15.2.0/bits/stl_uninitialized.h:121: 	  std::_Destroy(_M_first, *_M_cur);
	.loc 17 121 29
	movq	16(%rbp), %rax	 # this, tmp106
	movq	8(%rax), %rax	 # this_10(D)->_M_cur, _5
 # D:/msys64/ucrt64/include/c++/15.2.0/bits/stl_uninitialized.h:121: 	  std::_Destroy(_M_first, *_M_cur);
	.loc 17 121 17
	movq	(%rax), %rdx	 # *_5, _6
 # D:/msys64/ucrt64/include/c++/15.2.0/bits/stl_uninitialized.h:121: 	  std::_Destroy(_M_first, *_M_cur);
	.loc 17 121 18
	movq	16(%rbp), %rax	 # this, tmp107
	movq	(%rax), %rax	 # this_10(D)->_M_first, _7
 # D:/msys64/ucrt64/include/c++/15.2.0/bits/stl_uninitialized.h:121: 	  std::_Destroy(_M_first, *_M_cur);
	.loc 17 121 17
	movq	%rax, %rcx	 # _7,
	call	_ZSt8_DestroyIPdEvT_S1_	 #
.L145:
.LBE215:
 # D:/msys64/ucrt64/include/c++/15.2.0/bits/stl_uninitialized.h:122:       }
	.loc 17 122 7
	nop	
	addq	$32, %rsp	 #,
	popq	%rbp	 #
	.cfi_restore 6
	.cfi_def_cfa 7, 8
	ret	
	.cfi_endproc
.LFE5671:
	.seh_endproc
	.section	.text$_ZSt10_ConstructIdJRKdEEvPT_DpOT0_,"x"
	.linkonce discard
	.globl	_ZSt10_ConstructIdJRKdEEvPT_DpOT0_
	.def	_ZSt10_ConstructIdJRKdEEvPT_DpOT0_;	.scl	2;	.type	32;	.endef
	.seh_proc	_ZSt10_ConstructIdJRKdEEvPT_DpOT0_
_ZSt10_ConstructIdJRKdEEvPT_DpOT0_:
.LFB5673:
	.loc 19 123 5
	.cfi_startproc
	pushq	%rbp	 #
	.seh_pushreg	%rbp
	.cfi_def_cfa_offset 16
	.cfi_offset 6, -16
	pushq	%rbx	 #
	.seh_pushreg	%rbx
	.cfi_def_cfa_offset 24
	.cfi_offset 3, -24
	subq	$56, %rsp	 #,
	.seh_stackalloc	56
	.cfi_def_cfa_offset 80
	leaq	48(%rsp), %rbp	 #,
	.seh_setframe	%rbp, 48
	.cfi_def_cfa 6, 32
	.seh_endprologue
	movq	%rcx, 32(%rbp)	 # __p, __p
	movq	%rdx, 40(%rbp)	 # __args#0, __args#0
.LBB216:
.LBB217:
 # D:/msys64/ucrt64/include/c++/15.2.0/x86_64-w64-mingw32/bits/c++config.h:589:     return __builtin_is_constant_evaluated();
	.loc 13 589 44
	movl	$0, %eax	 #, D.105040
.LBE217:
.LBE216:
 # D:/msys64/ucrt64/include/c++/15.2.0/bits/stl_construct.h:126:       if (std::__is_constant_evaluated())
	.loc 19 126 7 discriminator 1
	testb	%al, %al	 # D.105040
	je	.L148	 #,
	movq	40(%rbp), %rax	 # __args#0, tmp106
	movq	%rax, -8(%rbp)	 # tmp106, __t
.LBB218:
.LBB219:
 # D:/msys64/ucrt64/include/c++/15.2.0/bits/move.h:73:     { return static_cast<_Tp&&>(__t); }
	.loc 11 73 36
	movq	-8(%rbp), %rdx	 # __t, D.105044
.LBE219:
.LBE218:
 # D:/msys64/ucrt64/include/c++/15.2.0/bits/stl_construct.h:129: 	  std::construct_at(__p, std::forward<_Args>(__args)...);
	.loc 19 129 21 discriminator 1
	movq	32(%rbp), %rax	 # __p, tmp107
	movq	%rax, %rcx	 # tmp107,
	call	_ZSt12construct_atIdJRKdEQaant20is_unbounded_array_vIT_ErqXgsnwcvPvLi0E_S2_pispcl7declvalIT0_EEEEEPS2_S5_DpOS4_	 #
 # D:/msys64/ucrt64/include/c++/15.2.0/bits/stl_construct.h:130: 	  return;
	.loc 19 130 4
	jmp	.L146	 #
.L148:
 # D:/msys64/ucrt64/include/c++/15.2.0/bits/stl_construct.h:133:       ::new(static_cast<void*>(__p)) _Tp(std::forward<_Args>(__args)...);
	.loc 19 133 13
	movq	32(%rbp), %rbx	 # __p, _8
 # D:/msys64/ucrt64/include/c++/15.2.0/bits/stl_construct.h:133:       ::new(static_cast<void*>(__p)) _Tp(std::forward<_Args>(__args)...);
	.loc 19 133 7
	movq	%rbx, %rdx	 # _8,
	movl	$8, %ecx	 #,
	call	_ZnwyPv	 #
	movq	40(%rbp), %rdx	 # __args#0, tmp108
	movq	%rdx, -16(%rbp)	 # tmp108, __t
.LBB220:
.LBB221:
 # D:/msys64/ucrt64/include/c++/15.2.0/bits/move.h:73:     { return static_cast<_Tp&&>(__t); }
	.loc 11 73 36
	movq	-16(%rbp), %rdx	 # __t, D.105048
.LBE221:
.LBE220:
 # D:/msys64/ucrt64/include/c++/15.2.0/bits/stl_construct.h:133:       ::new(static_cast<void*>(__p)) _Tp(std::forward<_Args>(__args)...);
	.loc 19 133 7 discriminator 2
	movsd	(%rdx), %xmm0	 # *_2, _3
	movsd	%xmm0, (%rax)	 # _3, MEM[(double *)_10]
	movl	$0, %edx	 #, _14
	testb	%dl, %dl	 # _14
	je	.L146	 #,
 # D:/msys64/ucrt64/include/c++/15.2.0/bits/stl_construct.h:133:       ::new(static_cast<void*>(__p)) _Tp(std::forward<_Args>(__args)...);
	.loc 19 133 7 is_stmt 0 discriminator 3
	movq	%rbx, %rdx	 # _8,
	movq	%rax, %rcx	 # _10,
	call	_ZdlPvS_	 #
	nop	
.L146:
 # D:/msys64/ucrt64/include/c++/15.2.0/bits/stl_construct.h:134:     }
	.loc 19 134 5 is_stmt 1
	addq	$56, %rsp	 #,
	popq	%rbx	 #
	.cfi_restore 3
	popq	%rbp	 #
	.cfi_restore 6
	.cfi_def_cfa 7, -40
	ret	
	.cfi_endproc
.LFE5673:
	.seh_endproc
	.section	.text$_ZNSt19_UninitDestroyGuardIPdvE7releaseEv,"x"
	.linkonce discard
	.align 2
	.globl	_ZNSt19_UninitDestroyGuardIPdvE7releaseEv
	.def	_ZNSt19_UninitDestroyGuardIPdvE7releaseEv;	.scl	2;	.type	32;	.endef
	.seh_proc	_ZNSt19_UninitDestroyGuardIPdvE7releaseEv
_ZNSt19_UninitDestroyGuardIPdvE7releaseEv:
.LFB5674:
	.loc 17 125 12
	.cfi_startproc
	pushq	%rbp	 #
	.seh_pushreg	%rbp
	.cfi_def_cfa_offset 16
	.cfi_offset 6, -16
	movq	%rsp, %rbp	 #,
	.seh_setframe	%rbp, 0
	.cfi_def_cfa_register 6
	.seh_endprologue
	movq	%rcx, 16(%rbp)	 # this, this
 # D:/msys64/ucrt64/include/c++/15.2.0/bits/stl_uninitialized.h:125:       void release() { _M_cur = 0; }
	.loc 17 125 31
	movq	16(%rbp), %rax	 # this, tmp98
	movq	$0, 8(%rax)	 #, this_2(D)->_M_cur
 # D:/msys64/ucrt64/include/c++/15.2.0/bits/stl_uninitialized.h:125:       void release() { _M_cur = 0; }
	.loc 17 125 36
	nop	
	popq	%rbp	 #
	.cfi_restore 6
	.cfi_def_cfa 7, 8
	ret	
	.cfi_endproc
.LFE5674:
	.seh_endproc
	.section	.text$_ZSt18__do_uninit_fill_nIPdydET_S1_T0_RKT1_,"x"
	.linkonce discard
	.globl	_ZSt18__do_uninit_fill_nIPdydET_S1_T0_RKT1_
	.def	_ZSt18__do_uninit_fill_nIPdydET_S1_T0_RKT1_;	.scl	2;	.type	32;	.endef
	.seh_proc	_ZSt18__do_uninit_fill_nIPdydET_S1_T0_RKT1_
_ZSt18__do_uninit_fill_nIPdydET_S1_T0_RKT1_:
.LFB5747:
	.loc 17 455 5
	.cfi_startproc
	pushq	%rbp	 #
	.seh_pushreg	%rbp
	.cfi_def_cfa_offset 16
	.cfi_offset 6, -16
	pushq	%rbx	 #
	.seh_pushreg	%rbx
	.cfi_def_cfa_offset 24
	.cfi_offset 3, -24
	subq	$72, %rsp	 #,
	.seh_stackalloc	72
	.cfi_def_cfa_offset 96
	leaq	64(%rsp), %rbp	 #,
	.seh_setframe	%rbp, 64
	.cfi_def_cfa 6, 32
	.seh_endprologue
	movq	%rcx, 32(%rbp)	 # __first, __first
	movq	%rdx, 40(%rbp)	 # __n, __n
	movq	%r8, 48(%rbp)	 # __x, __x
 # D:/msys64/ucrt64/include/c++/15.2.0/bits/stl_uninitialized.h:457:       _UninitDestroyGuard<_ForwardIterator> __guard(__first);
	.loc 17 457 45
	leaq	-32(%rbp), %rax	 #, tmp106
	leaq	32(%rbp), %rdx	 #,
	movq	%rax, %rcx	 # tmp106,
	call	_ZNSt19_UninitDestroyGuardIPdvEC1ERS0_	 #
 # D:/msys64/ucrt64/include/c++/15.2.0/bits/stl_uninitialized.h:469:       for (; __n--; ++__first)
	.loc 17 469 7
	jmp	.L154	 #
.L156:
 # D:/msys64/ucrt64/include/c++/15.2.0/bits/stl_uninitialized.h:470: 	std::_Construct(std::__addressof(*__first), __x);
	.loc 17 470 17
	movq	32(%rbp), %rax	 # __first, __first.19_1
	movq	%rax, -8(%rbp)	 # __first.19_1, __r
.LBB222:
.LBB223:
 # D:/msys64/ucrt64/include/c++/15.2.0/bits/move.h:53:     { return __builtin_addressof(__r); }
	.loc 11 53 37
	movq	-8(%rbp), %rax	 # __r, D.105068
.LBE223:
.LBE222:
 # D:/msys64/ucrt64/include/c++/15.2.0/bits/stl_uninitialized.h:470: 	std::_Construct(std::__addressof(*__first), __x);
	.loc 17 470 17 discriminator 1
	movq	48(%rbp), %rdx	 # __x, tmp107
	movq	%rax, %rcx	 # D.105068,
	call	_ZSt10_ConstructIdJRKdEEvPT_DpOT0_	 #
 # D:/msys64/ucrt64/include/c++/15.2.0/bits/stl_uninitialized.h:469:       for (; __n--; ++__first)
	.loc 17 469 7 discriminator 2
	movq	32(%rbp), %rax	 # __first, __first.20_3
	addq	$8, %rax	 #, _4
	movq	%rax, 32(%rbp)	 # _4, __first
.L154:
 # D:/msys64/ucrt64/include/c++/15.2.0/bits/stl_uninitialized.h:469:       for (; __n--; ++__first)
	.loc 17 469 7 is_stmt 0 discriminator 1
	movq	40(%rbp), %rax	 # __n, __n.22_5
	leaq	-1(%rax), %rdx	 #, tmp108
	movq	%rdx, 40(%rbp)	 # tmp108, __n
	testq	%rax, %rax	 # __n.22_5
	setne	%al	 #, retval.21_12
	testb	%al, %al	 # retval.21_12
	jne	.L156	 #,
 # D:/msys64/ucrt64/include/c++/15.2.0/bits/stl_uninitialized.h:471:       __guard.release();
	.loc 17 471 22 is_stmt 1
	leaq	-32(%rbp), %rax	 #, tmp109
	movq	%rax, %rcx	 # tmp109,
	call	_ZNSt19_UninitDestroyGuardIPdvE7releaseEv	 #
 # D:/msys64/ucrt64/include/c++/15.2.0/bits/stl_uninitialized.h:472:       return __first;
	.loc 17 472 14
	movq	32(%rbp), %rbx	 # __first, _14
 # D:/msys64/ucrt64/include/c++/15.2.0/bits/stl_uninitialized.h:473:     }
	.loc 17 473 5
	leaq	-32(%rbp), %rax	 #, tmp110
	movq	%rax, %rcx	 # tmp110,
	call	_ZNSt19_UninitDestroyGuardIPdvED1Ev	 #
 # D:/msys64/ucrt64/include/c++/15.2.0/bits/stl_uninitialized.h:472:       return __first;
	.loc 17 472 14
	movq	%rbx, %rax	 # _14, <retval>
 # D:/msys64/ucrt64/include/c++/15.2.0/bits/stl_uninitialized.h:473:     }
	.loc 17 473 5
	addq	$72, %rsp	 #,
	popq	%rbx	 #
	.cfi_restore 3
	popq	%rbp	 #
	.cfi_restore 6
	.cfi_def_cfa 7, -56
	ret	
	.cfi_endproc
.LFE5747:
	.seh_endproc
	.section	.text$_ZSt20uninitialized_fill_nIPdydET_S1_T0_RKT1_,"x"
	.linkonce discard
	.globl	_ZSt20uninitialized_fill_nIPdydET_S1_T0_RKT1_
	.def	_ZSt20uninitialized_fill_nIPdydET_S1_T0_RKT1_;	.scl	2;	.type	32;	.endef
	.seh_proc	_ZSt20uninitialized_fill_nIPdydET_S1_T0_RKT1_
_ZSt20uninitialized_fill_nIPdydET_S1_T0_RKT1_:
.LFB5748:
	.loc 17 526 5
	.cfi_startproc
	pushq	%rbp	 #
	.seh_pushreg	%rbp
	.cfi_def_cfa_offset 16
	.cfi_offset 6, -16
	movq	%rsp, %rbp	 #,
	.seh_setframe	%rbp, 0
	.cfi_def_cfa_register 6
	subq	$32, %rsp	 #,
	.seh_stackalloc	32
	.seh_endprologue
	movq	%rcx, 16(%rbp)	 # __first, __first
	movq	%rdx, 24(%rbp)	 # __n, __n
	movq	%r8, 32(%rbp)	 # __x, __x
 # D:/msys64/ucrt64/include/c++/15.2.0/bits/stl_uninitialized.h:571:       return std::__do_uninit_fill_n(__first, __n, __x);
	.loc 17 571 37
	movq	32(%rbp), %rcx	 # __x, tmp100
	movq	24(%rbp), %rdx	 # __n, tmp101
	movq	16(%rbp), %rax	 # __first, tmp102
	movq	%rcx, %r8	 # tmp100,
	movq	%rax, %rcx	 # tmp102,
	call	_ZSt18__do_uninit_fill_nIPdydET_S1_T0_RKT1_	 #
 # D:/msys64/ucrt64/include/c++/15.2.0/bits/stl_uninitialized.h:580:     }
	.loc 17 580 5
	addq	$32, %rsp	 #,
	popq	%rbp	 #
	.cfi_restore 6
	.cfi_def_cfa 7, 8
	ret	
	.cfi_endproc
.LFE5748:
	.seh_endproc
	.section	.text$_ZSt10destroy_atIdEvPT_,"x"
	.linkonce discard
	.globl	_ZSt10destroy_atIdEvPT_
	.def	_ZSt10destroy_atIdEvPT_;	.scl	2;	.type	32;	.endef
	.seh_proc	_ZSt10destroy_atIdEvPT_
_ZSt10destroy_atIdEvPT_:
.LFB5749:
	.loc 19 80 5
	.cfi_startproc
	pushq	%rbp	 #
	.seh_pushreg	%rbp
	.cfi_def_cfa_offset 16
	.cfi_offset 6, -16
	movq	%rsp, %rbp	 #,
	.seh_setframe	%rbp, 0
	.cfi_def_cfa_register 6
	.seh_endprologue
	movq	%rcx, 16(%rbp)	 # __location, __location
 # D:/msys64/ucrt64/include/c++/15.2.0/bits/stl_construct.h:89:     }
	.loc 19 89 5
	nop	
	popq	%rbp	 #
	.cfi_restore 6
	.cfi_def_cfa 7, 8
	ret	
	.cfi_endproc
.LFE5749:
	.seh_endproc
	.section	.text$_ZSt12construct_atIdJRKdEQaant20is_unbounded_array_vIT_ErqXgsnwcvPvLi0E_S2_pispcl7declvalIT0_EEEEEPS2_S5_DpOS4_,"x"
	.linkonce discard
	.globl	_ZSt12construct_atIdJRKdEQaant20is_unbounded_array_vIT_ErqXgsnwcvPvLi0E_S2_pispcl7declvalIT0_EEEEEPS2_S5_DpOS4_
	.def	_ZSt12construct_atIdJRKdEQaant20is_unbounded_array_vIT_ErqXgsnwcvPvLi0E_S2_pispcl7declvalIT0_EEEEEPS2_S5_DpOS4_;	.scl	2;	.type	32;	.endef
	.seh_proc	_ZSt12construct_atIdJRKdEQaant20is_unbounded_array_vIT_ErqXgsnwcvPvLi0E_S2_pispcl7declvalIT0_EEEEEPS2_S5_DpOS4_
_ZSt12construct_atIdJRKdEQaant20is_unbounded_array_vIT_ErqXgsnwcvPvLi0E_S2_pispcl7declvalIT0_EEEEEPS2_S5_DpOS4_:
.LFB5765:
	.loc 19 96 5
	.cfi_startproc
	pushq	%rbp	 #
	.seh_pushreg	%rbp
	.cfi_def_cfa_offset 16
	.cfi_offset 6, -16
	pushq	%rsi	 #
	.seh_pushreg	%rsi
	.cfi_def_cfa_offset 24
	.cfi_offset 4, -24
	pushq	%rbx	 #
	.seh_pushreg	%rbx
	.cfi_def_cfa_offset 32
	.cfi_offset 3, -32
	subq	$48, %rsp	 #,
	.seh_stackalloc	48
	.cfi_def_cfa_offset 80
	leaq	48(%rsp), %rbp	 #,
	.seh_setframe	%rbp, 48
	.cfi_def_cfa 6, 32
	.seh_endprologue
	movq	%rcx, 32(%rbp)	 # __location, __location
	movq	%rdx, 40(%rbp)	 # __args#0, __args#0
 # D:/msys64/ucrt64/include/c++/15.2.0/bits/stl_construct.h:99:       void* __loc = __location;
	.loc 19 99 13
	movq	32(%rbp), %rax	 # __location, tmp105
	movq	%rax, -8(%rbp)	 # tmp105, __loc
 # D:/msys64/ucrt64/include/c++/15.2.0/bits/stl_construct.h:110: 	return ::new(__loc) _Tp(std::forward<_Args>(__args)...);
	.loc 19 110 15
	movq	-8(%rbp), %rsi	 # __loc, _6
 # D:/msys64/ucrt64/include/c++/15.2.0/bits/stl_construct.h:110: 	return ::new(__loc) _Tp(std::forward<_Args>(__args)...);
	.loc 19 110 9
	movq	%rsi, %rdx	 # _6,
	movl	$8, %ecx	 #,
	call	_ZnwyPv	 #
	movq	%rax, %rbx	 #, _9
	movq	40(%rbp), %rax	 # __args#0, tmp106
	movq	%rax, -16(%rbp)	 # tmp106, __t
.LBB224:
.LBB225:
 # D:/msys64/ucrt64/include/c++/15.2.0/bits/move.h:73:     { return static_cast<_Tp&&>(__t); }
	.loc 11 73 36
	movq	-16(%rbp), %rax	 # __t, D.105037
.LBE225:
.LBE224:
 # D:/msys64/ucrt64/include/c++/15.2.0/bits/stl_construct.h:110: 	return ::new(__loc) _Tp(std::forward<_Args>(__args)...);
	.loc 19 110 9 discriminator 2
	movsd	(%rax), %xmm0	 # *_1, _2
	movsd	%xmm0, (%rbx)	 # _2, MEM[(double *)_9]
 # D:/msys64/ucrt64/include/c++/15.2.0/bits/stl_construct.h:110: 	return ::new(__loc) _Tp(std::forward<_Args>(__args)...);
	.loc 19 110 56 discriminator 2
	movl	$0, %eax	 #, _13
 # D:/msys64/ucrt64/include/c++/15.2.0/bits/stl_construct.h:110: 	return ::new(__loc) _Tp(std::forward<_Args>(__args)...);
	.loc 19 110 56 is_stmt 0 discriminator 3
	testb	%al, %al	 # _13
	je	.L164	 #,
 # D:/msys64/ucrt64/include/c++/15.2.0/bits/stl_construct.h:110: 	return ::new(__loc) _Tp(std::forward<_Args>(__args)...);
	.loc 19 110 9 is_stmt 1 discriminator 4
	movq	%rsi, %rdx	 # _6,
	movq	%rbx, %rcx	 # _9,
	call	_ZdlPvS_	 #
.L164:
 # D:/msys64/ucrt64/include/c++/15.2.0/bits/stl_construct.h:110: 	return ::new(__loc) _Tp(std::forward<_Args>(__args)...);
	.loc 19 110 56 discriminator 8
	movq	%rbx, %rax	 # _9, <retval>
 # D:/msys64/ucrt64/include/c++/15.2.0/bits/stl_construct.h:111:     }
	.loc 19 111 5
	addq	$48, %rsp	 #,
	popq	%rbx	 #
	.cfi_restore 3
	popq	%rsi	 #
	.cfi_restore 4
	popq	%rbp	 #
	.cfi_restore 6
	.cfi_def_cfa 7, -24
	ret	
	.cfi_endproc
.LFE5765:
	.seh_endproc
	.weak	_ZSt12construct_atIdJRKdEEPT_S3_DpOT0_
	.def	_ZSt12construct_atIdJRKdEEPT_S3_DpOT0_;	.scl	2;	.type	32;	.endef
	.set	_ZSt12construct_atIdJRKdEEPT_S3_DpOT0_,_ZSt12construct_atIdJRKdEQaant20is_unbounded_array_vIT_ErqXgsnwcvPvLi0E_S2_pispcl7declvalIT0_EEEEEPS2_S5_DpOS4_
	.section	.text$_ZNSt15__new_allocatorIdE10deallocateEPdy,"x"
	.linkonce discard
	.align 2
	.globl	_ZNSt15__new_allocatorIdE10deallocateEPdy
	.def	_ZNSt15__new_allocatorIdE10deallocateEPdy;	.scl	2;	.type	32;	.endef
	.seh_proc	_ZNSt15__new_allocatorIdE10deallocateEPdy
_ZNSt15__new_allocatorIdE10deallocateEPdy:
.LFB5792:
	.loc 5 156 7
	.cfi_startproc
	pushq	%rbp	 #
	.seh_pushreg	%rbp
	.cfi_def_cfa_offset 16
	.cfi_offset 6, -16
	movq	%rsp, %rbp	 #,
	.seh_setframe	%rbp, 0
	.cfi_def_cfa_register 6
	subq	$32, %rsp	 #,
	.seh_stackalloc	32
	.seh_endprologue
	movq	%rcx, 16(%rbp)	 # this, this
	movq	%rdx, 24(%rbp)	 # __p, __p
	movq	%r8, 32(%rbp)	 # __n, __n
 # D:/msys64/ucrt64/include/c++/15.2.0/bits/new_allocator.h:172: 	_GLIBCXX_OPERATOR_DELETE(_GLIBCXX_SIZED_DEALLOC(__p, __n));
	.loc 5 172 54
	movq	32(%rbp), %rax	 # __n, tmp99
	leaq	0(,%rax,8), %rdx	 #, _2
	movq	24(%rbp), %rax	 # __p, tmp100
	movq	%rax, %rcx	 # tmp100,
	call	_ZdlPvy	 #
	nop	
 # D:/msys64/ucrt64/include/c++/15.2.0/bits/new_allocator.h:173:       }
	.loc 5 173 7
	addq	$32, %rsp	 #,
	popq	%rbp	 #
	.cfi_restore 6
	.cfi_def_cfa 7, 8
	ret	
	.cfi_endproc
.LFE5792:
	.seh_endproc
	.globl	_ZTVN3cva11instruments14EuropeanOptionE
	.section	.rdata$_ZTVN3cva11instruments14EuropeanOptionE,"dr"
	.linkonce same_size
	.align 8
_ZTVN3cva11instruments14EuropeanOptionE:
	.quad	0
	.quad	_ZTIN3cva11instruments14EuropeanOptionE
	.quad	_ZN3cva11instruments14EuropeanOptionD1Ev
	.quad	_ZN3cva11instruments14EuropeanOptionD0Ev
	.quad	_ZNK3cva11instruments14EuropeanOption5valueEdd
	.globl	_ZTVN3cva11instruments10InstrumentE
	.section	.rdata$_ZTVN3cva11instruments10InstrumentE,"dr"
	.linkonce same_size
	.align 8
_ZTVN3cva11instruments10InstrumentE:
	.quad	0
	.quad	_ZTIN3cva11instruments10InstrumentE
	.quad	0
	.quad	0
	.quad	__cxa_pure_virtual
	.globl	_ZTIN3cva11instruments14EuropeanOptionE
	.section	.rdata$_ZTIN3cva11instruments14EuropeanOptionE,"dr"
	.linkonce same_size
	.align 8
_ZTIN3cva11instruments14EuropeanOptionE:
 # <anonymous>:
 # <anonymous>:
	.quad	_ZTVN10__cxxabiv120__si_class_type_infoE+16
 # <anonymous>:
	.quad	_ZTSN3cva11instruments14EuropeanOptionE
 # <anonymous>:
	.quad	_ZTIN3cva11instruments10InstrumentE
	.globl	_ZTSN3cva11instruments14EuropeanOptionE
	.section	.rdata$_ZTSN3cva11instruments14EuropeanOptionE,"dr"
	.linkonce same_size
	.align 32
_ZTSN3cva11instruments14EuropeanOptionE:
	.ascii "N3cva11instruments14EuropeanOptionE\0"
	.globl	_ZTIN3cva11instruments10InstrumentE
	.section	.rdata$_ZTIN3cva11instruments10InstrumentE,"dr"
	.linkonce same_size
	.align 8
_ZTIN3cva11instruments10InstrumentE:
 # <anonymous>:
 # <anonymous>:
	.quad	_ZTVN10__cxxabiv117__class_type_infoE+16
 # <anonymous>:
	.quad	_ZTSN3cva11instruments10InstrumentE
	.globl	_ZTSN3cva11instruments10InstrumentE
	.section	.rdata$_ZTSN3cva11instruments10InstrumentE,"dr"
	.linkonce same_size
	.align 32
_ZTSN3cva11instruments10InstrumentE:
	.ascii "N3cva11instruments10InstrumentE\0"
	.section .rdata,"dr"
	.align 16
.LC0:
	.long	-1
	.long	2147483647
	.long	0
	.long	0
	.align 16
.LC1:
	.long	0
	.long	-2147483648
	.long	0
	.long	0
	.align 8
.LC2:
	.long	1719614412
	.long	1072079006
	.align 8
.LC3:
	.long	0
	.long	1071644672
	.align 8
.LC10:
	.long	0
	.long	1072693248
	.align 8
.LC11:
	.long	0
	.long	1079574528
	.align 8
.LC12:
	.long	-1717986918
	.long	1070176665
	.align 8
.LC13:
	.long	0
	.long	1073741824
	.align 8
.LC16:
	.long	-1998362383
	.long	1055193269
	.align 8
.LC21:
	.long	-790273982
	.long	1078958882
	.align 8
.LC22:
	.long	-1717986918
	.long	1069128089
	.weak	__cxa_pure_virtual
	.text
.Letext0:
	.file 20 "D:/msys64/ucrt64/include/c++/15.2.0/bits/utility.h"
	.file 21 "D:/msys64/ucrt64/include/c++/15.2.0/concepts"
	.file 22 "D:/msys64/ucrt64/include/c++/15.2.0/bits/iterator_concepts.h"
	.file 23 "D:/msys64/ucrt64/include/c++/15.2.0/compare"
	.file 24 "D:/msys64/ucrt64/include/c++/15.2.0/debug/debug.h"
	.file 25 "D:/msys64/ucrt64/include/c++/15.2.0/numbers"
	.file 26 "D:/msys64/ucrt64/include/c++/15.2.0/bits/memory_resource.h"
	.file 27 "D:/msys64/ucrt64/include/c++/15.2.0/bits/exception_ptr.h"
	.file 28 "D:/msys64/ucrt64/include/c++/15.2.0/cstddef"
	.file 29 "D:/msys64/ucrt64/include/c++/15.2.0/cwchar"
	.file 30 "D:/msys64/ucrt64/include/c++/15.2.0/bits/char_traits.h"
	.file 31 "D:/msys64/ucrt64/include/c++/15.2.0/clocale"
	.file 32 "D:/msys64/ucrt64/include/c++/15.2.0/cstdlib"
	.file 33 "D:/msys64/ucrt64/include/c++/15.2.0/cstdio"
	.file 34 "D:/msys64/ucrt64/include/c++/15.2.0/system_error"
	.file 35 "D:/msys64/ucrt64/include/c++/15.2.0/cwctype"
	.file 36 "D:/msys64/ucrt64/include/c++/15.2.0/bits/ostream.h"
	.file 37 "D:/msys64/ucrt64/include/c++/15.2.0/iosfwd"
	.file 38 "D:/msys64/ucrt64/include/c++/15.2.0/bits/vector.tcc"
	.file 39 "D:/msys64/ucrt64/include/c++/15.2.0/bits/shared_ptr_base.h"
	.file 40 "D:/msys64/ucrt64/include/c++/15.2.0/cstdint"
	.file 41 "D:/msys64/ucrt64/include/c++/15.2.0/cmath"
	.file 42 "D:/msys64/ucrt64/include/c++/15.2.0/bits/functexcept.h"
	.file 43 "D:/msys64/ucrt64/include/c++/15.2.0/ostream"
	.file 44 "D:/msys64/ucrt64/include/c++/15.2.0/bits/predefined_ops.h"
	.file 45 "D:/msys64/ucrt64/include/c++/15.2.0/ext/alloc_traits.h"
	.file 46 "D:/msys64/ucrt64/include/c++/15.2.0/bits/ptr_traits.h"
	.file 47 "D:/msys64/ucrt64/include/corecrt.h"
	.file 48 "D:/msys64/ucrt64/include/stddef.h"
	.file 49 "D:/msys64/ucrt64/include/wchar.h"
	.file 50 "D:/msys64/ucrt64/include/swprintf.inl"
	.file 51 "D:/msys64/ucrt64/include/stdio.h"
	.file 52 "D:/msys64/ucrt64/include/locale.h"
	.file 53 "D:/msys64/ucrt64/include/stdlib.h"
	.file 54 "D:/msys64/ucrt64/include/wctype.h"
	.file 55 "D:/msys64/ucrt64/include/corecrt_wctype.h"
	.file 56 "D:/msys64/ucrt64/include/stdint.h"
	.file 57 "D:/msys64/ucrt64/include/c++/15.2.0/pstl/execution_defs.h"
	.file 58 "D:/msys64/ucrt64/include/math.h"
	.file 59 "D:/msys64/ucrt64/include/c++/15.2.0/stdlib.h"
	.file 60 "D:/msys64/ucrt64/include/assert.h"
	.file 61 "D:/msys64/ucrt64/include/c++/15.2.0/iostream"
	.file 62 "D:/msys64/ucrt64/include/c++/15.2.0/ext/concurrence.h"
	.section	.rdata$.refptr._ZSt4endlIcSt11char_traitsIcEERSt13basic_ostreamIT_T0_ES6_, "dr"
	.p2align	3, 0
	.globl	.refptr._ZSt4endlIcSt11char_traitsIcEERSt13basic_ostreamIT_T0_ES6_
	.linkonce	discard
.refptr._ZSt4endlIcSt11char_traitsIcEERSt13basic_ostreamIT_T0_ES6_:
	.quad	_ZSt4endlIcSt11char_traitsIcEERSt13basic_ostreamIT_T0_ES6_
	.section	.rdata$.refptr._ZSt4cout, "dr"
	.p2align	3, 0
	.globl	.refptr._ZSt4cout
	.linkonce	discard
.refptr._ZSt4cout:
	.quad	_ZSt4cout
